
OBJ/place.o:     file format elf64-x86-64


Disassembly of section .text:

0000000000000000 <try_place>:
       0:	55                   	push   %rbp
       1:	48 89 e5             	mov    %rsp,%rbp
       4:	53                   	push   %rbx
       5:	48 81 ec 58 02 00 00 	sub    $0x258,%rsp
       c:	ff 15 00 00 00 00    	callq  *0x0(%rip)        # 12 <try_place+0x12>
      12:	48 89 bd c8 fd ff ff 	mov    %rdi,-0x238(%rbp)
      19:	66 0f 7e c0          	movd   %xmm0,%eax
      1d:	48 89 95 b0 fd ff ff 	mov    %rdx,-0x250(%rbp)
      24:	48 89 8d a8 fd ff ff 	mov    %rcx,-0x258(%rbp)
      2b:	48 89 b5 b8 fd ff ff 	mov    %rsi,-0x248(%rbp)
      32:	89 85 c0 fd ff ff    	mov    %eax,-0x240(%rbp)
      38:	8b 05 00 00 00 00    	mov    0x0(%rip),%eax        # 3e <try_place+0x3e>
      3e:	48 98                	cltq   
      40:	48 c1 e0 02          	shl    $0x2,%rax
      44:	48 89 c7             	mov    %rax,%rdi
      47:	e8 00 00 00 00       	callq  4c <try_place+0x4c>
      4c:	48 89 85 70 ff ff ff 	mov    %rax,-0x90(%rbp)
      53:	48 c7 85 78 ff ff ff 	movq   $0x0,-0x88(%rbp)
      5a:	00 00 00 00 
      5e:	8b 45 10             	mov    0x10(%rbp),%eax
      61:	83 f8 01             	cmp    $0x1,%eax
      64:	74 13                	je     79 <try_place+0x79>
      66:	8b 45 10             	mov    0x10(%rbp),%eax
      69:	83 f8 02             	cmp    $0x2,%eax
      6c:	74 0b                	je     79 <try_place+0x79>
      6e:	8b 45 44             	mov    0x44(%rbp),%eax
      71:	85 c0                	test   %eax,%eax
      73:	0f 84 e9 00 00 00    	je     162 <try_place+0x162>
      79:	48 8d 8d d8 fd ff ff 	lea    -0x228(%rbp),%rcx
      80:	48 8d 95 d0 fd ff ff 	lea    -0x230(%rbp),%rdx
      87:	48 8b b5 b8 fd ff ff 	mov    -0x248(%rbp),%rsi
      8e:	44 8b 85 c0 fd ff ff 	mov    -0x240(%rbp),%r8d
      95:	48 8b bd c8 fd ff ff 	mov    -0x238(%rbp),%rdi
      9c:	48 83 ec 08          	sub    $0x8,%rsp
      a0:	48 8b 85 b0 fd ff ff 	mov    -0x250(%rbp),%rax
      a7:	ff 70 10             	pushq  0x10(%rax)
      aa:	ff 70 08             	pushq  0x8(%rax)
      ad:	ff 30                	pushq  (%rax)
      af:	ff b5 f8 00 00 00    	pushq  0xf8(%rbp)
      b5:	ff b5 f0 00 00 00    	pushq  0xf0(%rbp)
      bb:	ff b5 e8 00 00 00    	pushq  0xe8(%rbp)
      c1:	ff b5 e0 00 00 00    	pushq  0xe0(%rbp)
      c7:	ff b5 d8 00 00 00    	pushq  0xd8(%rbp)
      cd:	ff b5 d0 00 00 00    	pushq  0xd0(%rbp)
      d3:	ff b5 c8 00 00 00    	pushq  0xc8(%rbp)
      d9:	ff b5 c0 00 00 00    	pushq  0xc0(%rbp)
      df:	ff b5 b8 00 00 00    	pushq  0xb8(%rbp)
      e5:	ff b5 b0 00 00 00    	pushq  0xb0(%rbp)
      eb:	ff b5 a8 00 00 00    	pushq  0xa8(%rbp)
      f1:	ff b5 a0 00 00 00    	pushq  0xa0(%rbp)
      f7:	48 83 ec 30          	sub    $0x30,%rsp
      fb:	48 89 e0             	mov    %rsp,%rax
      fe:	4c 8b 4d 70          	mov    0x70(%rbp),%r9
     102:	4c 89 08             	mov    %r9,(%rax)
     105:	4c 8b 4d 78          	mov    0x78(%rbp),%r9
     109:	4c 89 48 08          	mov    %r9,0x8(%rax)
     10d:	4c 8b 8d 80 00 00 00 	mov    0x80(%rbp),%r9
     114:	4c 89 48 10          	mov    %r9,0x10(%rax)
     118:	4c 8b 8d 88 00 00 00 	mov    0x88(%rbp),%r9
     11f:	4c 89 48 18          	mov    %r9,0x18(%rax)
     123:	4c 8b 8d 90 00 00 00 	mov    0x90(%rbp),%r9
     12a:	4c 89 48 20          	mov    %r9,0x20(%rax)
     12e:	44 8b 8d 98 00 00 00 	mov    0x98(%rbp),%r9d
     135:	44 89 48 28          	mov    %r9d,0x28(%rax)
     139:	44 89 85 a0 fd ff ff 	mov    %r8d,-0x260(%rbp)
     140:	f3 0f 10 85 a0 fd ff 	movss  -0x260(%rbp),%xmm0
     147:	ff 
     148:	e8 00 00 00 00       	callq  14d <try_place+0x14d>
     14d:	48 81 c4 b0 00 00 00 	add    $0xb0,%rsp
     154:	48 8b 85 d0 fd ff ff 	mov    -0x230(%rbp),%rax
     15b:	48 89 85 78 ff ff ff 	mov    %rax,-0x88(%rbp)
     162:	8b 45 24             	mov    0x24(%rbp),%eax
     165:	89 85 6c ff ff ff    	mov    %eax,-0x94(%rbp)
     16b:	8b 45 28             	mov    0x28(%rbp),%eax
     16e:	85 c0                	test   %eax,%eax
     170:	75 09                	jne    17b <try_place+0x17b>
     172:	c7 45 9c 00 00 00 00 	movl   $0x0,-0x64(%rbp)
     179:	eb 07                	jmp    182 <try_place+0x182>
     17b:	c7 45 9c 01 00 00 00 	movl   $0x1,-0x64(%rbp)
     182:	8b 95 6c ff ff ff    	mov    -0x94(%rbp),%edx
     188:	48 83 ec 30          	sub    $0x30,%rsp
     18c:	48 89 e0             	mov    %rsp,%rax
     18f:	48 8b 4d 70          	mov    0x70(%rbp),%rcx
     193:	48 89 08             	mov    %rcx,(%rax)
     196:	48 8b 4d 78          	mov    0x78(%rbp),%rcx
     19a:	48 89 48 08          	mov    %rcx,0x8(%rax)
     19e:	48 8b 8d 80 00 00 00 	mov    0x80(%rbp),%rcx
     1a5:	48 89 48 10          	mov    %rcx,0x10(%rax)
     1a9:	48 8b 8d 88 00 00 00 	mov    0x88(%rbp),%rcx
     1b0:	48 89 48 18          	mov    %rcx,0x18(%rax)
     1b4:	48 8b 8d 90 00 00 00 	mov    0x90(%rbp),%rcx
     1bb:	48 89 48 20          	mov    %rcx,0x20(%rax)
     1bf:	8b 8d 98 00 00 00    	mov    0x98(%rbp),%ecx
     1c5:	89 48 28             	mov    %ecx,0x28(%rax)
     1c8:	89 d7                	mov    %edx,%edi
     1ca:	e8 00 00 00 00       	callq  1cf <try_place+0x1cf>
     1cf:	48 83 c4 30          	add    $0x30,%rsp
     1d3:	8b 75 20             	mov    0x20(%rbp),%esi
     1d6:	8b 45 3c             	mov    0x3c(%rbp),%eax
     1d9:	8b 55 1c             	mov    0x1c(%rbp),%edx
     1dc:	89 d7                	mov    %edx,%edi
     1de:	48 8d 8d 18 ff ff ff 	lea    -0xe8(%rbp),%rcx
     1e5:	48 8d 95 20 ff ff ff 	lea    -0xe0(%rbp),%rdx
     1ec:	48 83 ec 08          	sub    $0x8,%rsp
     1f0:	ff 75 50             	pushq  0x50(%rbp)
     1f3:	ff 75 48             	pushq  0x48(%rbp)
     1f6:	ff 75 40             	pushq  0x40(%rbp)
     1f9:	ff 75 38             	pushq  0x38(%rbp)
     1fc:	ff 75 30             	pushq  0x30(%rbp)
     1ff:	ff 75 28             	pushq  0x28(%rbp)
     202:	ff 75 20             	pushq  0x20(%rbp)
     205:	ff 75 18             	pushq  0x18(%rbp)
     208:	ff 75 10             	pushq  0x10(%rbp)
     20b:	89 b5 a0 fd ff ff    	mov    %esi,-0x260(%rbp)
     211:	f3 0f 10 85 a0 fd ff 	movss  -0x260(%rbp),%xmm0
     218:	ff 
     219:	89 c6                	mov    %eax,%esi
     21b:	e8 49 5c 00 00       	callq  5e69 <alloc_and_load_placement_structs>
     220:	48 83 c4 50          	add    $0x50,%rsp
     224:	48 8b 55 30          	mov    0x30(%rbp),%rdx
     228:	8b 45 28             	mov    0x28(%rbp),%eax
     22b:	48 89 d6             	mov    %rdx,%rsi
     22e:	89 c7                	mov    %eax,%edi
     230:	e8 f5 7e 00 00       	callq  812a <initial_placement>
     235:	66 0f ef c0          	pxor   %xmm0,%xmm0
     239:	f3 0f 2a 85 6c ff ff 	cvtsi2ssl -0x94(%rbp),%xmm0
     240:	ff 
     241:	e8 00 00 00 00       	callq  246 <try_place+0x246>
     246:	8b 45 10             	mov    0x10(%rbp),%eax
     249:	83 f8 01             	cmp    $0x1,%eax
     24c:	74 0c                	je     25a <try_place+0x25a>
     24e:	8b 45 10             	mov    0x10(%rbp),%eax
     251:	83 f8 02             	cmp    $0x2,%eax
     254:	0f 85 22 02 00 00    	jne    47c <try_place+0x47c>
     25a:	8b 45 3c             	mov    0x3c(%rbp),%eax
     25d:	8b 55 1c             	mov    0x1c(%rbp),%edx
     260:	89 d1                	mov    %edx,%ecx
     262:	89 c2                	mov    %eax,%edx
     264:	89 ce                	mov    %ecx,%esi
     266:	bf 00 00 00 00       	mov    $0x0,%edi
     26b:	e8 40 4e 00 00       	callq  50b0 <comp_bb_cost>
     270:	66 0f 7e c0          	movd   %xmm0,%eax
     274:	89 85 34 ff ff ff    	mov    %eax,-0xcc(%rbp)
     27a:	f3 0f 10 45 4c       	movss  0x4c(%rbp),%xmm0
     27f:	f3 0f 11 45 80       	movss  %xmm0,-0x80(%rbp)
     284:	e8 96 18 00 00       	callq  1b1f <compute_net_pin_index_values>
     289:	e8 13 18 00 00       	callq  1aa1 <count_connections>
     28e:	89 45 98             	mov    %eax,-0x68(%rbp)
     291:	8b 45 98             	mov    -0x68(%rbp),%eax
     294:	89 c6                	mov    %eax,%esi
     296:	48 8d 3d 00 00 00 00 	lea    0x0(%rip),%rdi        # 29d <try_place+0x29d>
     29d:	b8 00 00 00 00       	mov    $0x0,%eax
     2a2:	e8 00 00 00 00       	callq  2a7 <try_place+0x2a7>
     2a7:	8b 45 10             	mov    0x10(%rbp),%eax
     2aa:	83 f8 01             	cmp    $0x1,%eax
     2ad:	0f 85 cf 00 00 00    	jne    382 <try_place+0x382>
     2b3:	c7 45 94 00 00 00 00 	movl   $0x0,-0x6c(%rbp)
     2ba:	eb 63                	jmp    31f <try_place+0x31f>
     2bc:	c7 45 90 01 00 00 00 	movl   $0x1,-0x70(%rbp)
     2c3:	eb 30                	jmp    2f5 <try_place+0x2f5>
     2c5:	48 8b 05 00 00 00 00 	mov    0x0(%rip),%rax        # 2cc <try_place+0x2cc>
     2cc:	8b 55 94             	mov    -0x6c(%rbp),%edx
     2cf:	48 63 d2             	movslq %edx,%rdx
     2d2:	48 c1 e2 03          	shl    $0x3,%rdx
     2d6:	48 01 d0             	add    %rdx,%rax
     2d9:	48 8b 00             	mov    (%rax),%rax
     2dc:	8b 55 90             	mov    -0x70(%rbp),%edx
     2df:	48 63 d2             	movslq %edx,%rdx
     2e2:	48 c1 e2 02          	shl    $0x2,%rdx
     2e6:	48 01 d0             	add    %rdx,%rax
     2e9:	66 0f ef c0          	pxor   %xmm0,%xmm0
     2ed:	f3 0f 11 00          	movss  %xmm0,(%rax)
     2f1:	83 45 90 01          	addl   $0x1,-0x70(%rbp)
     2f5:	48 8b 0d 00 00 00 00 	mov    0x0(%rip),%rcx        # 2fc <try_place+0x2fc>
     2fc:	8b 45 94             	mov    -0x6c(%rbp),%eax
     2ff:	48 63 d0             	movslq %eax,%rdx
     302:	48 89 d0             	mov    %rdx,%rax
     305:	48 c1 e0 02          	shl    $0x2,%rax
     309:	48 01 d0             	add    %rdx,%rax
     30c:	48 c1 e0 03          	shl    $0x3,%rax
     310:	48 01 c8             	add    %rcx,%rax
     313:	8b 40 08             	mov    0x8(%rax),%eax
     316:	3b 45 90             	cmp    -0x70(%rbp),%eax
     319:	7d aa                	jge    2c5 <try_place+0x2c5>
     31b:	83 45 94 01          	addl   $0x1,-0x6c(%rbp)
     31f:	8b 05 00 00 00 00    	mov    0x0(%rip),%eax        # 325 <try_place+0x325>
     325:	39 45 94             	cmp    %eax,-0x6c(%rbp)
     328:	7c 92                	jl     2bc <try_place+0x2bc>
     32a:	48 8d 95 2c ff ff ff 	lea    -0xd4(%rbp),%rdx
     331:	48 8d 85 38 ff ff ff 	lea    -0xc8(%rbp),%rax
     338:	48 89 d6             	mov    %rdx,%rsi
     33b:	48 89 c7             	mov    %rax,%rdi
     33e:	e8 86 4b 00 00       	callq  4ec9 <comp_td_costs>
     343:	f3 0f 10 8d 2c ff ff 	movss  -0xd4(%rbp),%xmm1
     34a:	ff 
     34b:	66 0f ef c0          	pxor   %xmm0,%xmm0
     34f:	f3 0f 2a 45 98       	cvtsi2ssl -0x68(%rbp),%xmm0
     354:	f3 0f 5e c8          	divss  %xmm0,%xmm1
     358:	0f 28 c1             	movaps %xmm1,%xmm0
     35b:	f3 0f 11 45 d4       	movss  %xmm0,-0x2c(%rbp)
     360:	48 8b 85 d0 fd ff ff 	mov    -0x230(%rbp),%rax
     367:	8b 55 d4             	mov    -0x2c(%rbp),%edx
     36a:	89 95 a0 fd ff ff    	mov    %edx,-0x260(%rbp)
     370:	f3 0f 10 85 a0 fd ff 	movss  -0x260(%rbp),%xmm0
     377:	ff 
     378:	48 89 c7             	mov    %rax,%rdi
     37b:	e8 00 00 00 00       	callq  380 <try_place+0x380>
     380:	eb 09                	jmp    38b <try_place+0x38b>
     382:	66 0f ef c0          	pxor   %xmm0,%xmm0
     386:	f3 0f 11 45 d4       	movss  %xmm0,-0x2c(%rbp)
     38b:	8b 45 10             	mov    0x10(%rbp),%eax
     38e:	83 f8 02             	cmp    $0x2,%eax
     391:	75 0e                	jne    3a1 <try_place+0x3a1>
     393:	48 8b 05 00 00 00 00 	mov    0x0(%rip),%rax        # 39a <try_place+0x39a>
     39a:	48 89 85 d0 fd ff ff 	mov    %rax,-0x230(%rbp)
     3a1:	48 8b 85 d0 fd ff ff 	mov    -0x230(%rbp),%rax
     3a8:	48 89 c7             	mov    %rax,%rdi
     3ab:	e8 00 00 00 00       	callq  3b0 <try_place+0x3b0>
     3b0:	48 8b 85 d8 fd ff ff 	mov    -0x228(%rbp),%rax
     3b7:	66 0f ef c0          	pxor   %xmm0,%xmm0
     3bb:	48 89 c7             	mov    %rax,%rdi
     3be:	e8 00 00 00 00       	callq  3c3 <try_place+0x3c3>
     3c3:	66 0f 7e c0          	movd   %xmm0,%eax
     3c7:	89 45 d8             	mov    %eax,-0x28(%rbp)
     3ca:	48 8b 85 d8 fd ff ff 	mov    -0x228(%rbp),%rax
     3d1:	f3 0f 10 45 80       	movss  -0x80(%rbp),%xmm0
     3d6:	8b 55 d8             	mov    -0x28(%rbp),%edx
     3d9:	48 83 ec 08          	sub    $0x8,%rsp
     3dd:	ff 75 50             	pushq  0x50(%rbp)
     3e0:	ff 75 48             	pushq  0x48(%rbp)
     3e3:	ff 75 40             	pushq  0x40(%rbp)
     3e6:	ff 75 38             	pushq  0x38(%rbp)
     3e9:	ff 75 30             	pushq  0x30(%rbp)
     3ec:	ff 75 28             	pushq  0x28(%rbp)
     3ef:	ff 75 20             	pushq  0x20(%rbp)
     3f2:	ff 75 18             	pushq  0x18(%rbp)
     3f5:	ff 75 10             	pushq  0x10(%rbp)
     3f8:	0f 28 c8             	movaps %xmm0,%xmm1
     3fb:	89 95 a0 fd ff ff    	mov    %edx,-0x260(%rbp)
     401:	f3 0f 10 85 a0 fd ff 	movss  -0x260(%rbp),%xmm0
     408:	ff 
     409:	48 89 c7             	mov    %rax,%rdi
     40c:	e8 00 00 00 00       	callq  411 <try_place+0x411>
     411:	48 83 c4 50          	add    $0x50,%rsp
     415:	c7 45 8c 01 00 00 00 	movl   $0x1,-0x74(%rbp)
     41c:	48 8d 95 2c ff ff ff 	lea    -0xd4(%rbp),%rdx
     423:	48 8d 85 38 ff ff ff 	lea    -0xc8(%rbp),%rax
     42a:	48 89 d6             	mov    %rdx,%rsi
     42d:	48 89 c7             	mov    %rax,%rdi
     430:	e8 94 4a 00 00       	callq  4ec9 <comp_td_costs>
     435:	f3 0f 10 8d 38 ff ff 	movss  -0xc8(%rbp),%xmm1
     43c:	ff 
     43d:	f3 0f 10 05 00 00 00 	movss  0x0(%rip),%xmm0        # 445 <try_place+0x445>
     444:	00 
     445:	f3 0f 5e c1          	divss  %xmm1,%xmm0
     449:	f3 0f 11 45 cc       	movss  %xmm0,-0x34(%rbp)
     44e:	f3 0f 10 8d 34 ff ff 	movss  -0xcc(%rbp),%xmm1
     455:	ff 
     456:	f3 0f 10 05 00 00 00 	movss  0x0(%rip),%xmm0        # 45e <try_place+0x45e>
     45d:	00 
     45e:	f3 0f 5e c1          	divss  %xmm1,%xmm0
     462:	f3 0f 11 45 d0       	movss  %xmm0,-0x30(%rbp)
     467:	f3 0f 10 05 00 00 00 	movss  0x0(%rip),%xmm0        # 46f <try_place+0x46f>
     46e:	00 
     46f:	f3 0f 11 85 3c ff ff 	movss  %xmm0,-0xc4(%rbp)
     476:	ff 
     477:	e9 83 00 00 00       	jmpq   4ff <try_place+0x4ff>
     47c:	8b 45 3c             	mov    0x3c(%rbp),%eax
     47f:	8b 55 1c             	mov    0x1c(%rbp),%edx
     482:	89 d1                	mov    %edx,%ecx
     484:	89 c2                	mov    %eax,%edx
     486:	89 ce                	mov    %ecx,%esi
     488:	bf 00 00 00 00       	mov    $0x0,%edi
     48d:	e8 1e 4c 00 00       	callq  50b0 <comp_bb_cost>
     492:	66 0f 7e c0          	movd   %xmm0,%eax
     496:	89 85 34 ff ff ff    	mov    %eax,-0xcc(%rbp)
     49c:	f3 0f 10 85 34 ff ff 	movss  -0xcc(%rbp),%xmm0
     4a3:	ff 
     4a4:	f3 0f 11 85 3c ff ff 	movss  %xmm0,-0xc4(%rbp)
     4ab:	ff 
     4ac:	66 0f ef c0          	pxor   %xmm0,%xmm0
     4b0:	f3 0f 11 85 38 ff ff 	movss  %xmm0,-0xc8(%rbp)
     4b7:	ff 
     4b8:	66 0f ef c0          	pxor   %xmm0,%xmm0
     4bc:	f3 0f 11 85 2c ff ff 	movss  %xmm0,-0xd4(%rbp)
     4c3:	ff 
     4c4:	66 0f ef c0          	pxor   %xmm0,%xmm0
     4c8:	f3 0f 11 45 d4       	movss  %xmm0,-0x2c(%rbp)
     4cd:	c7 45 8c 00 00 00 00 	movl   $0x0,-0x74(%rbp)
     4d4:	c7 45 98 00 00 00 00 	movl   $0x0,-0x68(%rbp)
     4db:	66 0f ef c0          	pxor   %xmm0,%xmm0
     4df:	f3 0f 11 45 d8       	movss  %xmm0,-0x28(%rbp)
     4e4:	66 0f ef c0          	pxor   %xmm0,%xmm0
     4e8:	f3 0f 11 45 80       	movss  %xmm0,-0x80(%rbp)
     4ed:	66 0f ef c0          	pxor   %xmm0,%xmm0
     4f1:	f3 0f 11 45 cc       	movss  %xmm0,-0x34(%rbp)
     4f6:	66 0f ef c0          	pxor   %xmm0,%xmm0
     4fa:	f3 0f 11 45 d0       	movss  %xmm0,-0x30(%rbp)
     4ff:	f3 0f 10 45 5c       	movss  0x5c(%rbp),%xmm0
     504:	f3 0f 5a f0          	cvtss2sd %xmm0,%xmm6
     508:	f2 0f 11 b5 a0 fd ff 	movsd  %xmm6,-0x260(%rbp)
     50f:	ff 
     510:	8b 05 00 00 00 00    	mov    0x0(%rip),%eax        # 516 <try_place+0x516>
     516:	66 0f ef c0          	pxor   %xmm0,%xmm0
     51a:	f2 0f 2a c0          	cvtsi2sd %eax,%xmm0
     51e:	f2 0f 10 0d 00 00 00 	movsd  0x0(%rip),%xmm1        # 526 <try_place+0x526>
     525:	00 
     526:	e8 00 00 00 00       	callq  52b <try_place+0x52b>
     52b:	f2 0f 59 85 a0 fd ff 	mulsd  -0x260(%rbp),%xmm0
     532:	ff 
     533:	f2 0f 2c c0          	cvttsd2si %xmm0,%eax
     537:	89 45 e0             	mov    %eax,-0x20(%rbp)
     53a:	8b 45 48             	mov    0x48(%rbp),%eax
     53d:	85 c0                	test   %eax,%eax
     53f:	74 31                	je     572 <try_place+0x572>
     541:	66 0f ef c0          	pxor   %xmm0,%xmm0
     545:	f3 0f 2a 45 e0       	cvtsi2ssl -0x20(%rbp),%xmm0
     54a:	8b 45 48             	mov    0x48(%rbp),%eax
     54d:	66 0f ef c9          	pxor   %xmm1,%xmm1
     551:	f3 0f 2a c8          	cvtsi2ss %eax,%xmm1
     555:	f3 0f 5e c1          	divss  %xmm1,%xmm0
     559:	f3 0f 5a c0          	cvtss2sd %xmm0,%xmm0
     55d:	f2 0f 10 0d 00 00 00 	movsd  0x0(%rip),%xmm1        # 565 <try_place+0x565>
     564:	00 
     565:	f2 0f 58 c1          	addsd  %xmm1,%xmm0
     569:	f2 0f 2c c0          	cvttsd2si %xmm0,%eax
     56d:	89 45 84             	mov    %eax,-0x7c(%rbp)
     570:	eb 09                	jmp    57b <try_place+0x57b>
     572:	8b 45 e0             	mov    -0x20(%rbp),%eax
     575:	83 c0 01             	add    $0x1,%eax
     578:	89 45 84             	mov    %eax,-0x7c(%rbp)
     57b:	83 7d e0 00          	cmpl   $0x0,-0x20(%rbp)
     57f:	7f 07                	jg     588 <try_place+0x588>
     581:	c7 45 e0 01 00 00 00 	movl   $0x1,-0x20(%rbp)
     588:	8b 15 00 00 00 00    	mov    0x0(%rip),%edx        # 58e <try_place+0x58e>
     58e:	8b 05 00 00 00 00    	mov    0x0(%rip),%eax        # 594 <try_place+0x594>
     594:	39 c2                	cmp    %eax,%edx
     596:	7e 10                	jle    5a8 <try_place+0x5a8>
     598:	8b 05 00 00 00 00    	mov    0x0(%rip),%eax        # 59e <try_place+0x59e>
     59e:	66 0f ef c0          	pxor   %xmm0,%xmm0
     5a2:	f3 0f 2a c0          	cvtsi2ss %eax,%xmm0
     5a6:	eb 0e                	jmp    5b6 <try_place+0x5b6>
     5a8:	8b 05 00 00 00 00    	mov    0x0(%rip),%eax        # 5ae <try_place+0x5ae>
     5ae:	66 0f ef c0          	pxor   %xmm0,%xmm0
     5b2:	f3 0f 2a c0          	cvtsi2ss %eax,%xmm0
     5b6:	f3 0f 11 85 40 ff ff 	movss  %xmm0,-0xc0(%rbp)
     5bd:	ff 
     5be:	f3 0f 10 85 40 ff ff 	movss  -0xc0(%rbp),%xmm0
     5c5:	ff 
     5c6:	f3 0f 11 85 68 ff ff 	movss  %xmm0,-0x98(%rbp)
     5cd:	ff 
     5ce:	f3 0f 10 05 00 00 00 	movss  0x0(%rip),%xmm0        # 5d6 <try_place+0x5d6>
     5d5:	00 
     5d6:	f3 0f 11 85 64 ff ff 	movss  %xmm0,-0x9c(%rbp)
     5dd:	ff 
     5de:	f3 0f 10 85 68 ff ff 	movss  -0x98(%rbp),%xmm0
     5e5:	ff 
     5e6:	f3 0f 5c 85 64 ff ff 	subss  -0x9c(%rbp),%xmm0
     5ed:	ff 
     5ee:	f3 0f 10 0d 00 00 00 	movss  0x0(%rip),%xmm1        # 5f6 <try_place+0x5f6>
     5f5:	00 
     5f6:	f3 0f 5e c8          	divss  %xmm0,%xmm1
     5fa:	0f 28 c1             	movaps %xmm1,%xmm0
     5fd:	f3 0f 11 85 60 ff ff 	movss  %xmm0,-0xa0(%rbp)
     604:	ff 
     605:	f3 0f 10 45 14       	movss  0x14(%rbp),%xmm0
     60a:	8b 45 10             	mov    0x10(%rbp),%eax
     60d:	8b 8d 40 ff ff ff    	mov    -0xc0(%rbp),%ecx
     613:	44 8b 45 3c          	mov    0x3c(%rbp),%r8d
     617:	4c 8b 9d 18 ff ff ff 	mov    -0xe8(%rbp),%r11
     61e:	4c 8b 95 20 ff ff ff 	mov    -0xe0(%rbp),%r10
     625:	8b 55 1c             	mov    0x1c(%rbp),%edx
     628:	89 d3                	mov    %edx,%ebx
     62a:	f3 0f 10 55 cc       	movss  -0x34(%rbp),%xmm2
     62f:	f3 0f 10 4d d0       	movss  -0x30(%rbp),%xmm1
     634:	48 8d 95 38 ff ff ff 	lea    -0xc8(%rbp),%rdx
     63b:	48 8d b5 34 ff ff ff 	lea    -0xcc(%rbp),%rsi
     642:	48 8d bd 3c ff ff ff 	lea    -0xc4(%rbp),%rdi
     649:	4c 8d 8d 2c ff ff ff 	lea    -0xd4(%rbp),%r9
     650:	41 51                	push   %r9
     652:	50                   	push   %rax
     653:	8b 45 e0             	mov    -0x20(%rbp),%eax
     656:	50                   	push   %rax
     657:	48 83 ec 18          	sub    $0x18,%rsp
     65b:	48 89 e0             	mov    %rsp,%rax
     65e:	4c 8b 4d 58          	mov    0x58(%rbp),%r9
     662:	4c 89 08             	mov    %r9,(%rax)
     665:	4c 8b 4d 60          	mov    0x60(%rbp),%r9
     669:	4c 89 48 08          	mov    %r9,0x8(%rax)
     66d:	44 8b 4d 68          	mov    0x68(%rbp),%r9d
     671:	44 89 48 10          	mov    %r9d,0x10(%rax)
     675:	8b 45 9c             	mov    -0x64(%rbp),%eax
     678:	50                   	push   %rax
     679:	41 50                	push   %r8
     67b:	0f 28 da             	movaps %xmm2,%xmm3
     67e:	0f 28 d1             	movaps %xmm1,%xmm2
     681:	0f 28 c8             	movaps %xmm0,%xmm1
     684:	89 8d a0 fd ff ff    	mov    %ecx,-0x260(%rbp)
     68a:	f3 0f 10 85 a0 fd ff 	movss  -0x260(%rbp),%xmm0
     691:	ff 
     692:	4d 89 d9             	mov    %r11,%r9
     695:	4d 89 d0             	mov    %r10,%r8
     698:	89 d9                	mov    %ebx,%ecx
     69a:	e8 09 19 00 00       	callq  1fa8 <starting_t>
     69f:	48 83 c4 40          	add    $0x40,%rsp
     6a3:	66 0f 7e c0          	movd   %xmm0,%eax
     6a7:	89 85 44 ff ff ff    	mov    %eax,-0xbc(%rbp)
     6ad:	c7 45 ec 00 00 00 00 	movl   $0x0,-0x14(%rbp)
     6b4:	c7 45 dc 00 00 00 00 	movl   $0x0,-0x24(%rbp)
     6bb:	f3 0f 10 85 2c ff ff 	movss  -0xd4(%rbp),%xmm0
     6c2:	ff 
     6c3:	f3 0f 5a d8          	cvtss2sd %xmm0,%xmm3
     6c7:	f3 0f 10 85 38 ff ff 	movss  -0xc8(%rbp),%xmm0
     6ce:	ff 
     6cf:	f3 0f 5a d0          	cvtss2sd %xmm0,%xmm2
     6d3:	f3 0f 10 85 34 ff ff 	movss  -0xcc(%rbp),%xmm0
     6da:	ff 
     6db:	f3 0f 5a c8          	cvtss2sd %xmm0,%xmm1
     6df:	f3 0f 10 85 3c ff ff 	movss  -0xc4(%rbp),%xmm0
     6e6:	ff 
     6e7:	f3 0f 5a c0          	cvtss2sd %xmm0,%xmm0
     6eb:	48 8d 3d 00 00 00 00 	lea    0x0(%rip),%rdi        # 6f2 <try_place+0x6f2>
     6f2:	b8 04 00 00 00       	mov    $0x4,%eax
     6f7:	e8 00 00 00 00       	callq  6fc <try_place+0x6fc>
     6fc:	48 8d 05 00 00 00 00 	lea    0x0(%rip),%rax        # 703 <try_place+0x703>
     703:	50                   	push   %rax
     704:	48 8d 05 00 00 00 00 	lea    0x0(%rip),%rax        # 70b <try_place+0x70b>
     70b:	50                   	push   %rax
     70c:	48 8d 05 00 00 00 00 	lea    0x0(%rip),%rax        # 713 <try_place+0x713>
     713:	50                   	push   %rax
     714:	48 8d 05 00 00 00 00 	lea    0x0(%rip),%rax        # 71b <try_place+0x71b>
     71b:	50                   	push   %rax
     71c:	48 8d 05 00 00 00 00 	lea    0x0(%rip),%rax        # 723 <try_place+0x723>
     723:	50                   	push   %rax
     724:	48 8d 05 00 00 00 00 	lea    0x0(%rip),%rax        # 72b <try_place+0x72b>
     72b:	50                   	push   %rax
     72c:	48 8d 05 00 00 00 00 	lea    0x0(%rip),%rax        # 733 <try_place+0x733>
     733:	50                   	push   %rax
     734:	48 8d 05 00 00 00 00 	lea    0x0(%rip),%rax        # 73b <try_place+0x73b>
     73b:	50                   	push   %rax
     73c:	4c 8d 0d 00 00 00 00 	lea    0x0(%rip),%r9        # 743 <try_place+0x743>
     743:	4c 8d 05 00 00 00 00 	lea    0x0(%rip),%r8        # 74a <try_place+0x74a>
     74a:	48 8d 0d 00 00 00 00 	lea    0x0(%rip),%rcx        # 751 <try_place+0x751>
     751:	48 8d 15 00 00 00 00 	lea    0x0(%rip),%rdx        # 758 <try_place+0x758>
     758:	48 8d 35 00 00 00 00 	lea    0x0(%rip),%rsi        # 75f <try_place+0x75f>
     75f:	48 8d 3d 00 00 00 00 	lea    0x0(%rip),%rdi        # 766 <try_place+0x766>
     766:	b8 00 00 00 00       	mov    $0x0,%eax
     76b:	e8 00 00 00 00       	callq  770 <try_place+0x770>
     770:	48 83 c4 40          	add    $0x40,%rsp
     774:	48 8d 05 00 00 00 00 	lea    0x0(%rip),%rax        # 77b <try_place+0x77b>
     77b:	50                   	push   %rax
     77c:	48 8d 05 00 00 00 00 	lea    0x0(%rip),%rax        # 783 <try_place+0x783>
     783:	50                   	push   %rax
     784:	48 8d 05 00 00 00 00 	lea    0x0(%rip),%rax        # 78b <try_place+0x78b>
     78b:	50                   	push   %rax
     78c:	48 8d 05 00 00 00 00 	lea    0x0(%rip),%rax        # 793 <try_place+0x793>
     793:	50                   	push   %rax
     794:	48 8d 05 00 00 00 00 	lea    0x0(%rip),%rax        # 79b <try_place+0x79b>
     79b:	50                   	push   %rax
     79c:	48 8d 05 00 00 00 00 	lea    0x0(%rip),%rax        # 7a3 <try_place+0x7a3>
     7a3:	50                   	push   %rax
     7a4:	48 8d 05 00 00 00 00 	lea    0x0(%rip),%rax        # 7ab <try_place+0x7ab>
     7ab:	50                   	push   %rax
     7ac:	48 8d 05 00 00 00 00 	lea    0x0(%rip),%rax        # 7b3 <try_place+0x7b3>
     7b3:	50                   	push   %rax
     7b4:	4c 8d 0d 00 00 00 00 	lea    0x0(%rip),%r9        # 7bb <try_place+0x7bb>
     7bb:	4c 8d 05 00 00 00 00 	lea    0x0(%rip),%r8        # 7c2 <try_place+0x7c2>
     7c2:	48 8d 0d 00 00 00 00 	lea    0x0(%rip),%rcx        # 7c9 <try_place+0x7c9>
     7c9:	48 8d 15 00 00 00 00 	lea    0x0(%rip),%rdx        # 7d0 <try_place+0x7d0>
     7d0:	48 8d 35 00 00 00 00 	lea    0x0(%rip),%rsi        # 7d7 <try_place+0x7d7>
     7d7:	48 8d 3d 00 00 00 00 	lea    0x0(%rip),%rdi        # 7de <try_place+0x7de>
     7de:	b8 00 00 00 00       	mov    $0x0,%eax
     7e3:	e8 00 00 00 00       	callq  7e8 <try_place+0x7e8>
     7e8:	48 83 c4 40          	add    $0x40,%rsp
     7ec:	f3 0f 5a 65 d8       	cvtss2sd -0x28(%rbp),%xmm4
     7f1:	f3 0f 10 85 2c ff ff 	movss  -0xd4(%rbp),%xmm0
     7f8:	ff 
     7f9:	f3 0f 5a d8          	cvtss2sd %xmm0,%xmm3
     7fd:	f3 0f 10 85 38 ff ff 	movss  -0xc8(%rbp),%xmm0
     804:	ff 
     805:	f3 0f 5a d0          	cvtss2sd %xmm0,%xmm2
     809:	f3 0f 10 85 34 ff ff 	movss  -0xcc(%rbp),%xmm0
     810:	ff 
     811:	f3 0f 5a c8          	cvtss2sd %xmm0,%xmm1
     815:	f3 0f 10 85 3c ff ff 	movss  -0xc4(%rbp),%xmm0
     81c:	ff 
     81d:	f3 0f 5a c0          	cvtss2sd %xmm0,%xmm0
     821:	8b 95 6c ff ff ff    	mov    -0x94(%rbp),%edx
     827:	48 8d 85 e0 fd ff ff 	lea    -0x220(%rbp),%rax
     82e:	48 8d 35 00 00 00 00 	lea    0x0(%rip),%rsi        # 835 <try_place+0x835>
     835:	48 89 c7             	mov    %rax,%rdi
     838:	b8 05 00 00 00       	mov    $0x5,%eax
     83d:	e8 00 00 00 00       	callq  842 <try_place+0x842>
     842:	48 8d 85 e0 fd ff ff 	lea    -0x220(%rbp),%rax
     849:	b9 00 00 00 00       	mov    $0x0,%ecx
     84e:	ba 01 00 00 00       	mov    $0x1,%edx
     853:	48 89 c6             	mov    %rax,%rsi
     856:	bf 01 00 00 00       	mov    $0x1,%edi
     85b:	e8 00 00 00 00       	callq  860 <try_place+0x860>
     860:	e9 e8 08 00 00       	jmpq   114d <try_place+0x114d>
     865:	8b 45 10             	mov    0x10(%rbp),%eax
     868:	83 f8 01             	cmp    $0x1,%eax
     86b:	74 08                	je     875 <try_place+0x875>
     86d:	8b 45 10             	mov    0x10(%rbp),%eax
     870:	83 f8 02             	cmp    $0x2,%eax
     873:	75 10                	jne    885 <try_place+0x885>
     875:	f3 0f 10 05 00 00 00 	movss  0x0(%rip),%xmm0        # 87d <try_place+0x87d>
     87c:	00 
     87d:	f3 0f 11 85 3c ff ff 	movss  %xmm0,-0xc4(%rbp)
     884:	ff 
     885:	66 0f ef c0          	pxor   %xmm0,%xmm0
     889:	f2 0f 11 45 c0       	movsd  %xmm0,-0x40(%rbp)
     88e:	66 0f ef c0          	pxor   %xmm0,%xmm0
     892:	f2 0f 11 45 b8       	movsd  %xmm0,-0x48(%rbp)
     897:	66 0f ef c0          	pxor   %xmm0,%xmm0
     89b:	f2 0f 11 45 a8       	movsd  %xmm0,-0x58(%rbp)
     8a0:	66 0f ef c0          	pxor   %xmm0,%xmm0
     8a4:	f2 0f 11 45 b0       	movsd  %xmm0,-0x50(%rbp)
     8a9:	66 0f ef c0          	pxor   %xmm0,%xmm0
     8ad:	f2 0f 11 45 a0       	movsd  %xmm0,-0x60(%rbp)
     8b2:	c7 45 e4 00 00 00 00 	movl   $0x0,-0x1c(%rbp)
     8b9:	8b 45 10             	mov    0x10(%rbp),%eax
     8bc:	83 f8 01             	cmp    $0x1,%eax
     8bf:	74 0c                	je     8cd <try_place+0x8cd>
     8c1:	8b 45 10             	mov    0x10(%rbp),%eax
     8c4:	83 f8 02             	cmp    $0x2,%eax
     8c7:	0f 85 22 01 00 00    	jne    9ef <try_place+0x9ef>
     8cd:	8b 45 40             	mov    0x40(%rbp),%eax
     8d0:	3b 45 8c             	cmp    -0x74(%rbp),%eax
     8d3:	7e 0b                	jle    8e0 <try_place+0x8e0>
     8d5:	8b 45 48             	mov    0x48(%rbp),%eax
     8d8:	85 c0                	test   %eax,%eax
     8da:	0f 84 d9 00 00 00    	je     9b9 <try_place+0x9b9>
     8e0:	f3 0f 10 8d 2c ff ff 	movss  -0xd4(%rbp),%xmm1
     8e7:	ff 
     8e8:	66 0f ef c0          	pxor   %xmm0,%xmm0
     8ec:	f3 0f 2a 45 98       	cvtsi2ssl -0x68(%rbp),%xmm0
     8f1:	f3 0f 5e c8          	divss  %xmm0,%xmm1
     8f5:	0f 28 c1             	movaps %xmm1,%xmm0
     8f8:	f3 0f 11 45 d4       	movss  %xmm0,-0x2c(%rbp)
     8fd:	8b 45 10             	mov    0x10(%rbp),%eax
     900:	83 f8 01             	cmp    $0x1,%eax
     903:	75 20                	jne    925 <try_place+0x925>
     905:	48 8b 85 d0 fd ff ff 	mov    -0x230(%rbp),%rax
     90c:	8b 55 d4             	mov    -0x2c(%rbp),%edx
     90f:	89 95 a0 fd ff ff    	mov    %edx,-0x260(%rbp)
     915:	f3 0f 10 85 a0 fd ff 	movss  -0x260(%rbp),%xmm0
     91c:	ff 
     91d:	48 89 c7             	mov    %rax,%rdi
     920:	e8 00 00 00 00       	callq  925 <try_place+0x925>
     925:	48 8b 85 d0 fd ff ff 	mov    -0x230(%rbp),%rax
     92c:	48 89 c7             	mov    %rax,%rdi
     92f:	e8 00 00 00 00       	callq  934 <try_place+0x934>
     934:	48 8b 85 d8 fd ff ff 	mov    -0x228(%rbp),%rax
     93b:	66 0f ef c0          	pxor   %xmm0,%xmm0
     93f:	48 89 c7             	mov    %rax,%rdi
     942:	e8 00 00 00 00       	callq  947 <try_place+0x947>
     947:	66 0f 7e c0          	movd   %xmm0,%eax
     94b:	89 45 d8             	mov    %eax,-0x28(%rbp)
     94e:	48 8b 85 d8 fd ff ff 	mov    -0x228(%rbp),%rax
     955:	f3 0f 10 45 80       	movss  -0x80(%rbp),%xmm0
     95a:	8b 55 d8             	mov    -0x28(%rbp),%edx
     95d:	48 83 ec 08          	sub    $0x8,%rsp
     961:	ff 75 50             	pushq  0x50(%rbp)
     964:	ff 75 48             	pushq  0x48(%rbp)
     967:	ff 75 40             	pushq  0x40(%rbp)
     96a:	ff 75 38             	pushq  0x38(%rbp)
     96d:	ff 75 30             	pushq  0x30(%rbp)
     970:	ff 75 28             	pushq  0x28(%rbp)
     973:	ff 75 20             	pushq  0x20(%rbp)
     976:	ff 75 18             	pushq  0x18(%rbp)
     979:	ff 75 10             	pushq  0x10(%rbp)
     97c:	0f 28 c8             	movaps %xmm0,%xmm1
     97f:	89 95 a0 fd ff ff    	mov    %edx,-0x260(%rbp)
     985:	f3 0f 10 85 a0 fd ff 	movss  -0x260(%rbp),%xmm0
     98c:	ff 
     98d:	48 89 c7             	mov    %rax,%rdi
     990:	e8 00 00 00 00       	callq  995 <try_place+0x995>
     995:	48 83 c4 50          	add    $0x50,%rsp
     999:	48 8d 95 2c ff ff ff 	lea    -0xd4(%rbp),%rdx
     9a0:	48 8d 85 38 ff ff ff 	lea    -0xc8(%rbp),%rax
     9a7:	48 89 d6             	mov    %rdx,%rsi
     9aa:	48 89 c7             	mov    %rax,%rdi
     9ad:	e8 17 45 00 00       	callq  4ec9 <comp_td_costs>
     9b2:	c7 45 8c 00 00 00 00 	movl   $0x0,-0x74(%rbp)
     9b9:	83 45 8c 01          	addl   $0x1,-0x74(%rbp)
     9bd:	f3 0f 10 8d 34 ff ff 	movss  -0xcc(%rbp),%xmm1
     9c4:	ff 
     9c5:	f3 0f 10 05 00 00 00 	movss  0x0(%rip),%xmm0        # 9cd <try_place+0x9cd>
     9cc:	00 
     9cd:	f3 0f 5e c1          	divss  %xmm1,%xmm0
     9d1:	f3 0f 11 45 d0       	movss  %xmm0,-0x30(%rbp)
     9d6:	f3 0f 10 8d 38 ff ff 	movss  -0xc8(%rbp),%xmm1
     9dd:	ff 
     9de:	f3 0f 10 05 00 00 00 	movss  0x0(%rip),%xmm0        # 9e6 <try_place+0x9e6>
     9e5:	00 
     9e6:	f3 0f 5e c1          	divss  %xmm1,%xmm0
     9ea:	f3 0f 11 45 cc       	movss  %xmm0,-0x34(%rbp)
     9ef:	c7 45 88 01 00 00 00 	movl   $0x1,-0x78(%rbp)
     9f6:	c7 45 e8 00 00 00 00 	movl   $0x0,-0x18(%rbp)
     9fd:	e9 3e 02 00 00       	jmpq   c40 <try_place+0xc40>
     a02:	f3 0f 10 4d 14       	movss  0x14(%rbp),%xmm1
     a07:	44 8b 45 10          	mov    0x10(%rbp),%r8d
     a0b:	8b 4d 3c             	mov    0x3c(%rbp),%ecx
     a0e:	4c 8b 9d 18 ff ff ff 	mov    -0xe8(%rbp),%r11
     a15:	4c 8b 95 20 ff ff ff 	mov    -0xe0(%rbp),%r10
     a1c:	8b 45 1c             	mov    0x1c(%rbp),%eax
     a1f:	89 c3                	mov    %eax,%ebx
     a21:	f3 0f 10 85 40 ff ff 	movss  -0xc0(%rbp),%xmm0
     a28:	ff 
     a29:	8b 85 44 ff ff ff    	mov    -0xbc(%rbp),%eax
     a2f:	f3 0f 10 5d cc       	movss  -0x34(%rbp),%xmm3
     a34:	f3 0f 10 55 d0       	movss  -0x30(%rbp),%xmm2
     a39:	48 8d 95 38 ff ff ff 	lea    -0xc8(%rbp),%rdx
     a40:	48 8d b5 34 ff ff ff 	lea    -0xcc(%rbp),%rsi
     a47:	48 8d bd 3c ff ff ff 	lea    -0xc4(%rbp),%rdi
     a4e:	48 83 ec 08          	sub    $0x8,%rsp
     a52:	ff b5 70 ff ff ff    	pushq  -0x90(%rbp)
     a58:	4c 8d 8d 2c ff ff ff 	lea    -0xd4(%rbp),%r9
     a5f:	41 51                	push   %r9
     a61:	41 50                	push   %r8
     a63:	44 8b 45 9c          	mov    -0x64(%rbp),%r8d
     a67:	41 50                	push   %r8
     a69:	51                   	push   %rcx
     a6a:	0f 28 e3             	movaps %xmm3,%xmm4
     a6d:	0f 28 da             	movaps %xmm2,%xmm3
     a70:	0f 28 d1             	movaps %xmm1,%xmm2
     a73:	4d 89 d9             	mov    %r11,%r9
     a76:	4d 89 d0             	mov    %r10,%r8
     a79:	89 d9                	mov    %ebx,%ecx
     a7b:	0f 28 c8             	movaps %xmm0,%xmm1
     a7e:	89 85 a0 fd ff ff    	mov    %eax,-0x260(%rbp)
     a84:	f3 0f 10 85 a0 fd ff 	movss  -0x260(%rbp),%xmm0
     a8b:	ff 
     a8c:	e8 02 17 00 00       	callq  2193 <try_swap>
     a91:	48 83 c4 30          	add    $0x30,%rsp
     a95:	83 f8 01             	cmp    $0x1,%eax
     a98:	0f 85 92 00 00 00    	jne    b30 <try_place+0xb30>
     a9e:	83 45 e4 01          	addl   $0x1,-0x1c(%rbp)
     aa2:	f3 0f 10 85 3c ff ff 	movss  -0xc4(%rbp),%xmm0
     aa9:	ff 
     aaa:	f3 0f 5a c0          	cvtss2sd %xmm0,%xmm0
     aae:	f2 0f 10 4d c0       	movsd  -0x40(%rbp),%xmm1
     ab3:	f2 0f 58 c1          	addsd  %xmm1,%xmm0
     ab7:	f2 0f 11 45 c0       	movsd  %xmm0,-0x40(%rbp)
     abc:	f3 0f 10 85 34 ff ff 	movss  -0xcc(%rbp),%xmm0
     ac3:	ff 
     ac4:	f3 0f 5a c0          	cvtss2sd %xmm0,%xmm0
     ac8:	f2 0f 10 4d b8       	movsd  -0x48(%rbp),%xmm1
     acd:	f2 0f 58 c1          	addsd  %xmm1,%xmm0
     ad1:	f2 0f 11 45 b8       	movsd  %xmm0,-0x48(%rbp)
     ad6:	f3 0f 10 85 38 ff ff 	movss  -0xc8(%rbp),%xmm0
     add:	ff 
     ade:	f3 0f 5a c0          	cvtss2sd %xmm0,%xmm0
     ae2:	f2 0f 10 4d b0       	movsd  -0x50(%rbp),%xmm1
     ae7:	f2 0f 58 c1          	addsd  %xmm1,%xmm0
     aeb:	f2 0f 11 45 b0       	movsd  %xmm0,-0x50(%rbp)
     af0:	f3 0f 10 85 2c ff ff 	movss  -0xd4(%rbp),%xmm0
     af7:	ff 
     af8:	f3 0f 5a c0          	cvtss2sd %xmm0,%xmm0
     afc:	f2 0f 10 4d a8       	movsd  -0x58(%rbp),%xmm1
     b01:	f2 0f 58 c1          	addsd  %xmm1,%xmm0
     b05:	f2 0f 11 45 a8       	movsd  %xmm0,-0x58(%rbp)
     b0a:	f3 0f 10 8d 3c ff ff 	movss  -0xc4(%rbp),%xmm1
     b11:	ff 
     b12:	f3 0f 10 85 3c ff ff 	movss  -0xc4(%rbp),%xmm0
     b19:	ff 
     b1a:	f3 0f 59 c1          	mulss  %xmm1,%xmm0
     b1e:	f3 0f 5a c0          	cvtss2sd %xmm0,%xmm0
     b22:	f2 0f 10 4d a0       	movsd  -0x60(%rbp),%xmm1
     b27:	f2 0f 58 c1          	addsd  %xmm1,%xmm0
     b2b:	f2 0f 11 45 a0       	movsd  %xmm0,-0x60(%rbp)
     b30:	8b 45 10             	mov    0x10(%rbp),%eax
     b33:	83 f8 01             	cmp    $0x1,%eax
     b36:	74 0c                	je     b44 <try_place+0xb44>
     b38:	8b 45 10             	mov    0x10(%rbp),%eax
     b3b:	83 f8 02             	cmp    $0x2,%eax
     b3e:	0f 85 f8 00 00 00    	jne    c3c <try_place+0xc3c>
     b44:	8b 45 88             	mov    -0x78(%rbp),%eax
     b47:	3b 45 84             	cmp    -0x7c(%rbp),%eax
     b4a:	0f 8c e8 00 00 00    	jl     c38 <try_place+0xc38>
     b50:	8b 45 e0             	mov    -0x20(%rbp),%eax
     b53:	83 e8 01             	sub    $0x1,%eax
     b56:	3b 45 e8             	cmp    -0x18(%rbp),%eax
     b59:	0f 84 d9 00 00 00    	je     c38 <try_place+0xc38>
     b5f:	c7 45 88 00 00 00 00 	movl   $0x0,-0x78(%rbp)
     b66:	8b 45 10             	mov    0x10(%rbp),%eax
     b69:	83 f8 01             	cmp    $0x1,%eax
     b6c:	75 3d                	jne    bab <try_place+0xbab>
     b6e:	f3 0f 10 8d 2c ff ff 	movss  -0xd4(%rbp),%xmm1
     b75:	ff 
     b76:	66 0f ef c0          	pxor   %xmm0,%xmm0
     b7a:	f3 0f 2a 45 98       	cvtsi2ssl -0x68(%rbp),%xmm0
     b7f:	f3 0f 5e c8          	divss  %xmm0,%xmm1
     b83:	0f 28 c1             	movaps %xmm1,%xmm0
     b86:	f3 0f 11 45 d4       	movss  %xmm0,-0x2c(%rbp)
     b8b:	48 8b 85 d0 fd ff ff 	mov    -0x230(%rbp),%rax
     b92:	8b 55 d4             	mov    -0x2c(%rbp),%edx
     b95:	89 95 a0 fd ff ff    	mov    %edx,-0x260(%rbp)
     b9b:	f3 0f 10 85 a0 fd ff 	movss  -0x260(%rbp),%xmm0
     ba2:	ff 
     ba3:	48 89 c7             	mov    %rax,%rdi
     ba6:	e8 00 00 00 00       	callq  bab <try_place+0xbab>
     bab:	48 8b 85 d0 fd ff ff 	mov    -0x230(%rbp),%rax
     bb2:	48 89 c7             	mov    %rax,%rdi
     bb5:	e8 00 00 00 00       	callq  bba <try_place+0xbba>
     bba:	48 8b 85 d8 fd ff ff 	mov    -0x228(%rbp),%rax
     bc1:	66 0f ef c0          	pxor   %xmm0,%xmm0
     bc5:	48 89 c7             	mov    %rax,%rdi
     bc8:	e8 00 00 00 00       	callq  bcd <try_place+0xbcd>
     bcd:	66 0f 7e c0          	movd   %xmm0,%eax
     bd1:	89 45 d8             	mov    %eax,-0x28(%rbp)
     bd4:	48 8b 85 d8 fd ff ff 	mov    -0x228(%rbp),%rax
     bdb:	f3 0f 10 45 80       	movss  -0x80(%rbp),%xmm0
     be0:	8b 55 d8             	mov    -0x28(%rbp),%edx
     be3:	48 83 ec 08          	sub    $0x8,%rsp
     be7:	ff 75 50             	pushq  0x50(%rbp)
     bea:	ff 75 48             	pushq  0x48(%rbp)
     bed:	ff 75 40             	pushq  0x40(%rbp)
     bf0:	ff 75 38             	pushq  0x38(%rbp)
     bf3:	ff 75 30             	pushq  0x30(%rbp)
     bf6:	ff 75 28             	pushq  0x28(%rbp)
     bf9:	ff 75 20             	pushq  0x20(%rbp)
     bfc:	ff 75 18             	pushq  0x18(%rbp)
     bff:	ff 75 10             	pushq  0x10(%rbp)
     c02:	0f 28 c8             	movaps %xmm0,%xmm1
     c05:	89 95 a0 fd ff ff    	mov    %edx,-0x260(%rbp)
     c0b:	f3 0f 10 85 a0 fd ff 	movss  -0x260(%rbp),%xmm0
     c12:	ff 
     c13:	48 89 c7             	mov    %rax,%rdi
     c16:	e8 00 00 00 00       	callq  c1b <try_place+0xc1b>
     c1b:	48 83 c4 50          	add    $0x50,%rsp
     c1f:	48 8d 95 2c ff ff ff 	lea    -0xd4(%rbp),%rdx
     c26:	48 8d 85 38 ff ff ff 	lea    -0xc8(%rbp),%rax
     c2d:	48 89 d6             	mov    %rdx,%rsi
     c30:	48 89 c7             	mov    %rax,%rdi
     c33:	e8 91 42 00 00       	callq  4ec9 <comp_td_costs>
     c38:	83 45 88 01          	addl   $0x1,-0x78(%rbp)
     c3c:	83 45 e8 01          	addl   $0x1,-0x18(%rbp)
     c40:	8b 45 e8             	mov    -0x18(%rbp),%eax
     c43:	3b 45 e0             	cmp    -0x20(%rbp),%eax
     c46:	0f 8c b6 fd ff ff    	jl     a02 <try_place+0xa02>
     c4c:	8b 45 e0             	mov    -0x20(%rbp),%eax
     c4f:	01 45 dc             	add    %eax,-0x24(%rbp)
     c52:	81 7d dc 50 c3 00 00 	cmpl   $0xc350,-0x24(%rbp)
     c59:	0f 8e dc 01 00 00    	jle    e3b <try_place+0xe3b>
     c5f:	8b 45 3c             	mov    0x3c(%rbp),%eax
     c62:	8b 55 1c             	mov    0x1c(%rbp),%edx
     c65:	89 c6                	mov    %eax,%esi
     c67:	89 d7                	mov    %edx,%edi
     c69:	e8 d6 2e 00 00       	callq  3b44 <recompute_bb_cost>
     c6e:	66 0f 7e c0          	movd   %xmm0,%eax
     c72:	89 85 5c ff ff ff    	mov    %eax,-0xa4(%rbp)
     c78:	f3 0f 10 8d 34 ff ff 	movss  -0xcc(%rbp),%xmm1
     c7f:	ff 
     c80:	f3 0f 10 85 5c ff ff 	movss  -0xa4(%rbp),%xmm0
     c87:	ff 
     c88:	f3 0f 5c c1          	subss  %xmm1,%xmm0
     c8c:	f3 0f 10 0d 00 00 00 	movss  0x0(%rip),%xmm1        # c94 <try_place+0xc94>
     c93:	00 
     c94:	0f 54 c1             	andps  %xmm1,%xmm0
     c97:	f3 0f 5a c0          	cvtss2sd %xmm0,%xmm0
     c9b:	f3 0f 10 8d 34 ff ff 	movss  -0xcc(%rbp),%xmm1
     ca2:	ff 
     ca3:	f3 0f 5a c9          	cvtss2sd %xmm1,%xmm1
     ca7:	f2 0f 10 15 00 00 00 	movsd  0x0(%rip),%xmm2        # caf <try_place+0xcaf>
     cae:	00 
     caf:	f2 0f 59 ca          	mulsd  %xmm2,%xmm1
     cb3:	66 0f 2e c1          	ucomisd %xmm1,%xmm0
     cb7:	76 2f                	jbe    ce8 <try_place+0xce8>
     cb9:	f3 0f 10 85 34 ff ff 	movss  -0xcc(%rbp),%xmm0
     cc0:	ff 
     cc1:	f3 0f 5a c8          	cvtss2sd %xmm0,%xmm1
     cc5:	f3 0f 5a 85 5c ff ff 	cvtss2sd -0xa4(%rbp),%xmm0
     ccc:	ff 
     ccd:	48 8d 3d 00 00 00 00 	lea    0x0(%rip),%rdi        # cd4 <try_place+0xcd4>
     cd4:	b8 02 00 00 00       	mov    $0x2,%eax
     cd9:	e8 00 00 00 00       	callq  cde <try_place+0xcde>
     cde:	bf 01 00 00 00       	mov    $0x1,%edi
     ce3:	e8 00 00 00 00       	callq  ce8 <try_place+0xce8>
     ce8:	f3 0f 10 85 5c ff ff 	movss  -0xa4(%rbp),%xmm0
     cef:	ff 
     cf0:	f3 0f 11 85 34 ff ff 	movss  %xmm0,-0xcc(%rbp)
     cf7:	ff 
     cf8:	8b 45 10             	mov    0x10(%rbp),%eax
     cfb:	83 f8 01             	cmp    $0x1,%eax
     cfe:	74 0c                	je     d0c <try_place+0xd0c>
     d00:	8b 45 10             	mov    0x10(%rbp),%eax
     d03:	83 f8 02             	cmp    $0x2,%eax
     d06:	0f 85 11 01 00 00    	jne    e1d <try_place+0xe1d>
     d0c:	48 8d 95 28 ff ff ff 	lea    -0xd8(%rbp),%rdx
     d13:	48 8d 85 30 ff ff ff 	lea    -0xd0(%rbp),%rax
     d1a:	48 89 d6             	mov    %rdx,%rsi
     d1d:	48 89 c7             	mov    %rax,%rdi
     d20:	e8 a4 41 00 00       	callq  4ec9 <comp_td_costs>
     d25:	f3 0f 10 85 30 ff ff 	movss  -0xd0(%rbp),%xmm0
     d2c:	ff 
     d2d:	f3 0f 10 8d 38 ff ff 	movss  -0xc8(%rbp),%xmm1
     d34:	ff 
     d35:	f3 0f 5c c1          	subss  %xmm1,%xmm0
     d39:	f3 0f 10 0d 00 00 00 	movss  0x0(%rip),%xmm1        # d41 <try_place+0xd41>
     d40:	00 
     d41:	0f 54 c1             	andps  %xmm1,%xmm0
     d44:	f3 0f 5a c0          	cvtss2sd %xmm0,%xmm0
     d48:	f3 0f 10 8d 38 ff ff 	movss  -0xc8(%rbp),%xmm1
     d4f:	ff 
     d50:	f3 0f 5a c9          	cvtss2sd %xmm1,%xmm1
     d54:	f2 0f 10 15 00 00 00 	movsd  0x0(%rip),%xmm2        # d5c <try_place+0xd5c>
     d5b:	00 
     d5c:	f2 0f 59 ca          	mulsd  %xmm2,%xmm1
     d60:	66 0f 2e c1          	ucomisd %xmm1,%xmm0
     d64:	76 33                	jbe    d99 <try_place+0xd99>
     d66:	f3 0f 10 85 38 ff ff 	movss  -0xc8(%rbp),%xmm0
     d6d:	ff 
     d6e:	f3 0f 5a c8          	cvtss2sd %xmm0,%xmm1
     d72:	f3 0f 10 85 30 ff ff 	movss  -0xd0(%rbp),%xmm0
     d79:	ff 
     d7a:	f3 0f 5a c0          	cvtss2sd %xmm0,%xmm0
     d7e:	48 8d 3d 00 00 00 00 	lea    0x0(%rip),%rdi        # d85 <try_place+0xd85>
     d85:	b8 02 00 00 00       	mov    $0x2,%eax
     d8a:	e8 00 00 00 00       	callq  d8f <try_place+0xd8f>
     d8f:	bf 01 00 00 00       	mov    $0x1,%edi
     d94:	e8 00 00 00 00       	callq  d99 <try_place+0xd99>
     d99:	f3 0f 10 85 28 ff ff 	movss  -0xd8(%rbp),%xmm0
     da0:	ff 
     da1:	f3 0f 10 8d 2c ff ff 	movss  -0xd4(%rbp),%xmm1
     da8:	ff 
     da9:	f3 0f 5c c1          	subss  %xmm1,%xmm0
     dad:	f3 0f 10 0d 00 00 00 	movss  0x0(%rip),%xmm1        # db5 <try_place+0xdb5>
     db4:	00 
     db5:	0f 54 c1             	andps  %xmm1,%xmm0
     db8:	f3 0f 5a c0          	cvtss2sd %xmm0,%xmm0
     dbc:	f3 0f 10 8d 2c ff ff 	movss  -0xd4(%rbp),%xmm1
     dc3:	ff 
     dc4:	f3 0f 5a c9          	cvtss2sd %xmm1,%xmm1
     dc8:	f2 0f 10 15 00 00 00 	movsd  0x0(%rip),%xmm2        # dd0 <try_place+0xdd0>
     dcf:	00 
     dd0:	f2 0f 59 ca          	mulsd  %xmm2,%xmm1
     dd4:	66 0f 2e c1          	ucomisd %xmm1,%xmm0
     dd8:	76 33                	jbe    e0d <try_place+0xe0d>
     dda:	f3 0f 10 85 2c ff ff 	movss  -0xd4(%rbp),%xmm0
     de1:	ff 
     de2:	f3 0f 5a c8          	cvtss2sd %xmm0,%xmm1
     de6:	f3 0f 10 85 28 ff ff 	movss  -0xd8(%rbp),%xmm0
     ded:	ff 
     dee:	f3 0f 5a c0          	cvtss2sd %xmm0,%xmm0
     df2:	48 8d 3d 00 00 00 00 	lea    0x0(%rip),%rdi        # df9 <try_place+0xdf9>
     df9:	b8 02 00 00 00       	mov    $0x2,%eax
     dfe:	e8 00 00 00 00       	callq  e03 <try_place+0xe03>
     e03:	bf 01 00 00 00       	mov    $0x1,%edi
     e08:	e8 00 00 00 00       	callq  e0d <try_place+0xe0d>
     e0d:	f3 0f 10 85 30 ff ff 	movss  -0xd0(%rbp),%xmm0
     e14:	ff 
     e15:	f3 0f 11 85 38 ff ff 	movss  %xmm0,-0xc8(%rbp)
     e1c:	ff 
     e1d:	8b 45 10             	mov    0x10(%rbp),%eax
     e20:	85 c0                	test   %eax,%eax
     e22:	75 10                	jne    e34 <try_place+0xe34>
     e24:	f3 0f 10 85 5c ff ff 	movss  -0xa4(%rbp),%xmm0
     e2b:	ff 
     e2c:	f3 0f 11 85 3c ff ff 	movss  %xmm0,-0xc4(%rbp)
     e33:	ff 
     e34:	c7 45 dc 00 00 00 00 	movl   $0x0,-0x24(%rbp)
     e3b:	8b 45 e0             	mov    -0x20(%rbp),%eax
     e3e:	01 45 ec             	add    %eax,-0x14(%rbp)
     e41:	66 0f ef c0          	pxor   %xmm0,%xmm0
     e45:	f3 0f 2a 45 e4       	cvtsi2ssl -0x1c(%rbp),%xmm0
     e4a:	66 0f ef c9          	pxor   %xmm1,%xmm1
     e4e:	f3 0f 2a 4d e0       	cvtsi2ssl -0x20(%rbp),%xmm1
     e53:	f3 0f 5e c1          	divss  %xmm1,%xmm0
     e57:	f3 0f 11 85 58 ff ff 	movss  %xmm0,-0xa8(%rbp)
     e5e:	ff 
     e5f:	83 7d e4 00          	cmpl   $0x0,-0x1c(%rbp)
     e63:	75 46                	jne    eab <try_place+0xeab>
     e65:	f3 0f 10 85 3c ff ff 	movss  -0xc4(%rbp),%xmm0
     e6c:	ff 
     e6d:	f3 0f 5a f8          	cvtss2sd %xmm0,%xmm7
     e71:	f2 0f 11 7d c0       	movsd  %xmm7,-0x40(%rbp)
     e76:	f3 0f 10 85 34 ff ff 	movss  -0xcc(%rbp),%xmm0
     e7d:	ff 
     e7e:	f3 0f 5a f8          	cvtss2sd %xmm0,%xmm7
     e82:	f2 0f 11 7d b8       	movsd  %xmm7,-0x48(%rbp)
     e87:	f3 0f 10 85 38 ff ff 	movss  -0xc8(%rbp),%xmm0
     e8e:	ff 
     e8f:	f3 0f 5a e8          	cvtss2sd %xmm0,%xmm5
     e93:	f2 0f 11 6d b0       	movsd  %xmm5,-0x50(%rbp)
     e98:	f3 0f 10 85 2c ff ff 	movss  -0xd4(%rbp),%xmm0
     e9f:	ff 
     ea0:	f3 0f 5a f0          	cvtss2sd %xmm0,%xmm6
     ea4:	f2 0f 11 75 a8       	movsd  %xmm6,-0x58(%rbp)
     ea9:	eb 6c                	jmp    f17 <try_place+0xf17>
     eab:	66 0f ef c0          	pxor   %xmm0,%xmm0
     eaf:	f2 0f 2a 45 e4       	cvtsi2sdl -0x1c(%rbp),%xmm0
     eb4:	f2 0f 10 4d c0       	movsd  -0x40(%rbp),%xmm1
     eb9:	f2 0f 5e c8          	divsd  %xmm0,%xmm1
     ebd:	66 0f 28 c1          	movapd %xmm1,%xmm0
     ec1:	f2 0f 11 45 c0       	movsd  %xmm0,-0x40(%rbp)
     ec6:	66 0f ef c0          	pxor   %xmm0,%xmm0
     eca:	f2 0f 2a 45 e4       	cvtsi2sdl -0x1c(%rbp),%xmm0
     ecf:	f2 0f 10 4d b8       	movsd  -0x48(%rbp),%xmm1
     ed4:	f2 0f 5e c8          	divsd  %xmm0,%xmm1
     ed8:	66 0f 28 c1          	movapd %xmm1,%xmm0
     edc:	f2 0f 11 45 b8       	movsd  %xmm0,-0x48(%rbp)
     ee1:	66 0f ef c0          	pxor   %xmm0,%xmm0
     ee5:	f2 0f 2a 45 e4       	cvtsi2sdl -0x1c(%rbp),%xmm0
     eea:	f2 0f 10 4d b0       	movsd  -0x50(%rbp),%xmm1
     eef:	f2 0f 5e c8          	divsd  %xmm0,%xmm1
     ef3:	66 0f 28 c1          	movapd %xmm1,%xmm0
     ef7:	f2 0f 11 45 b0       	movsd  %xmm0,-0x50(%rbp)
     efc:	66 0f ef c0          	pxor   %xmm0,%xmm0
     f00:	f2 0f 2a 45 e4       	cvtsi2sdl -0x1c(%rbp),%xmm0
     f05:	f2 0f 10 4d a8       	movsd  -0x58(%rbp),%xmm1
     f0a:	f2 0f 5e c8          	divsd  %xmm0,%xmm1
     f0e:	66 0f 28 c1          	movapd %xmm1,%xmm0
     f12:	f2 0f 11 45 a8       	movsd  %xmm0,-0x58(%rbp)
     f17:	f2 0f 10 45 c0       	movsd  -0x40(%rbp),%xmm0
     f1c:	48 8b 55 a0          	mov    -0x60(%rbp),%rdx
     f20:	8b 45 e4             	mov    -0x1c(%rbp),%eax
     f23:	66 0f 28 c8          	movapd %xmm0,%xmm1
     f27:	48 89 95 a0 fd ff ff 	mov    %rdx,-0x260(%rbp)
     f2e:	f2 0f 10 85 a0 fd ff 	movsd  -0x260(%rbp),%xmm0
     f35:	ff 
     f36:	89 c7                	mov    %eax,%edi
     f38:	e8 84 0d 00 00       	callq  1cc1 <get_std_dev>
     f3d:	66 48 0f 7e c0       	movq   %xmm0,%rax
     f42:	48 89 85 50 ff ff ff 	mov    %rax,-0xb0(%rbp)
     f49:	f3 0f 5a 55 80       	cvtss2sd -0x80(%rbp),%xmm2
     f4e:	f3 0f 10 85 40 ff ff 	movss  -0xc0(%rbp),%xmm0
     f55:	ff 
     f56:	f3 0f 5a c8          	cvtss2sd %xmm0,%xmm1
     f5a:	f3 0f 5a ad 58 ff ff 	cvtss2sd -0xa8(%rbp),%xmm5
     f61:	ff 
     f62:	f3 0f 5a 65 d8       	cvtss2sd -0x28(%rbp),%xmm4
     f67:	f3 0f 5a 5d d4       	cvtss2sd -0x2c(%rbp),%xmm3
     f6c:	f3 0f 10 85 44 ff ff 	movss  -0xbc(%rbp),%xmm0
     f73:	ff 
     f74:	f3 0f 5a c0          	cvtss2sd %xmm0,%xmm0
     f78:	8b 45 ec             	mov    -0x14(%rbp),%eax
     f7b:	f2 44 0f 10 5d a8    	movsd  -0x58(%rbp),%xmm11
     f81:	f2 44 0f 10 55 b0    	movsd  -0x50(%rbp),%xmm10
     f87:	f2 44 0f 10 4d b8    	movsd  -0x48(%rbp),%xmm9
     f8d:	f2 44 0f 10 45 c0    	movsd  -0x40(%rbp),%xmm8
     f93:	48 83 ec 08          	sub    $0x8,%rsp
     f97:	48 8d 64 24 f8       	lea    -0x8(%rsp),%rsp
     f9c:	f2 0f 11 14 24       	movsd  %xmm2,(%rsp)
     fa1:	48 8d 64 24 f8       	lea    -0x8(%rsp),%rsp
     fa6:	f2 0f 11 0c 24       	movsd  %xmm1,(%rsp)
     fab:	ff b5 50 ff ff ff    	pushq  -0xb0(%rbp)
     fb1:	89 c6                	mov    %eax,%esi
     fb3:	66 0f 28 fd          	movapd %xmm5,%xmm7
     fb7:	66 0f 28 f4          	movapd %xmm4,%xmm6
     fbb:	66 0f 28 eb          	movapd %xmm3,%xmm5
     fbf:	66 41 0f 28 e3       	movapd %xmm11,%xmm4
     fc4:	66 41 0f 28 da       	movapd %xmm10,%xmm3
     fc9:	66 41 0f 28 d1       	movapd %xmm9,%xmm2
     fce:	66 41 0f 28 c8       	movapd %xmm8,%xmm1
     fd3:	48 8d 3d 00 00 00 00 	lea    0x0(%rip),%rdi        # fda <try_place+0xfda>
     fda:	b8 08 00 00 00       	mov    $0x8,%eax
     fdf:	e8 00 00 00 00       	callq  fe4 <try_place+0xfe4>
     fe4:	48 83 c4 20          	add    $0x20,%rsp
     fe8:	f3 0f 10 85 44 ff ff 	movss  -0xbc(%rbp),%xmm0
     fef:	ff 
     ff0:	f3 0f 11 85 4c ff ff 	movss  %xmm0,-0xb4(%rbp)
     ff7:	ff 
     ff8:	f3 0f 10 8d 40 ff ff 	movss  -0xc0(%rbp),%xmm1
     fff:	ff 
    1000:	f2 0f 5a 85 50 ff ff 	cvtsd2ss -0xb0(%rbp),%xmm0
    1007:	ff 
    1008:	f3 0f 10 95 58 ff ff 	movss  -0xa8(%rbp),%xmm2
    100f:	ff 
    1010:	48 8d 95 44 ff ff ff 	lea    -0xbc(%rbp),%rdx
    1017:	48 83 ec 08          	sub    $0x8,%rsp
    101b:	48 83 ec 18          	sub    $0x18,%rsp
    101f:	48 89 e0             	mov    %rsp,%rax
    1022:	48 8b 4d 58          	mov    0x58(%rbp),%rcx
    1026:	48 89 08             	mov    %rcx,(%rax)
    1029:	48 8b 4d 60          	mov    0x60(%rbp),%rcx
    102d:	48 89 48 08          	mov    %rcx,0x8(%rax)
    1031:	8b 4d 68             	mov    0x68(%rbp),%ecx
    1034:	89 48 10             	mov    %ecx,0x10(%rax)
    1037:	48 89 d7             	mov    %rdx,%rdi
    103a:	e8 da 0d 00 00       	callq  1e19 <update_t>
    103f:	48 83 c4 20          	add    $0x20,%rsp
    1043:	f3 0f 10 85 44 ff ff 	movss  -0xbc(%rbp),%xmm0
    104a:	ff 
    104b:	f3 0f 5e 85 4c ff ff 	divss  -0xb4(%rbp),%xmm0
    1052:	ff 
    1053:	f3 0f 5a c0          	cvtss2sd %xmm0,%xmm0
    1057:	48 8d 3d 00 00 00 00 	lea    0x0(%rip),%rdi        # 105e <try_place+0x105e>
    105e:	b8 01 00 00 00       	mov    $0x1,%eax
    1063:	e8 00 00 00 00       	callq  1068 <try_place+0x1068>
    1068:	f3 0f 5a 65 d8       	cvtss2sd -0x28(%rbp),%xmm4
    106d:	f3 0f 10 85 44 ff ff 	movss  -0xbc(%rbp),%xmm0
    1074:	ff 
    1075:	f3 0f 5a d8          	cvtss2sd %xmm0,%xmm3
    1079:	f3 0f 10 85 38 ff ff 	movss  -0xc8(%rbp),%xmm0
    1080:	ff 
    1081:	f3 0f 5a d0          	cvtss2sd %xmm0,%xmm2
    1085:	f3 0f 10 85 34 ff ff 	movss  -0xcc(%rbp),%xmm0
    108c:	ff 
    108d:	f3 0f 5a c8          	cvtss2sd %xmm0,%xmm1
    1091:	f3 0f 10 85 3c ff ff 	movss  -0xc4(%rbp),%xmm0
    1098:	ff 
    1099:	f3 0f 5a c0          	cvtss2sd %xmm0,%xmm0
    109d:	48 8d 85 e0 fd ff ff 	lea    -0x220(%rbp),%rax
    10a4:	48 8d 35 00 00 00 00 	lea    0x0(%rip),%rsi        # 10ab <try_place+0x10ab>
    10ab:	48 89 c7             	mov    %rax,%rdi
    10ae:	b8 05 00 00 00       	mov    $0x5,%eax
    10b3:	e8 00 00 00 00       	callq  10b8 <try_place+0x10b8>
    10b8:	48 8d 85 e0 fd ff ff 	lea    -0x220(%rbp),%rax
    10bf:	b9 00 00 00 00       	mov    $0x0,%ecx
    10c4:	ba 01 00 00 00       	mov    $0x1,%edx
    10c9:	48 89 c6             	mov    %rax,%rsi
    10cc:	bf 00 00 00 00       	mov    $0x0,%edi
    10d1:	e8 00 00 00 00       	callq  10d6 <try_place+0x10d6>
    10d6:	8b 95 58 ff ff ff    	mov    -0xa8(%rbp),%edx
    10dc:	48 8d 85 40 ff ff ff 	lea    -0xc0(%rbp),%rax
    10e3:	89 95 a0 fd ff ff    	mov    %edx,-0x260(%rbp)
    10e9:	f3 0f 10 85 a0 fd ff 	movss  -0x260(%rbp),%xmm0
    10f0:	ff 
    10f1:	48 89 c7             	mov    %rax,%rdi
    10f4:	e8 67 0c 00 00       	callq  1d60 <update_rlim>
    10f9:	8b 45 10             	mov    0x10(%rbp),%eax
    10fc:	83 f8 01             	cmp    $0x1,%eax
    10ff:	74 08                	je     1109 <try_place+0x1109>
    1101:	8b 45 10             	mov    0x10(%rbp),%eax
    1104:	83 f8 02             	cmp    $0x2,%eax
    1107:	75 44                	jne    114d <try_place+0x114d>
    1109:	f3 0f 10 85 40 ff ff 	movss  -0xc0(%rbp),%xmm0
    1110:	ff 
    1111:	f3 0f 5c 85 64 ff ff 	subss  -0x9c(%rbp),%xmm0
    1118:	ff 
    1119:	f3 0f 59 85 60 ff ff 	mulss  -0xa0(%rbp),%xmm0
    1120:	ff 
    1121:	f3 0f 10 0d 00 00 00 	movss  0x0(%rip),%xmm1        # 1129 <try_place+0x1129>
    1128:	00 
    1129:	f3 0f 5c c8          	subss  %xmm0,%xmm1
    112d:	f3 0f 10 45 54       	movss  0x54(%rbp),%xmm0
    1132:	f3 0f 10 55 4c       	movss  0x4c(%rbp),%xmm2
    1137:	f3 0f 5c c2          	subss  %xmm2,%xmm0
    113b:	f3 0f 59 c1          	mulss  %xmm1,%xmm0
    113f:	f3 0f 10 4d 4c       	movss  0x4c(%rbp),%xmm1
    1144:	f3 0f 58 c1          	addss  %xmm1,%xmm0
    1148:	f3 0f 11 45 80       	movss  %xmm0,-0x80(%rbp)
    114d:	f3 0f 10 85 3c ff ff 	movss  -0xc4(%rbp),%xmm0
    1154:	ff 
    1155:	8b 95 44 ff ff ff    	mov    -0xbc(%rbp),%edx
    115b:	48 83 ec 08          	sub    $0x8,%rsp
    115f:	48 83 ec 18          	sub    $0x18,%rsp
    1163:	48 89 e0             	mov    %rsp,%rax
    1166:	48 8b 4d 58          	mov    0x58(%rbp),%rcx
    116a:	48 89 08             	mov    %rcx,(%rax)
    116d:	48 8b 4d 60          	mov    0x60(%rbp),%rcx
    1171:	48 89 48 08          	mov    %rcx,0x8(%rax)
    1175:	8b 4d 68             	mov    0x68(%rbp),%ecx
    1178:	89 48 10             	mov    %ecx,0x10(%rax)
    117b:	0f 28 c8             	movaps %xmm0,%xmm1
    117e:	89 95 a0 fd ff ff    	mov    %edx,-0x260(%rbp)
    1184:	f3 0f 10 85 a0 fd ff 	movss  -0x260(%rbp),%xmm0
    118b:	ff 
    118c:	e8 a2 0d 00 00       	callq  1f33 <exit_crit>
    1191:	48 83 c4 20          	add    $0x20,%rsp
    1195:	85 c0                	test   %eax,%eax
    1197:	0f 84 c8 f6 ff ff    	je     865 <try_place+0x865>
    119d:	66 0f ef c0          	pxor   %xmm0,%xmm0
    11a1:	f3 0f 11 85 44 ff ff 	movss  %xmm0,-0xbc(%rbp)
    11a8:	ff 
    11a9:	66 0f ef c0          	pxor   %xmm0,%xmm0
    11ad:	f2 0f 11 45 c0       	movsd  %xmm0,-0x40(%rbp)
    11b2:	66 0f ef c0          	pxor   %xmm0,%xmm0
    11b6:	f2 0f 11 45 b8       	movsd  %xmm0,-0x48(%rbp)
    11bb:	66 0f ef c0          	pxor   %xmm0,%xmm0
    11bf:	f2 0f 11 45 b0       	movsd  %xmm0,-0x50(%rbp)
    11c4:	66 0f ef c0          	pxor   %xmm0,%xmm0
    11c8:	f2 0f 11 45 a0       	movsd  %xmm0,-0x60(%rbp)
    11cd:	66 0f ef c0          	pxor   %xmm0,%xmm0
    11d1:	f2 0f 11 45 a8       	movsd  %xmm0,-0x58(%rbp)
    11d6:	c7 45 e4 00 00 00 00 	movl   $0x0,-0x1c(%rbp)
    11dd:	8b 45 10             	mov    0x10(%rbp),%eax
    11e0:	83 f8 01             	cmp    $0x1,%eax
    11e3:	74 0c                	je     11f1 <try_place+0x11f1>
    11e5:	8b 45 10             	mov    0x10(%rbp),%eax
    11e8:	83 f8 02             	cmp    $0x2,%eax
    11eb:	0f 85 22 01 00 00    	jne    1313 <try_place+0x1313>
    11f1:	8b 45 40             	mov    0x40(%rbp),%eax
    11f4:	3b 45 8c             	cmp    -0x74(%rbp),%eax
    11f7:	7e 0b                	jle    1204 <try_place+0x1204>
    11f9:	8b 45 48             	mov    0x48(%rbp),%eax
    11fc:	85 c0                	test   %eax,%eax
    11fe:	0f 84 d9 00 00 00    	je     12dd <try_place+0x12dd>
    1204:	f3 0f 10 8d 2c ff ff 	movss  -0xd4(%rbp),%xmm1
    120b:	ff 
    120c:	66 0f ef c0          	pxor   %xmm0,%xmm0
    1210:	f3 0f 2a 45 98       	cvtsi2ssl -0x68(%rbp),%xmm0
    1215:	f3 0f 5e c8          	divss  %xmm0,%xmm1
    1219:	0f 28 c1             	movaps %xmm1,%xmm0
    121c:	f3 0f 11 45 d4       	movss  %xmm0,-0x2c(%rbp)
    1221:	8b 45 10             	mov    0x10(%rbp),%eax
    1224:	83 f8 01             	cmp    $0x1,%eax
    1227:	75 20                	jne    1249 <try_place+0x1249>
    1229:	48 8b 85 d0 fd ff ff 	mov    -0x230(%rbp),%rax
    1230:	8b 55 d4             	mov    -0x2c(%rbp),%edx
    1233:	89 95 a0 fd ff ff    	mov    %edx,-0x260(%rbp)
    1239:	f3 0f 10 85 a0 fd ff 	movss  -0x260(%rbp),%xmm0
    1240:	ff 
    1241:	48 89 c7             	mov    %rax,%rdi
    1244:	e8 00 00 00 00       	callq  1249 <try_place+0x1249>
    1249:	48 8b 85 d0 fd ff ff 	mov    -0x230(%rbp),%rax
    1250:	48 89 c7             	mov    %rax,%rdi
    1253:	e8 00 00 00 00       	callq  1258 <try_place+0x1258>
    1258:	48 8b 85 d8 fd ff ff 	mov    -0x228(%rbp),%rax
    125f:	66 0f ef c0          	pxor   %xmm0,%xmm0
    1263:	48 89 c7             	mov    %rax,%rdi
    1266:	e8 00 00 00 00       	callq  126b <try_place+0x126b>
    126b:	66 0f 7e c0          	movd   %xmm0,%eax
    126f:	89 45 d8             	mov    %eax,-0x28(%rbp)
    1272:	48 8b 85 d8 fd ff ff 	mov    -0x228(%rbp),%rax
    1279:	f3 0f 10 45 80       	movss  -0x80(%rbp),%xmm0
    127e:	8b 55 d8             	mov    -0x28(%rbp),%edx
    1281:	48 83 ec 08          	sub    $0x8,%rsp
    1285:	ff 75 50             	pushq  0x50(%rbp)
    1288:	ff 75 48             	pushq  0x48(%rbp)
    128b:	ff 75 40             	pushq  0x40(%rbp)
    128e:	ff 75 38             	pushq  0x38(%rbp)
    1291:	ff 75 30             	pushq  0x30(%rbp)
    1294:	ff 75 28             	pushq  0x28(%rbp)
    1297:	ff 75 20             	pushq  0x20(%rbp)
    129a:	ff 75 18             	pushq  0x18(%rbp)
    129d:	ff 75 10             	pushq  0x10(%rbp)
    12a0:	0f 28 c8             	movaps %xmm0,%xmm1
    12a3:	89 95 a0 fd ff ff    	mov    %edx,-0x260(%rbp)
    12a9:	f3 0f 10 85 a0 fd ff 	movss  -0x260(%rbp),%xmm0
    12b0:	ff 
    12b1:	48 89 c7             	mov    %rax,%rdi
    12b4:	e8 00 00 00 00       	callq  12b9 <try_place+0x12b9>
    12b9:	48 83 c4 50          	add    $0x50,%rsp
    12bd:	48 8d 95 2c ff ff ff 	lea    -0xd4(%rbp),%rdx
    12c4:	48 8d 85 38 ff ff ff 	lea    -0xc8(%rbp),%rax
    12cb:	48 89 d6             	mov    %rdx,%rsi
    12ce:	48 89 c7             	mov    %rax,%rdi
    12d1:	e8 f3 3b 00 00       	callq  4ec9 <comp_td_costs>
    12d6:	c7 45 8c 00 00 00 00 	movl   $0x0,-0x74(%rbp)
    12dd:	83 45 8c 01          	addl   $0x1,-0x74(%rbp)
    12e1:	f3 0f 10 8d 34 ff ff 	movss  -0xcc(%rbp),%xmm1
    12e8:	ff 
    12e9:	f3 0f 10 05 00 00 00 	movss  0x0(%rip),%xmm0        # 12f1 <try_place+0x12f1>
    12f0:	00 
    12f1:	f3 0f 5e c1          	divss  %xmm1,%xmm0
    12f5:	f3 0f 11 45 d0       	movss  %xmm0,-0x30(%rbp)
    12fa:	f3 0f 10 8d 38 ff ff 	movss  -0xc8(%rbp),%xmm1
    1301:	ff 
    1302:	f3 0f 10 05 00 00 00 	movss  0x0(%rip),%xmm0        # 130a <try_place+0x130a>
    1309:	00 
    130a:	f3 0f 5e c1          	divss  %xmm1,%xmm0
    130e:	f3 0f 11 45 cc       	movss  %xmm0,-0x34(%rbp)
    1313:	c7 45 88 01 00 00 00 	movl   $0x1,-0x78(%rbp)
    131a:	c7 45 e8 00 00 00 00 	movl   $0x0,-0x18(%rbp)
    1321:	e9 3e 02 00 00       	jmpq   1564 <try_place+0x1564>
    1326:	f3 0f 10 4d 14       	movss  0x14(%rbp),%xmm1
    132b:	44 8b 45 10          	mov    0x10(%rbp),%r8d
    132f:	8b 4d 3c             	mov    0x3c(%rbp),%ecx
    1332:	4c 8b 9d 18 ff ff ff 	mov    -0xe8(%rbp),%r11
    1339:	4c 8b 95 20 ff ff ff 	mov    -0xe0(%rbp),%r10
    1340:	8b 45 1c             	mov    0x1c(%rbp),%eax
    1343:	89 c3                	mov    %eax,%ebx
    1345:	f3 0f 10 85 40 ff ff 	movss  -0xc0(%rbp),%xmm0
    134c:	ff 
    134d:	8b 85 44 ff ff ff    	mov    -0xbc(%rbp),%eax
    1353:	f3 0f 10 5d cc       	movss  -0x34(%rbp),%xmm3
    1358:	f3 0f 10 55 d0       	movss  -0x30(%rbp),%xmm2
    135d:	48 8d 95 38 ff ff ff 	lea    -0xc8(%rbp),%rdx
    1364:	48 8d b5 34 ff ff ff 	lea    -0xcc(%rbp),%rsi
    136b:	48 8d bd 3c ff ff ff 	lea    -0xc4(%rbp),%rdi
    1372:	48 83 ec 08          	sub    $0x8,%rsp
    1376:	ff b5 70 ff ff ff    	pushq  -0x90(%rbp)
    137c:	4c 8d 8d 2c ff ff ff 	lea    -0xd4(%rbp),%r9
    1383:	41 51                	push   %r9
    1385:	41 50                	push   %r8
    1387:	44 8b 45 9c          	mov    -0x64(%rbp),%r8d
    138b:	41 50                	push   %r8
    138d:	51                   	push   %rcx
    138e:	0f 28 e3             	movaps %xmm3,%xmm4
    1391:	0f 28 da             	movaps %xmm2,%xmm3
    1394:	0f 28 d1             	movaps %xmm1,%xmm2
    1397:	4d 89 d9             	mov    %r11,%r9
    139a:	4d 89 d0             	mov    %r10,%r8
    139d:	89 d9                	mov    %ebx,%ecx
    139f:	0f 28 c8             	movaps %xmm0,%xmm1
    13a2:	89 85 a0 fd ff ff    	mov    %eax,-0x260(%rbp)
    13a8:	f3 0f 10 85 a0 fd ff 	movss  -0x260(%rbp),%xmm0
    13af:	ff 
    13b0:	e8 de 0d 00 00       	callq  2193 <try_swap>
    13b5:	48 83 c4 30          	add    $0x30,%rsp
    13b9:	83 f8 01             	cmp    $0x1,%eax
    13bc:	0f 85 9e 01 00 00    	jne    1560 <try_place+0x1560>
    13c2:	83 45 e4 01          	addl   $0x1,-0x1c(%rbp)
    13c6:	f3 0f 10 85 3c ff ff 	movss  -0xc4(%rbp),%xmm0
    13cd:	ff 
    13ce:	f3 0f 5a c0          	cvtss2sd %xmm0,%xmm0
    13d2:	f2 0f 10 4d c0       	movsd  -0x40(%rbp),%xmm1
    13d7:	f2 0f 58 c1          	addsd  %xmm1,%xmm0
    13db:	f2 0f 11 45 c0       	movsd  %xmm0,-0x40(%rbp)
    13e0:	f3 0f 10 85 34 ff ff 	movss  -0xcc(%rbp),%xmm0
    13e7:	ff 
    13e8:	f3 0f 5a c0          	cvtss2sd %xmm0,%xmm0
    13ec:	f2 0f 10 4d b8       	movsd  -0x48(%rbp),%xmm1
    13f1:	f2 0f 58 c1          	addsd  %xmm1,%xmm0
    13f5:	f2 0f 11 45 b8       	movsd  %xmm0,-0x48(%rbp)
    13fa:	f3 0f 10 85 2c ff ff 	movss  -0xd4(%rbp),%xmm0
    1401:	ff 
    1402:	f3 0f 5a c0          	cvtss2sd %xmm0,%xmm0
    1406:	f2 0f 10 4d a8       	movsd  -0x58(%rbp),%xmm1
    140b:	f2 0f 58 c1          	addsd  %xmm1,%xmm0
    140f:	f2 0f 11 45 a8       	movsd  %xmm0,-0x58(%rbp)
    1414:	f3 0f 10 85 38 ff ff 	movss  -0xc8(%rbp),%xmm0
    141b:	ff 
    141c:	f3 0f 5a c0          	cvtss2sd %xmm0,%xmm0
    1420:	f2 0f 10 4d b0       	movsd  -0x50(%rbp),%xmm1
    1425:	f2 0f 58 c1          	addsd  %xmm1,%xmm0
    1429:	f2 0f 11 45 b0       	movsd  %xmm0,-0x50(%rbp)
    142e:	f3 0f 10 8d 3c ff ff 	movss  -0xc4(%rbp),%xmm1
    1435:	ff 
    1436:	f3 0f 10 85 3c ff ff 	movss  -0xc4(%rbp),%xmm0
    143d:	ff 
    143e:	f3 0f 59 c1          	mulss  %xmm1,%xmm0
    1442:	f3 0f 5a c0          	cvtss2sd %xmm0,%xmm0
    1446:	f2 0f 10 4d a0       	movsd  -0x60(%rbp),%xmm1
    144b:	f2 0f 58 c1          	addsd  %xmm1,%xmm0
    144f:	f2 0f 11 45 a0       	movsd  %xmm0,-0x60(%rbp)
    1454:	8b 45 10             	mov    0x10(%rbp),%eax
    1457:	83 f8 01             	cmp    $0x1,%eax
    145a:	74 0c                	je     1468 <try_place+0x1468>
    145c:	8b 45 10             	mov    0x10(%rbp),%eax
    145f:	83 f8 02             	cmp    $0x2,%eax
    1462:	0f 85 f8 00 00 00    	jne    1560 <try_place+0x1560>
    1468:	8b 45 88             	mov    -0x78(%rbp),%eax
    146b:	3b 45 84             	cmp    -0x7c(%rbp),%eax
    146e:	0f 8c e8 00 00 00    	jl     155c <try_place+0x155c>
    1474:	8b 45 e0             	mov    -0x20(%rbp),%eax
    1477:	83 e8 01             	sub    $0x1,%eax
    147a:	3b 45 e8             	cmp    -0x18(%rbp),%eax
    147d:	0f 84 d9 00 00 00    	je     155c <try_place+0x155c>
    1483:	c7 45 88 00 00 00 00 	movl   $0x0,-0x78(%rbp)
    148a:	8b 45 10             	mov    0x10(%rbp),%eax
    148d:	83 f8 01             	cmp    $0x1,%eax
    1490:	75 3d                	jne    14cf <try_place+0x14cf>
    1492:	f3 0f 10 8d 2c ff ff 	movss  -0xd4(%rbp),%xmm1
    1499:	ff 
    149a:	66 0f ef c0          	pxor   %xmm0,%xmm0
    149e:	f3 0f 2a 45 98       	cvtsi2ssl -0x68(%rbp),%xmm0
    14a3:	f3 0f 5e c8          	divss  %xmm0,%xmm1
    14a7:	0f 28 c1             	movaps %xmm1,%xmm0
    14aa:	f3 0f 11 45 d4       	movss  %xmm0,-0x2c(%rbp)
    14af:	48 8b 85 d0 fd ff ff 	mov    -0x230(%rbp),%rax
    14b6:	8b 55 d4             	mov    -0x2c(%rbp),%edx
    14b9:	89 95 a0 fd ff ff    	mov    %edx,-0x260(%rbp)
    14bf:	f3 0f 10 85 a0 fd ff 	movss  -0x260(%rbp),%xmm0
    14c6:	ff 
    14c7:	48 89 c7             	mov    %rax,%rdi
    14ca:	e8 00 00 00 00       	callq  14cf <try_place+0x14cf>
    14cf:	48 8b 85 d0 fd ff ff 	mov    -0x230(%rbp),%rax
    14d6:	48 89 c7             	mov    %rax,%rdi
    14d9:	e8 00 00 00 00       	callq  14de <try_place+0x14de>
    14de:	48 8b 85 d8 fd ff ff 	mov    -0x228(%rbp),%rax
    14e5:	66 0f ef c0          	pxor   %xmm0,%xmm0
    14e9:	48 89 c7             	mov    %rax,%rdi
    14ec:	e8 00 00 00 00       	callq  14f1 <try_place+0x14f1>
    14f1:	66 0f 7e c0          	movd   %xmm0,%eax
    14f5:	89 45 d8             	mov    %eax,-0x28(%rbp)
    14f8:	48 8b 85 d8 fd ff ff 	mov    -0x228(%rbp),%rax
    14ff:	f3 0f 10 45 80       	movss  -0x80(%rbp),%xmm0
    1504:	8b 55 d8             	mov    -0x28(%rbp),%edx
    1507:	48 83 ec 08          	sub    $0x8,%rsp
    150b:	ff 75 50             	pushq  0x50(%rbp)
    150e:	ff 75 48             	pushq  0x48(%rbp)
    1511:	ff 75 40             	pushq  0x40(%rbp)
    1514:	ff 75 38             	pushq  0x38(%rbp)
    1517:	ff 75 30             	pushq  0x30(%rbp)
    151a:	ff 75 28             	pushq  0x28(%rbp)
    151d:	ff 75 20             	pushq  0x20(%rbp)
    1520:	ff 75 18             	pushq  0x18(%rbp)
    1523:	ff 75 10             	pushq  0x10(%rbp)
    1526:	0f 28 c8             	movaps %xmm0,%xmm1
    1529:	89 95 a0 fd ff ff    	mov    %edx,-0x260(%rbp)
    152f:	f3 0f 10 85 a0 fd ff 	movss  -0x260(%rbp),%xmm0
    1536:	ff 
    1537:	48 89 c7             	mov    %rax,%rdi
    153a:	e8 00 00 00 00       	callq  153f <try_place+0x153f>
    153f:	48 83 c4 50          	add    $0x50,%rsp
    1543:	48 8d 95 2c ff ff ff 	lea    -0xd4(%rbp),%rdx
    154a:	48 8d 85 38 ff ff ff 	lea    -0xc8(%rbp),%rax
    1551:	48 89 d6             	mov    %rdx,%rsi
    1554:	48 89 c7             	mov    %rax,%rdi
    1557:	e8 6d 39 00 00       	callq  4ec9 <comp_td_costs>
    155c:	83 45 88 01          	addl   $0x1,-0x78(%rbp)
    1560:	83 45 e8 01          	addl   $0x1,-0x18(%rbp)
    1564:	8b 45 e8             	mov    -0x18(%rbp),%eax
    1567:	3b 45 e0             	cmp    -0x20(%rbp),%eax
    156a:	0f 8c b6 fd ff ff    	jl     1326 <try_place+0x1326>
    1570:	8b 45 e0             	mov    -0x20(%rbp),%eax
    1573:	01 45 ec             	add    %eax,-0x14(%rbp)
    1576:	66 0f ef c0          	pxor   %xmm0,%xmm0
    157a:	f3 0f 2a 45 e4       	cvtsi2ssl -0x1c(%rbp),%xmm0
    157f:	66 0f ef c9          	pxor   %xmm1,%xmm1
    1583:	f3 0f 2a 4d e0       	cvtsi2ssl -0x20(%rbp),%xmm1
    1588:	f3 0f 5e c1          	divss  %xmm1,%xmm0
    158c:	f3 0f 11 85 58 ff ff 	movss  %xmm0,-0xa8(%rbp)
    1593:	ff 
    1594:	83 7d e4 00          	cmpl   $0x0,-0x1c(%rbp)
    1598:	75 46                	jne    15e0 <try_place+0x15e0>
    159a:	f3 0f 10 85 3c ff ff 	movss  -0xc4(%rbp),%xmm0
    15a1:	ff 
    15a2:	f3 0f 5a f8          	cvtss2sd %xmm0,%xmm7
    15a6:	f2 0f 11 7d c0       	movsd  %xmm7,-0x40(%rbp)
    15ab:	f3 0f 10 85 34 ff ff 	movss  -0xcc(%rbp),%xmm0
    15b2:	ff 
    15b3:	f3 0f 5a e8          	cvtss2sd %xmm0,%xmm5
    15b7:	f2 0f 11 6d b8       	movsd  %xmm5,-0x48(%rbp)
    15bc:	f3 0f 10 85 2c ff ff 	movss  -0xd4(%rbp),%xmm0
    15c3:	ff 
    15c4:	f3 0f 5a f0          	cvtss2sd %xmm0,%xmm6
    15c8:	f2 0f 11 75 a8       	movsd  %xmm6,-0x58(%rbp)
    15cd:	f3 0f 10 85 38 ff ff 	movss  -0xc8(%rbp),%xmm0
    15d4:	ff 
    15d5:	f3 0f 5a f8          	cvtss2sd %xmm0,%xmm7
    15d9:	f2 0f 11 7d b0       	movsd  %xmm7,-0x50(%rbp)
    15de:	eb 6c                	jmp    164c <try_place+0x164c>
    15e0:	66 0f ef c0          	pxor   %xmm0,%xmm0
    15e4:	f2 0f 2a 45 e4       	cvtsi2sdl -0x1c(%rbp),%xmm0
    15e9:	f2 0f 10 4d c0       	movsd  -0x40(%rbp),%xmm1
    15ee:	f2 0f 5e c8          	divsd  %xmm0,%xmm1
    15f2:	66 0f 28 c1          	movapd %xmm1,%xmm0
    15f6:	f2 0f 11 45 c0       	movsd  %xmm0,-0x40(%rbp)
    15fb:	66 0f ef c0          	pxor   %xmm0,%xmm0
    15ff:	f2 0f 2a 45 e4       	cvtsi2sdl -0x1c(%rbp),%xmm0
    1604:	f2 0f 10 4d b8       	movsd  -0x48(%rbp),%xmm1
    1609:	f2 0f 5e c8          	divsd  %xmm0,%xmm1
    160d:	66 0f 28 c1          	movapd %xmm1,%xmm0
    1611:	f2 0f 11 45 b8       	movsd  %xmm0,-0x48(%rbp)
    1616:	66 0f ef c0          	pxor   %xmm0,%xmm0
    161a:	f2 0f 2a 45 e4       	cvtsi2sdl -0x1c(%rbp),%xmm0
    161f:	f2 0f 10 4d a8       	movsd  -0x58(%rbp),%xmm1
    1624:	f2 0f 5e c8          	divsd  %xmm0,%xmm1
    1628:	66 0f 28 c1          	movapd %xmm1,%xmm0
    162c:	f2 0f 11 45 a8       	movsd  %xmm0,-0x58(%rbp)
    1631:	66 0f ef c0          	pxor   %xmm0,%xmm0
    1635:	f2 0f 2a 45 e4       	cvtsi2sdl -0x1c(%rbp),%xmm0
    163a:	f2 0f 10 4d b0       	movsd  -0x50(%rbp),%xmm1
    163f:	f2 0f 5e c8          	divsd  %xmm0,%xmm1
    1643:	66 0f 28 c1          	movapd %xmm1,%xmm0
    1647:	f2 0f 11 45 b0       	movsd  %xmm0,-0x50(%rbp)
    164c:	f2 0f 10 45 c0       	movsd  -0x40(%rbp),%xmm0
    1651:	48 8b 55 a0          	mov    -0x60(%rbp),%rdx
    1655:	8b 45 e4             	mov    -0x1c(%rbp),%eax
    1658:	66 0f 28 c8          	movapd %xmm0,%xmm1
    165c:	48 89 95 a0 fd ff ff 	mov    %rdx,-0x260(%rbp)
    1663:	f2 0f 10 85 a0 fd ff 	movsd  -0x260(%rbp),%xmm0
    166a:	ff 
    166b:	89 c7                	mov    %eax,%edi
    166d:	e8 4f 06 00 00       	callq  1cc1 <get_std_dev>
    1672:	66 48 0f 7e c0       	movq   %xmm0,%rax
    1677:	48 89 85 50 ff ff ff 	mov    %rax,-0xb0(%rbp)
    167e:	f3 0f 5a 55 80       	cvtss2sd -0x80(%rbp),%xmm2
    1683:	f3 0f 10 85 40 ff ff 	movss  -0xc0(%rbp),%xmm0
    168a:	ff 
    168b:	f3 0f 5a c8          	cvtss2sd %xmm0,%xmm1
    168f:	f3 0f 5a ad 58 ff ff 	cvtss2sd -0xa8(%rbp),%xmm5
    1696:	ff 
    1697:	f3 0f 5a 65 d8       	cvtss2sd -0x28(%rbp),%xmm4
    169c:	f3 0f 5a 5d d4       	cvtss2sd -0x2c(%rbp),%xmm3
    16a1:	f3 0f 10 85 44 ff ff 	movss  -0xbc(%rbp),%xmm0
    16a8:	ff 
    16a9:	f3 0f 5a c0          	cvtss2sd %xmm0,%xmm0
    16ad:	8b 45 ec             	mov    -0x14(%rbp),%eax
    16b0:	f2 44 0f 10 5d a8    	movsd  -0x58(%rbp),%xmm11
    16b6:	f2 44 0f 10 55 b0    	movsd  -0x50(%rbp),%xmm10
    16bc:	f2 44 0f 10 4d b8    	movsd  -0x48(%rbp),%xmm9
    16c2:	f2 44 0f 10 45 c0    	movsd  -0x40(%rbp),%xmm8
    16c8:	48 83 ec 08          	sub    $0x8,%rsp
    16cc:	48 8d 64 24 f8       	lea    -0x8(%rsp),%rsp
    16d1:	f2 0f 11 14 24       	movsd  %xmm2,(%rsp)
    16d6:	48 8d 64 24 f8       	lea    -0x8(%rsp),%rsp
    16db:	f2 0f 11 0c 24       	movsd  %xmm1,(%rsp)
    16e0:	ff b5 50 ff ff ff    	pushq  -0xb0(%rbp)
    16e6:	89 c6                	mov    %eax,%esi
    16e8:	66 0f 28 fd          	movapd %xmm5,%xmm7
    16ec:	66 0f 28 f4          	movapd %xmm4,%xmm6
    16f0:	66 0f 28 eb          	movapd %xmm3,%xmm5
    16f4:	66 41 0f 28 e3       	movapd %xmm11,%xmm4
    16f9:	66 41 0f 28 da       	movapd %xmm10,%xmm3
    16fe:	66 41 0f 28 d1       	movapd %xmm9,%xmm2
    1703:	66 41 0f 28 c8       	movapd %xmm8,%xmm1
    1708:	48 8d 3d 00 00 00 00 	lea    0x0(%rip),%rdi        # 170f <try_place+0x170f>
    170f:	b8 08 00 00 00       	mov    $0x8,%eax
    1714:	e8 00 00 00 00       	callq  1719 <try_place+0x1719>
    1719:	48 83 c4 20          	add    $0x20,%rsp
    171d:	f3 0f 10 8d 2c ff ff 	movss  -0xd4(%rbp),%xmm1
    1724:	ff 
    1725:	8b 55 10             	mov    0x10(%rbp),%edx
    1728:	8b 4d 3c             	mov    0x3c(%rbp),%ecx
    172b:	8b 45 1c             	mov    0x1c(%rbp),%eax
    172e:	89 c7                	mov    %eax,%edi
    1730:	f3 0f 10 85 38 ff ff 	movss  -0xc8(%rbp),%xmm0
    1737:	ff 
    1738:	8b 85 34 ff ff ff    	mov    -0xcc(%rbp),%eax
    173e:	0f 28 d1             	movaps %xmm1,%xmm2
    1741:	89 ce                	mov    %ecx,%esi
    1743:	0f 28 c8             	movaps %xmm0,%xmm1
    1746:	89 85 a0 fd ff ff    	mov    %eax,-0x260(%rbp)
    174c:	f3 0f 10 85 a0 fd ff 	movss  -0x260(%rbp),%xmm0
    1753:	ff 
    1754:	e8 6e 78 00 00       	callq  8fc7 <check_place>
    1759:	8b 45 44             	mov    0x44(%rbp),%eax
    175c:	85 c0                	test   %eax,%eax
    175e:	0f 84 9b 00 00 00    	je     17ff <try_place+0x17ff>
    1764:	8b 45 10             	mov    0x10(%rbp),%eax
    1767:	85 c0                	test   %eax,%eax
    1769:	0f 85 90 00 00 00    	jne    17ff <try_place+0x17ff>
    176f:	c7 45 94 00 00 00 00 	movl   $0x0,-0x6c(%rbp)
    1776:	eb 63                	jmp    17db <try_place+0x17db>
    1778:	c7 45 90 01 00 00 00 	movl   $0x1,-0x70(%rbp)
    177f:	eb 30                	jmp    17b1 <try_place+0x17b1>
    1781:	48 8b 05 00 00 00 00 	mov    0x0(%rip),%rax        # 1788 <try_place+0x1788>
    1788:	8b 55 94             	mov    -0x6c(%rbp),%edx
    178b:	48 63 d2             	movslq %edx,%rdx
    178e:	48 c1 e2 03          	shl    $0x3,%rdx
    1792:	48 01 d0             	add    %rdx,%rax
    1795:	48 8b 00             	mov    (%rax),%rax
    1798:	8b 55 90             	mov    -0x70(%rbp),%edx
    179b:	48 63 d2             	movslq %edx,%rdx
    179e:	48 c1 e2 02          	shl    $0x2,%rdx
    17a2:	48 01 d0             	add    %rdx,%rax
    17a5:	66 0f ef c0          	pxor   %xmm0,%xmm0
    17a9:	f3 0f 11 00          	movss  %xmm0,(%rax)
    17ad:	83 45 90 01          	addl   $0x1,-0x70(%rbp)
    17b1:	48 8b 0d 00 00 00 00 	mov    0x0(%rip),%rcx        # 17b8 <try_place+0x17b8>
    17b8:	8b 45 94             	mov    -0x6c(%rbp),%eax
    17bb:	48 63 d0             	movslq %eax,%rdx
    17be:	48 89 d0             	mov    %rdx,%rax
    17c1:	48 c1 e0 02          	shl    $0x2,%rax
    17c5:	48 01 d0             	add    %rdx,%rax
    17c8:	48 c1 e0 03          	shl    $0x3,%rax
    17cc:	48 01 c8             	add    %rcx,%rax
    17cf:	8b 40 08             	mov    0x8(%rax),%eax
    17d2:	3b 45 90             	cmp    -0x70(%rbp),%eax
    17d5:	7d aa                	jge    1781 <try_place+0x1781>
    17d7:	83 45 94 01          	addl   $0x1,-0x6c(%rbp)
    17db:	8b 05 00 00 00 00    	mov    0x0(%rip),%eax        # 17e1 <try_place+0x17e1>
    17e1:	39 45 94             	cmp    %eax,-0x6c(%rbp)
    17e4:	7c 92                	jl     1778 <try_place+0x1778>
    17e6:	48 8d 95 2c ff ff ff 	lea    -0xd4(%rbp),%rdx
    17ed:	48 8d 85 38 ff ff ff 	lea    -0xc8(%rbp),%rax
    17f4:	48 89 d6             	mov    %rdx,%rsi
    17f7:	48 89 c7             	mov    %rax,%rdi
    17fa:	e8 ca 36 00 00       	callq  4ec9 <comp_td_costs>
    17ff:	8b 45 10             	mov    0x10(%rbp),%eax
    1802:	83 f8 01             	cmp    $0x1,%eax
    1805:	74 0f                	je     1816 <try_place+0x1816>
    1807:	8b 45 10             	mov    0x10(%rbp),%eax
    180a:	83 f8 02             	cmp    $0x2,%eax
    180d:	74 07                	je     1816 <try_place+0x1816>
    180f:	8b 45 44             	mov    0x44(%rbp),%eax
    1812:	85 c0                	test   %eax,%eax
    1814:	74 53                	je     1869 <try_place+0x1869>
    1816:	48 8b 05 00 00 00 00 	mov    0x0(%rip),%rax        # 181d <try_place+0x181d>
    181d:	48 89 85 d0 fd ff ff 	mov    %rax,-0x230(%rbp)
    1824:	48 8b 85 d0 fd ff ff 	mov    -0x230(%rbp),%rax
    182b:	48 89 c7             	mov    %rax,%rdi
    182e:	e8 00 00 00 00       	callq  1833 <try_place+0x1833>
    1833:	48 8b 85 d8 fd ff ff 	mov    -0x228(%rbp),%rax
    183a:	66 0f ef c0          	pxor   %xmm0,%xmm0
    183e:	48 89 c7             	mov    %rax,%rdi
    1841:	e8 00 00 00 00       	callq  1846 <try_place+0x1846>
    1846:	66 0f 7e c0          	movd   %xmm0,%eax
    184a:	89 85 48 ff ff ff    	mov    %eax,-0xb8(%rbp)
    1850:	f3 0f 5a 85 48 ff ff 	cvtss2sd -0xb8(%rbp),%xmm0
    1857:	ff 
    1858:	48 8d 3d 00 00 00 00 	lea    0x0(%rip),%rdi        # 185f <try_place+0x185f>
    185f:	b8 01 00 00 00       	mov    $0x1,%eax
    1864:	e8 00 00 00 00       	callq  1869 <try_place+0x1869>
    1869:	f3 0f 5a 5d d8       	cvtss2sd -0x28(%rbp),%xmm3
    186e:	f3 0f 10 85 38 ff ff 	movss  -0xc8(%rbp),%xmm0
    1875:	ff 
    1876:	f3 0f 5a d0          	cvtss2sd %xmm0,%xmm2
    187a:	f3 0f 10 85 34 ff ff 	movss  -0xcc(%rbp),%xmm0
    1881:	ff 
    1882:	f3 0f 5a c8          	cvtss2sd %xmm0,%xmm1
    1886:	f3 0f 10 85 3c ff ff 	movss  -0xc4(%rbp),%xmm0
    188d:	ff 
    188e:	f3 0f 5a c0          	cvtss2sd %xmm0,%xmm0
    1892:	8b 95 6c ff ff ff    	mov    -0x94(%rbp),%edx
    1898:	48 8d 85 e0 fd ff ff 	lea    -0x220(%rbp),%rax
    189f:	48 8d 35 00 00 00 00 	lea    0x0(%rip),%rsi        # 18a6 <try_place+0x18a6>
    18a6:	48 89 c7             	mov    %rax,%rdi
    18a9:	b8 04 00 00 00       	mov    $0x4,%eax
    18ae:	e8 00 00 00 00       	callq  18b3 <try_place+0x18b3>
    18b3:	f3 0f 10 85 2c ff ff 	movss  -0xd4(%rbp),%xmm0
    18ba:	ff 
    18bb:	f3 0f 5a d8          	cvtss2sd %xmm0,%xmm3
    18bf:	f3 0f 10 85 38 ff ff 	movss  -0xc8(%rbp),%xmm0
    18c6:	ff 
    18c7:	f3 0f 5a d0          	cvtss2sd %xmm0,%xmm2
    18cb:	f3 0f 10 85 34 ff ff 	movss  -0xcc(%rbp),%xmm0
    18d2:	ff 
    18d3:	f3 0f 5a c8          	cvtss2sd %xmm0,%xmm1
    18d7:	f3 0f 10 85 3c ff ff 	movss  -0xc4(%rbp),%xmm0
    18de:	ff 
    18df:	f3 0f 5a c0          	cvtss2sd %xmm0,%xmm0
    18e3:	48 8d 3d 00 00 00 00 	lea    0x0(%rip),%rdi        # 18ea <try_place+0x18ea>
    18ea:	b8 04 00 00 00       	mov    $0x4,%eax
    18ef:	e8 00 00 00 00       	callq  18f4 <try_place+0x18f4>
    18f4:	48 8d 85 e0 fd ff ff 	lea    -0x220(%rbp),%rax
    18fb:	b9 00 00 00 00       	mov    $0x0,%ecx
    1900:	ba 01 00 00 00       	mov    $0x1,%edx
    1905:	48 89 c6             	mov    %rax,%rsi
    1908:	bf 01 00 00 00       	mov    $0x1,%edi
    190d:	e8 00 00 00 00       	callq  1912 <try_place+0x1912>
    1912:	8b 45 10             	mov    0x10(%rbp),%eax
    1915:	83 f8 01             	cmp    $0x1,%eax
    1918:	74 0f                	je     1929 <try_place+0x1929>
    191a:	8b 45 10             	mov    0x10(%rbp),%eax
    191d:	83 f8 02             	cmp    $0x2,%eax
    1920:	74 07                	je     1929 <try_place+0x1929>
    1922:	8b 45 44             	mov    0x44(%rbp),%eax
    1925:	85 c0                	test   %eax,%eax
    1927:	74 67                	je     1990 <try_place+0x1990>
    1929:	48 8b 85 78 ff ff ff 	mov    -0x88(%rbp),%rax
    1930:	48 89 85 d0 fd ff ff 	mov    %rax,-0x230(%rbp)
    1937:	48 8b 8d 18 ff ff ff 	mov    -0xe8(%rbp),%rcx
    193e:	48 8b 95 20 ff ff ff 	mov    -0xe0(%rbp),%rdx
    1945:	8b 45 3c             	mov    0x3c(%rbp),%eax
    1948:	8b 75 1c             	mov    0x1c(%rbp),%esi
    194b:	89 f7                	mov    %esi,%edi
    194d:	48 83 ec 08          	sub    $0x8,%rsp
    1951:	ff 75 50             	pushq  0x50(%rbp)
    1954:	ff 75 48             	pushq  0x48(%rbp)
    1957:	ff 75 40             	pushq  0x40(%rbp)
    195a:	ff 75 38             	pushq  0x38(%rbp)
    195d:	ff 75 30             	pushq  0x30(%rbp)
    1960:	ff 75 28             	pushq  0x28(%rbp)
    1963:	ff 75 20             	pushq  0x20(%rbp)
    1966:	ff 75 18             	pushq  0x18(%rbp)
    1969:	ff 75 10             	pushq  0x10(%rbp)
    196c:	89 c6                	mov    %eax,%esi
    196e:	e8 77 42 00 00       	callq  5bea <free_placement_structs>
    1973:	48 83 c4 50          	add    $0x50,%rsp
    1977:	48 8d 95 d8 fd ff ff 	lea    -0x228(%rbp),%rdx
    197e:	48 8d 85 d0 fd ff ff 	lea    -0x230(%rbp),%rax
    1985:	48 89 d6             	mov    %rdx,%rsi
    1988:	48 89 c7             	mov    %rax,%rdi
    198b:	e8 00 00 00 00       	callq  1990 <try_place+0x1990>
    1990:	48 8b 85 a8 fd ff ff 	mov    -0x258(%rbp),%rax
    1997:	48 8b 00             	mov    (%rax),%rax
    199a:	48 85 c0             	test   %rax,%rax
    199d:	0f 84 8a 00 00 00    	je     1a2d <try_place+0x1a2d>
    19a3:	c7 45 94 00 00 00 00 	movl   $0x0,-0x6c(%rbp)
    19aa:	eb 64                	jmp    1a10 <try_place+0x1a10>
    19ac:	48 8b 85 a8 fd ff ff 	mov    -0x258(%rbp),%rax
    19b3:	48 8b 00             	mov    (%rax),%rax
    19b6:	8b 55 94             	mov    -0x6c(%rbp),%edx
    19b9:	48 63 d2             	movslq %edx,%rdx
    19bc:	48 c1 e2 03          	shl    $0x3,%rdx
    19c0:	48 01 d0             	add    %rdx,%rax
    19c3:	48 8b 00             	mov    (%rax),%rax
    19c6:	48 85 c0             	test   %rax,%rax
    19c9:	75 1f                	jne    19ea <try_place+0x19ea>
    19cb:	48 8d 0d 00 00 00 00 	lea    0x0(%rip),%rcx        # 19d2 <try_place+0x19d2>
    19d2:	ba c2 03 00 00       	mov    $0x3c2,%edx
    19d7:	48 8d 35 00 00 00 00 	lea    0x0(%rip),%rsi        # 19de <try_place+0x19de>
    19de:	48 8d 3d 00 00 00 00 	lea    0x0(%rip),%rdi        # 19e5 <try_place+0x19e5>
    19e5:	e8 00 00 00 00       	callq  19ea <try_place+0x19ea>
    19ea:	48 8b 85 a8 fd ff ff 	mov    -0x258(%rbp),%rax
    19f1:	48 8b 00             	mov    (%rax),%rax
    19f4:	8b 55 94             	mov    -0x6c(%rbp),%edx
    19f7:	48 63 d2             	movslq %edx,%rdx
    19fa:	48 c1 e2 03          	shl    $0x3,%rdx
    19fe:	48 01 d0             	add    %rdx,%rax
    1a01:	48 8b 00             	mov    (%rax),%rax
    1a04:	48 89 c7             	mov    %rax,%rdi
    1a07:	e8 00 00 00 00       	callq  1a0c <try_place+0x1a0c>
    1a0c:	83 45 94 01          	addl   $0x1,-0x6c(%rbp)
    1a10:	8b 05 00 00 00 00    	mov    0x0(%rip),%eax        # 1a16 <try_place+0x1a16>
    1a16:	39 45 94             	cmp    %eax,-0x6c(%rbp)
    1a19:	7c 91                	jl     19ac <try_place+0x19ac>
    1a1b:	48 8b 85 a8 fd ff ff 	mov    -0x258(%rbp),%rax
    1a22:	48 8b 00             	mov    (%rax),%rax
    1a25:	48 89 c7             	mov    %rax,%rdi
    1a28:	e8 00 00 00 00       	callq  1a2d <try_place+0x1a2d>
    1a2d:	8b 05 00 00 00 00    	mov    0x0(%rip),%eax        # 1a33 <try_place+0x1a33>
    1a33:	48 98                	cltq   
    1a35:	48 c1 e0 03          	shl    $0x3,%rax
    1a39:	48 89 c7             	mov    %rax,%rdi
    1a3c:	e8 00 00 00 00       	callq  1a41 <try_place+0x1a41>
    1a41:	48 89 c2             	mov    %rax,%rdx
    1a44:	48 8b 85 a8 fd ff ff 	mov    -0x258(%rbp),%rax
    1a4b:	48 89 10             	mov    %rdx,(%rax)
    1a4e:	c7 45 94 00 00 00 00 	movl   $0x0,-0x6c(%rbp)
    1a55:	eb 29                	jmp    1a80 <try_place+0x1a80>
    1a57:	48 8b 85 a8 fd ff ff 	mov    -0x258(%rbp),%rax
    1a5e:	48 8b 00             	mov    (%rax),%rax
    1a61:	8b 55 94             	mov    -0x6c(%rbp),%edx
    1a64:	48 63 d2             	movslq %edx,%rdx
    1a67:	48 c1 e2 03          	shl    $0x3,%rdx
    1a6b:	48 8d 1c 10          	lea    (%rax,%rdx,1),%rbx
    1a6f:	8b 45 94             	mov    -0x6c(%rbp),%eax
    1a72:	89 c7                	mov    %eax,%edi
    1a74:	e8 00 00 00 00       	callq  1a79 <try_place+0x1a79>
    1a79:	48 89 03             	mov    %rax,(%rbx)
    1a7c:	83 45 94 01          	addl   $0x1,-0x6c(%rbp)
    1a80:	8b 05 00 00 00 00    	mov    0x0(%rip),%eax        # 1a86 <try_place+0x1a86>
    1a86:	39 45 94             	cmp    %eax,-0x6c(%rbp)
    1a89:	7c cc                	jl     1a57 <try_place+0x1a57>
    1a8b:	48 8b 85 70 ff ff ff 	mov    -0x90(%rbp),%rax
    1a92:	48 89 c7             	mov    %rax,%rdi
    1a95:	e8 00 00 00 00       	callq  1a9a <try_place+0x1a9a>
    1a9a:	90                   	nop
    1a9b:	48 8b 5d f8          	mov    -0x8(%rbp),%rbx
    1a9f:	c9                   	leaveq 
    1aa0:	c3                   	retq   

0000000000001aa1 <count_connections>:
    1aa1:	55                   	push   %rbp
    1aa2:	48 89 e5             	mov    %rsp,%rbp
    1aa5:	48 83 ec 10          	sub    $0x10,%rsp
    1aa9:	ff 15 00 00 00 00    	callq  *0x0(%rip)        # 1aaf <count_connections+0xe>
    1aaf:	c7 45 fc 00 00 00 00 	movl   $0x0,-0x4(%rbp)
    1ab6:	c7 45 f8 00 00 00 00 	movl   $0x0,-0x8(%rbp)
    1abd:	eb 50                	jmp    1b0f <count_connections+0x6e>
    1abf:	48 8b 0d 00 00 00 00 	mov    0x0(%rip),%rcx        # 1ac6 <count_connections+0x25>
    1ac6:	8b 45 f8             	mov    -0x8(%rbp),%eax
    1ac9:	48 63 d0             	movslq %eax,%rdx
    1acc:	48 89 d0             	mov    %rdx,%rax
    1acf:	48 c1 e0 02          	shl    $0x2,%rax
    1ad3:	48 01 d0             	add    %rdx,%rax
    1ad6:	48 c1 e0 03          	shl    $0x3,%rax
    1ada:	48 01 c8             	add    %rcx,%rax
    1add:	8b 40 20             	mov    0x20(%rax),%eax
    1ae0:	85 c0                	test   %eax,%eax
    1ae2:	75 26                	jne    1b0a <count_connections+0x69>
    1ae4:	48 8b 0d 00 00 00 00 	mov    0x0(%rip),%rcx        # 1aeb <count_connections+0x4a>
    1aeb:	8b 45 f8             	mov    -0x8(%rbp),%eax
    1aee:	48 63 d0             	movslq %eax,%rdx
    1af1:	48 89 d0             	mov    %rdx,%rax
    1af4:	48 c1 e0 02          	shl    $0x2,%rax
    1af8:	48 01 d0             	add    %rdx,%rax
    1afb:	48 c1 e0 03          	shl    $0x3,%rax
    1aff:	48 01 c8             	add    %rcx,%rax
    1b02:	8b 40 08             	mov    0x8(%rax),%eax
    1b05:	01 45 fc             	add    %eax,-0x4(%rbp)
    1b08:	eb 01                	jmp    1b0b <count_connections+0x6a>
    1b0a:	90                   	nop
    1b0b:	83 45 f8 01          	addl   $0x1,-0x8(%rbp)
    1b0f:	8b 05 00 00 00 00    	mov    0x0(%rip),%eax        # 1b15 <count_connections+0x74>
    1b15:	39 45 f8             	cmp    %eax,-0x8(%rbp)
    1b18:	7c a5                	jl     1abf <count_connections+0x1e>
    1b1a:	8b 45 fc             	mov    -0x4(%rbp),%eax
    1b1d:	c9                   	leaveq 
    1b1e:	c3                   	retq   

0000000000001b1f <compute_net_pin_index_values>:
    1b1f:	55                   	push   %rbp
    1b20:	48 89 e5             	mov    %rsp,%rbp
    1b23:	48 83 ec 20          	sub    $0x20,%rsp
    1b27:	ff 15 00 00 00 00    	callq  *0x0(%rip)        # 1b2d <compute_net_pin_index_values+0xe>
    1b2d:	c7 45 f4 00 00 00 00 	movl   $0x0,-0xc(%rbp)
    1b34:	eb 6d                	jmp    1ba3 <compute_net_pin_index_values+0x84>
    1b36:	48 8b 0d 00 00 00 00 	mov    0x0(%rip),%rcx        # 1b3d <compute_net_pin_index_values+0x1e>
    1b3d:	8b 45 f4             	mov    -0xc(%rbp),%eax
    1b40:	48 63 d0             	movslq %eax,%rdx
    1b43:	48 89 d0             	mov    %rdx,%rax
    1b46:	48 c1 e0 02          	shl    $0x2,%rax
    1b4a:	48 01 d0             	add    %rdx,%rax
    1b4d:	48 c1 e0 03          	shl    $0x3,%rax
    1b51:	48 01 c8             	add    %rcx,%rax
    1b54:	48 8b 40 08          	mov    0x8(%rax),%rax
    1b58:	48 89 45 e8          	mov    %rax,-0x18(%rbp)
    1b5c:	c7 45 f0 00 00 00 00 	movl   $0x0,-0x10(%rbp)
    1b63:	eb 2e                	jmp    1b93 <compute_net_pin_index_values+0x74>
    1b65:	48 8b 05 00 00 00 00 	mov    0x0(%rip),%rax        # 1b6c <compute_net_pin_index_values+0x4d>
    1b6c:	8b 55 f4             	mov    -0xc(%rbp),%edx
    1b6f:	48 63 d2             	movslq %edx,%rdx
    1b72:	48 c1 e2 03          	shl    $0x3,%rdx
    1b76:	48 01 d0             	add    %rdx,%rax
    1b79:	48 8b 00             	mov    (%rax),%rax
    1b7c:	8b 55 f0             	mov    -0x10(%rbp),%edx
    1b7f:	48 63 d2             	movslq %edx,%rdx
    1b82:	48 c1 e2 02          	shl    $0x2,%rdx
    1b86:	48 01 d0             	add    %rdx,%rax
    1b89:	c7 00 ff ff ff ff    	movl   $0xffffffff,(%rax)
    1b8f:	83 45 f0 01          	addl   $0x1,-0x10(%rbp)
    1b93:	48 8b 45 e8          	mov    -0x18(%rbp),%rax
    1b97:	8b 40 08             	mov    0x8(%rax),%eax
    1b9a:	3b 45 f0             	cmp    -0x10(%rbp),%eax
    1b9d:	7f c6                	jg     1b65 <compute_net_pin_index_values+0x46>
    1b9f:	83 45 f4 01          	addl   $0x1,-0xc(%rbp)
    1ba3:	8b 05 00 00 00 00    	mov    0x0(%rip),%eax        # 1ba9 <compute_net_pin_index_values+0x8a>
    1ba9:	39 45 f4             	cmp    %eax,-0xc(%rbp)
    1bac:	7c 88                	jl     1b36 <compute_net_pin_index_values+0x17>
    1bae:	c7 45 fc 00 00 00 00 	movl   $0x0,-0x4(%rbp)
    1bb5:	e9 f5 00 00 00       	jmpq   1caf <compute_net_pin_index_values+0x190>
    1bba:	48 8b 0d 00 00 00 00 	mov    0x0(%rip),%rcx        # 1bc1 <compute_net_pin_index_values+0xa2>
    1bc1:	8b 45 fc             	mov    -0x4(%rbp),%eax
    1bc4:	48 63 d0             	movslq %eax,%rdx
    1bc7:	48 89 d0             	mov    %rdx,%rax
    1bca:	48 c1 e0 02          	shl    $0x2,%rax
    1bce:	48 01 d0             	add    %rdx,%rax
    1bd1:	48 c1 e0 03          	shl    $0x3,%rax
    1bd5:	48 01 c8             	add    %rcx,%rax
    1bd8:	8b 40 20             	mov    0x20(%rax),%eax
    1bdb:	85 c0                	test   %eax,%eax
    1bdd:	0f 85 c7 00 00 00    	jne    1caa <compute_net_pin_index_values+0x18b>
    1be3:	c7 45 f8 00 00 00 00 	movl   $0x0,-0x8(%rbp)
    1bea:	e9 8f 00 00 00       	jmpq   1c7e <compute_net_pin_index_values+0x15f>
    1bef:	48 8b 0d 00 00 00 00 	mov    0x0(%rip),%rcx        # 1bf6 <compute_net_pin_index_values+0xd7>
    1bf6:	8b 45 fc             	mov    -0x4(%rbp),%eax
    1bf9:	48 63 d0             	movslq %eax,%rdx
    1bfc:	48 89 d0             	mov    %rdx,%rax
    1bff:	48 c1 e0 02          	shl    $0x2,%rax
    1c03:	48 01 d0             	add    %rdx,%rax
    1c06:	48 c1 e0 03          	shl    $0x3,%rax
    1c0a:	48 01 c8             	add    %rcx,%rax
    1c0d:	48 8b 40 10          	mov    0x10(%rax),%rax
    1c11:	8b 55 f8             	mov    -0x8(%rbp),%edx
    1c14:	48 63 d2             	movslq %edx,%rdx
    1c17:	48 c1 e2 02          	shl    $0x2,%rdx
    1c1b:	48 01 d0             	add    %rdx,%rax
    1c1e:	8b 00                	mov    (%rax),%eax
    1c20:	89 45 e4             	mov    %eax,-0x1c(%rbp)
    1c23:	48 8b 05 00 00 00 00 	mov    0x0(%rip),%rax        # 1c2a <compute_net_pin_index_values+0x10b>
    1c2a:	8b 55 e4             	mov    -0x1c(%rbp),%edx
    1c2d:	48 63 d2             	movslq %edx,%rdx
    1c30:	48 c1 e2 03          	shl    $0x3,%rdx
    1c34:	48 01 d0             	add    %rdx,%rax
    1c37:	48 8b 08             	mov    (%rax),%rcx
    1c3a:	48 8b 35 00 00 00 00 	mov    0x0(%rip),%rsi        # 1c41 <compute_net_pin_index_values+0x122>
    1c41:	8b 45 fc             	mov    -0x4(%rbp),%eax
    1c44:	48 63 d0             	movslq %eax,%rdx
    1c47:	48 89 d0             	mov    %rdx,%rax
    1c4a:	48 c1 e0 02          	shl    $0x2,%rax
    1c4e:	48 01 d0             	add    %rdx,%rax
    1c51:	48 c1 e0 03          	shl    $0x3,%rax
    1c55:	48 01 f0             	add    %rsi,%rax
    1c58:	48 8b 40 18          	mov    0x18(%rax),%rax
    1c5c:	8b 55 f8             	mov    -0x8(%rbp),%edx
    1c5f:	48 63 d2             	movslq %edx,%rdx
    1c62:	48 c1 e2 02          	shl    $0x2,%rdx
    1c66:	48 01 d0             	add    %rdx,%rax
    1c69:	8b 00                	mov    (%rax),%eax
    1c6b:	48 98                	cltq   
    1c6d:	48 c1 e0 02          	shl    $0x2,%rax
    1c71:	48 8d 14 01          	lea    (%rcx,%rax,1),%rdx
    1c75:	8b 45 f8             	mov    -0x8(%rbp),%eax
    1c78:	89 02                	mov    %eax,(%rdx)
    1c7a:	83 45 f8 01          	addl   $0x1,-0x8(%rbp)
    1c7e:	48 8b 0d 00 00 00 00 	mov    0x0(%rip),%rcx        # 1c85 <compute_net_pin_index_values+0x166>
    1c85:	8b 45 fc             	mov    -0x4(%rbp),%eax
    1c88:	48 63 d0             	movslq %eax,%rdx
    1c8b:	48 89 d0             	mov    %rdx,%rax
    1c8e:	48 c1 e0 02          	shl    $0x2,%rax
    1c92:	48 01 d0             	add    %rdx,%rax
    1c95:	48 c1 e0 03          	shl    $0x3,%rax
    1c99:	48 01 c8             	add    %rcx,%rax
    1c9c:	8b 40 08             	mov    0x8(%rax),%eax
    1c9f:	3b 45 f8             	cmp    -0x8(%rbp),%eax
    1ca2:	0f 8d 47 ff ff ff    	jge    1bef <compute_net_pin_index_values+0xd0>
    1ca8:	eb 01                	jmp    1cab <compute_net_pin_index_values+0x18c>
    1caa:	90                   	nop
    1cab:	83 45 fc 01          	addl   $0x1,-0x4(%rbp)
    1caf:	8b 05 00 00 00 00    	mov    0x0(%rip),%eax        # 1cb5 <compute_net_pin_index_values+0x196>
    1cb5:	39 45 fc             	cmp    %eax,-0x4(%rbp)
    1cb8:	0f 8c fc fe ff ff    	jl     1bba <compute_net_pin_index_values+0x9b>
    1cbe:	90                   	nop
    1cbf:	c9                   	leaveq 
    1cc0:	c3                   	retq   

0000000000001cc1 <get_std_dev>:
    1cc1:	55                   	push   %rbp
    1cc2:	48 89 e5             	mov    %rsp,%rbp
    1cc5:	48 83 ec 30          	sub    $0x30,%rsp
    1cc9:	ff 15 00 00 00 00    	callq  *0x0(%rip)        # 1ccf <get_std_dev+0xe>
    1ccf:	89 7d ec             	mov    %edi,-0x14(%rbp)
    1cd2:	f2 0f 11 45 e0       	movsd  %xmm0,-0x20(%rbp)
    1cd7:	f2 0f 11 4d d8       	movsd  %xmm1,-0x28(%rbp)
    1cdc:	83 7d ec 01          	cmpl   $0x1,-0x14(%rbp)
    1ce0:	7f 0b                	jg     1ced <get_std_dev+0x2c>
    1ce2:	66 0f ef c0          	pxor   %xmm0,%xmm0
    1ce6:	f2 0f 11 45 f8       	movsd  %xmm0,-0x8(%rbp)
    1ceb:	eb 37                	jmp    1d24 <get_std_dev+0x63>
    1ced:	66 0f ef c0          	pxor   %xmm0,%xmm0
    1cf1:	f2 0f 2a 45 ec       	cvtsi2sdl -0x14(%rbp),%xmm0
    1cf6:	f2 0f 59 45 d8       	mulsd  -0x28(%rbp),%xmm0
    1cfb:	f2 0f 59 45 d8       	mulsd  -0x28(%rbp),%xmm0
    1d00:	f2 0f 10 4d e0       	movsd  -0x20(%rbp),%xmm1
    1d05:	f2 0f 5c c8          	subsd  %xmm0,%xmm1
    1d09:	66 0f 28 c1          	movapd %xmm1,%xmm0
    1d0d:	8b 45 ec             	mov    -0x14(%rbp),%eax
    1d10:	83 e8 01             	sub    $0x1,%eax
    1d13:	66 0f ef c9          	pxor   %xmm1,%xmm1
    1d17:	f2 0f 2a c8          	cvtsi2sd %eax,%xmm1
    1d1b:	f2 0f 5e c1          	divsd  %xmm1,%xmm0
    1d1f:	f2 0f 11 45 f8       	movsd  %xmm0,-0x8(%rbp)
    1d24:	f2 0f 10 45 f8       	movsd  -0x8(%rbp),%xmm0
    1d29:	66 0f ef c9          	pxor   %xmm1,%xmm1
    1d2d:	66 0f 2e c1          	ucomisd %xmm1,%xmm0
    1d31:	76 1d                	jbe    1d50 <get_std_dev+0x8f>
    1d33:	48 8b 45 f8          	mov    -0x8(%rbp),%rax
    1d37:	48 89 45 d0          	mov    %rax,-0x30(%rbp)
    1d3b:	f2 0f 10 45 d0       	movsd  -0x30(%rbp),%xmm0
    1d40:	e8 00 00 00 00       	callq  1d45 <get_std_dev+0x84>
    1d45:	66 48 0f 7e c0       	movq   %xmm0,%rax
    1d4a:	48 89 45 f8          	mov    %rax,-0x8(%rbp)
    1d4e:	eb 09                	jmp    1d59 <get_std_dev+0x98>
    1d50:	66 0f ef c0          	pxor   %xmm0,%xmm0
    1d54:	f2 0f 11 45 f8       	movsd  %xmm0,-0x8(%rbp)
    1d59:	f2 0f 10 45 f8       	movsd  -0x8(%rbp),%xmm0
    1d5e:	c9                   	leaveq 
    1d5f:	c3                   	retq   

0000000000001d60 <update_rlim>:
    1d60:	55                   	push   %rbp
    1d61:	48 89 e5             	mov    %rsp,%rbp
    1d64:	48 83 ec 20          	sub    $0x20,%rsp
    1d68:	ff 15 00 00 00 00    	callq  *0x0(%rip)        # 1d6e <update_rlim+0xe>
    1d6e:	48 89 7d e8          	mov    %rdi,-0x18(%rbp)
    1d72:	f3 0f 11 45 e4       	movss  %xmm0,-0x1c(%rbp)
    1d77:	48 8b 45 e8          	mov    -0x18(%rbp),%rax
    1d7b:	f3 0f 10 00          	movss  (%rax),%xmm0
    1d7f:	f3 0f 5a c8          	cvtss2sd %xmm0,%xmm1
    1d83:	f3 0f 5a 45 e4       	cvtss2sd -0x1c(%rbp),%xmm0
    1d88:	f2 0f 10 15 00 00 00 	movsd  0x0(%rip),%xmm2        # 1d90 <update_rlim+0x30>
    1d8f:	00 
    1d90:	f2 0f 58 c2          	addsd  %xmm2,%xmm0
    1d94:	f2 0f 59 c1          	mulsd  %xmm1,%xmm0
    1d98:	f2 0f 5a c0          	cvtsd2ss %xmm0,%xmm0
    1d9c:	48 8b 45 e8          	mov    -0x18(%rbp),%rax
    1da0:	f3 0f 11 00          	movss  %xmm0,(%rax)
    1da4:	8b 15 00 00 00 00    	mov    0x0(%rip),%edx        # 1daa <update_rlim+0x4a>
    1daa:	8b 05 00 00 00 00    	mov    0x0(%rip),%eax        # 1db0 <update_rlim+0x50>
    1db0:	39 c2                	cmp    %eax,%edx
    1db2:	0f 4d c2             	cmovge %edx,%eax
    1db5:	66 0f ef c0          	pxor   %xmm0,%xmm0
    1db9:	f3 0f 2a c0          	cvtsi2ss %eax,%xmm0
    1dbd:	f3 0f 11 45 fc       	movss  %xmm0,-0x4(%rbp)
    1dc2:	48 8b 45 e8          	mov    -0x18(%rbp),%rax
    1dc6:	f3 0f 10 00          	movss  (%rax),%xmm0
    1dca:	0f 2e 45 fc          	ucomiss -0x4(%rbp),%xmm0
    1dce:	76 07                	jbe    1dd7 <update_rlim+0x77>
    1dd0:	f3 0f 10 45 fc       	movss  -0x4(%rbp),%xmm0
    1dd5:	eb 08                	jmp    1ddf <update_rlim+0x7f>
    1dd7:	48 8b 45 e8          	mov    -0x18(%rbp),%rax
    1ddb:	f3 0f 10 00          	movss  (%rax),%xmm0
    1ddf:	48 8b 45 e8          	mov    -0x18(%rbp),%rax
    1de3:	f3 0f 11 00          	movss  %xmm0,(%rax)
    1de7:	48 8b 45 e8          	mov    -0x18(%rbp),%rax
    1deb:	f3 0f 10 00          	movss  (%rax),%xmm0
    1def:	f3 0f 10 0d 00 00 00 	movss  0x0(%rip),%xmm1        # 1df7 <update_rlim+0x97>
    1df6:	00 
    1df7:	0f 2e c1             	ucomiss %xmm1,%xmm0
    1dfa:	76 0a                	jbe    1e06 <update_rlim+0xa6>
    1dfc:	48 8b 45 e8          	mov    -0x18(%rbp),%rax
    1e00:	f3 0f 10 00          	movss  (%rax),%xmm0
    1e04:	eb 08                	jmp    1e0e <update_rlim+0xae>
    1e06:	f3 0f 10 05 00 00 00 	movss  0x0(%rip),%xmm0        # 1e0e <update_rlim+0xae>
    1e0d:	00 
    1e0e:	48 8b 45 e8          	mov    -0x18(%rbp),%rax
    1e12:	f3 0f 11 00          	movss  %xmm0,(%rax)
    1e16:	90                   	nop
    1e17:	c9                   	leaveq 
    1e18:	c3                   	retq   

0000000000001e19 <update_t>:
    1e19:	55                   	push   %rbp
    1e1a:	48 89 e5             	mov    %rsp,%rbp
    1e1d:	48 83 ec 18          	sub    $0x18,%rsp
    1e21:	ff 15 00 00 00 00    	callq  *0x0(%rip)        # 1e27 <update_t+0xe>
    1e27:	48 89 7d f8          	mov    %rdi,-0x8(%rbp)
    1e2b:	f3 0f 11 45 f4       	movss  %xmm0,-0xc(%rbp)
    1e30:	f3 0f 11 4d f0       	movss  %xmm1,-0x10(%rbp)
    1e35:	f3 0f 11 55 ec       	movss  %xmm2,-0x14(%rbp)
    1e3a:	8b 45 10             	mov    0x10(%rbp),%eax
    1e3d:	83 f8 01             	cmp    $0x1,%eax
    1e40:	75 1e                	jne    1e60 <update_t+0x47>
    1e42:	f3 0f 10 4d 1c       	movss  0x1c(%rbp),%xmm1
    1e47:	48 8b 45 f8          	mov    -0x8(%rbp),%rax
    1e4b:	f3 0f 10 00          	movss  (%rax),%xmm0
    1e4f:	f3 0f 59 c1          	mulss  %xmm1,%xmm0
    1e53:	48 8b 45 f8          	mov    -0x8(%rbp),%rax
    1e57:	f3 0f 11 00          	movss  %xmm0,(%rax)
    1e5b:	e9 d0 00 00 00       	jmpq   1f30 <update_t+0x117>
    1e60:	f3 0f 5a 45 ec       	cvtss2sd -0x14(%rbp),%xmm0
    1e65:	66 0f 2e 05 00 00 00 	ucomisd 0x0(%rip),%xmm0        # 1e6d <update_t+0x54>
    1e6c:	00 
    1e6d:	76 21                	jbe    1e90 <update_t+0x77>
    1e6f:	48 8b 45 f8          	mov    -0x8(%rbp),%rax
    1e73:	f3 0f 10 08          	movss  (%rax),%xmm1
    1e77:	f3 0f 10 05 00 00 00 	movss  0x0(%rip),%xmm0        # 1e7f <update_t+0x66>
    1e7e:	00 
    1e7f:	f3 0f 59 c1          	mulss  %xmm1,%xmm0
    1e83:	48 8b 45 f8          	mov    -0x8(%rbp),%rax
    1e87:	f3 0f 11 00          	movss  %xmm0,(%rax)
    1e8b:	e9 a0 00 00 00       	jmpq   1f30 <update_t+0x117>
    1e90:	f3 0f 5a 45 ec       	cvtss2sd -0x14(%rbp),%xmm0
    1e95:	66 0f 2e 05 00 00 00 	ucomisd 0x0(%rip),%xmm0        # 1e9d <update_t+0x84>
    1e9c:	00 
    1e9d:	76 26                	jbe    1ec5 <update_t+0xac>
    1e9f:	48 8b 45 f8          	mov    -0x8(%rbp),%rax
    1ea3:	f3 0f 10 00          	movss  (%rax),%xmm0
    1ea7:	f3 0f 5a c0          	cvtss2sd %xmm0,%xmm0
    1eab:	f2 0f 10 0d 00 00 00 	movsd  0x0(%rip),%xmm1        # 1eb3 <update_t+0x9a>
    1eb2:	00 
    1eb3:	f2 0f 59 c1          	mulsd  %xmm1,%xmm0
    1eb7:	f2 0f 5a c0          	cvtsd2ss %xmm0,%xmm0
    1ebb:	48 8b 45 f8          	mov    -0x8(%rbp),%rax
    1ebf:	f3 0f 11 00          	movss  %xmm0,(%rax)
    1ec3:	eb 6b                	jmp    1f30 <update_t+0x117>
    1ec5:	f3 0f 5a 45 ec       	cvtss2sd -0x14(%rbp),%xmm0
    1eca:	66 0f 2e 05 00 00 00 	ucomisd 0x0(%rip),%xmm0        # 1ed2 <update_t+0xb9>
    1ed1:	00 
    1ed2:	77 12                	ja     1ee6 <update_t+0xcd>
    1ed4:	f3 0f 10 45 f0       	movss  -0x10(%rbp),%xmm0
    1ed9:	f3 0f 10 0d 00 00 00 	movss  0x0(%rip),%xmm1        # 1ee1 <update_t+0xc8>
    1ee0:	00 
    1ee1:	0f 2e c1             	ucomiss %xmm1,%xmm0
    1ee4:	76 26                	jbe    1f0c <update_t+0xf3>
    1ee6:	48 8b 45 f8          	mov    -0x8(%rbp),%rax
    1eea:	f3 0f 10 00          	movss  (%rax),%xmm0
    1eee:	f3 0f 5a c0          	cvtss2sd %xmm0,%xmm0
    1ef2:	f2 0f 10 0d 00 00 00 	movsd  0x0(%rip),%xmm1        # 1efa <update_t+0xe1>
    1ef9:	00 
    1efa:	f2 0f 59 c1          	mulsd  %xmm1,%xmm0
    1efe:	f2 0f 5a c0          	cvtsd2ss %xmm0,%xmm0
    1f02:	48 8b 45 f8          	mov    -0x8(%rbp),%rax
    1f06:	f3 0f 11 00          	movss  %xmm0,(%rax)
    1f0a:	eb 24                	jmp    1f30 <update_t+0x117>
    1f0c:	48 8b 45 f8          	mov    -0x8(%rbp),%rax
    1f10:	f3 0f 10 00          	movss  (%rax),%xmm0
    1f14:	f3 0f 5a c0          	cvtss2sd %xmm0,%xmm0
    1f18:	f2 0f 10 0d 00 00 00 	movsd  0x0(%rip),%xmm1        # 1f20 <update_t+0x107>
    1f1f:	00 
    1f20:	f2 0f 59 c1          	mulsd  %xmm1,%xmm0
    1f24:	f2 0f 5a c0          	cvtsd2ss %xmm0,%xmm0
    1f28:	48 8b 45 f8          	mov    -0x8(%rbp),%rax
    1f2c:	f3 0f 11 00          	movss  %xmm0,(%rax)
    1f30:	90                   	nop
    1f31:	c9                   	leaveq 
    1f32:	c3                   	retq   

0000000000001f33 <exit_crit>:
    1f33:	55                   	push   %rbp
    1f34:	48 89 e5             	mov    %rsp,%rbp
    1f37:	48 83 ec 08          	sub    $0x8,%rsp
    1f3b:	ff 15 00 00 00 00    	callq  *0x0(%rip)        # 1f41 <exit_crit+0xe>
    1f41:	f3 0f 11 45 fc       	movss  %xmm0,-0x4(%rbp)
    1f46:	f3 0f 11 4d f8       	movss  %xmm1,-0x8(%rbp)
    1f4b:	8b 45 10             	mov    0x10(%rbp),%eax
    1f4e:	83 f8 01             	cmp    $0x1,%eax
    1f51:	75 19                	jne    1f6c <exit_crit+0x39>
    1f53:	f3 0f 10 45 20       	movss  0x20(%rbp),%xmm0
    1f58:	0f 2e 45 fc          	ucomiss -0x4(%rbp),%xmm0
    1f5c:	76 07                	jbe    1f65 <exit_crit+0x32>
    1f5e:	b8 01 00 00 00       	mov    $0x1,%eax
    1f63:	eb 41                	jmp    1fa6 <exit_crit+0x73>
    1f65:	b8 00 00 00 00       	mov    $0x0,%eax
    1f6a:	eb 3a                	jmp    1fa6 <exit_crit+0x73>
    1f6c:	f3 0f 5a 4d fc       	cvtss2sd -0x4(%rbp),%xmm1
    1f71:	f3 0f 5a 45 f8       	cvtss2sd -0x8(%rbp),%xmm0
    1f76:	f2 0f 10 15 00 00 00 	movsd  0x0(%rip),%xmm2        # 1f7e <exit_crit+0x4b>
    1f7d:	00 
    1f7e:	f2 0f 59 c2          	mulsd  %xmm2,%xmm0
    1f82:	8b 05 00 00 00 00    	mov    0x0(%rip),%eax        # 1f88 <exit_crit+0x55>
    1f88:	66 0f ef d2          	pxor   %xmm2,%xmm2
    1f8c:	f2 0f 2a d0          	cvtsi2sd %eax,%xmm2
    1f90:	f2 0f 5e c2          	divsd  %xmm2,%xmm0
    1f94:	66 0f 2e c1          	ucomisd %xmm1,%xmm0
    1f98:	76 07                	jbe    1fa1 <exit_crit+0x6e>
    1f9a:	b8 01 00 00 00       	mov    $0x1,%eax
    1f9f:	eb 05                	jmp    1fa6 <exit_crit+0x73>
    1fa1:	b8 00 00 00 00       	mov    $0x0,%eax
    1fa6:	c9                   	leaveq 
    1fa7:	c3                   	retq   

0000000000001fa8 <starting_t>:
    1fa8:	55                   	push   %rbp
    1fa9:	48 89 e5             	mov    %rsp,%rbp
    1fac:	48 83 c4 80          	add    $0xffffffffffffff80,%rsp
    1fb0:	ff 15 00 00 00 00    	callq  *0x0(%rip)        # 1fb6 <starting_t+0xe>
    1fb6:	48 89 7d c8          	mov    %rdi,-0x38(%rbp)
    1fba:	48 89 75 c0          	mov    %rsi,-0x40(%rbp)
    1fbe:	48 89 55 b8          	mov    %rdx,-0x48(%rbp)
    1fc2:	89 4d b4             	mov    %ecx,-0x4c(%rbp)
    1fc5:	4c 89 45 a8          	mov    %r8,-0x58(%rbp)
    1fc9:	4c 89 4d a0          	mov    %r9,-0x60(%rbp)
    1fcd:	f3 0f 11 45 b0       	movss  %xmm0,-0x50(%rbp)
    1fd2:	f3 0f 11 4d 9c       	movss  %xmm1,-0x64(%rbp)
    1fd7:	f3 0f 11 55 98       	movss  %xmm2,-0x68(%rbp)
    1fdc:	f3 0f 11 5d 94       	movss  %xmm3,-0x6c(%rbp)
    1fe1:	8b 05 00 00 00 00    	mov    0x0(%rip),%eax        # 1fe7 <starting_t+0x3f>
    1fe7:	48 98                	cltq   
    1fe9:	48 c1 e0 02          	shl    $0x2,%rax
    1fed:	48 89 c7             	mov    %rax,%rdi
    1ff0:	e8 00 00 00 00       	callq  1ff5 <starting_t+0x4d>
    1ff5:	48 89 45 e0          	mov    %rax,-0x20(%rbp)
    1ff9:	8b 45 20             	mov    0x20(%rbp),%eax
    1ffc:	83 f8 01             	cmp    $0x1,%eax
    1fff:	75 0a                	jne    200b <starting_t+0x63>
    2001:	f3 0f 10 45 28       	movss  0x28(%rbp),%xmm0
    2006:	e9 86 01 00 00       	jmpq   2191 <starting_t+0x1e9>
    200b:	8b 05 00 00 00 00    	mov    0x0(%rip),%eax        # 2011 <starting_t+0x69>
    2011:	39 45 38             	cmp    %eax,0x38(%rbp)
    2014:	0f 4e 45 38          	cmovle 0x38(%rbp),%eax
    2018:	89 45 dc             	mov    %eax,-0x24(%rbp)
    201b:	c7 45 f8 00 00 00 00 	movl   $0x0,-0x8(%rbp)
    2022:	66 0f ef c0          	pxor   %xmm0,%xmm0
    2026:	f2 0f 11 45 f0       	movsd  %xmm0,-0x10(%rbp)
    202b:	66 0f ef c0          	pxor   %xmm0,%xmm0
    202f:	f2 0f 11 45 e8       	movsd  %xmm0,-0x18(%rbp)
    2034:	c7 45 fc 00 00 00 00 	movl   $0x0,-0x4(%rbp)
    203b:	e9 ae 00 00 00       	jmpq   20ee <starting_t+0x146>
    2040:	f3 0f 10 5d 94       	movss  -0x6c(%rbp),%xmm3
    2045:	f3 0f 10 55 98       	movss  -0x68(%rbp),%xmm2
    204a:	f3 0f 10 4d 9c       	movss  -0x64(%rbp),%xmm1
    204f:	4c 8b 4d a0          	mov    -0x60(%rbp),%r9
    2053:	4c 8b 45 a8          	mov    -0x58(%rbp),%r8
    2057:	8b 4d b4             	mov    -0x4c(%rbp),%ecx
    205a:	f3 0f 10 45 b0       	movss  -0x50(%rbp),%xmm0
    205f:	48 8b 55 b8          	mov    -0x48(%rbp),%rdx
    2063:	48 8b 75 c0          	mov    -0x40(%rbp),%rsi
    2067:	48 8b 45 c8          	mov    -0x38(%rbp),%rax
    206b:	48 83 ec 08          	sub    $0x8,%rsp
    206f:	ff 75 e0             	pushq  -0x20(%rbp)
    2072:	ff 75 48             	pushq  0x48(%rbp)
    2075:	8b 7d 40             	mov    0x40(%rbp),%edi
    2078:	57                   	push   %rdi
    2079:	8b 7d 18             	mov    0x18(%rbp),%edi
    207c:	57                   	push   %rdi
    207d:	8b 7d 10             	mov    0x10(%rbp),%edi
    2080:	57                   	push   %rdi
    2081:	0f 28 e3             	movaps %xmm3,%xmm4
    2084:	0f 28 da             	movaps %xmm2,%xmm3
    2087:	0f 28 d1             	movaps %xmm1,%xmm2
    208a:	0f 28 c8             	movaps %xmm0,%xmm1
    208d:	48 89 c7             	mov    %rax,%rdi
    2090:	f3 0f 10 05 00 00 00 	movss  0x0(%rip),%xmm0        # 2098 <starting_t+0xf0>
    2097:	00 
    2098:	e8 f6 00 00 00       	callq  2193 <try_swap>
    209d:	48 83 c4 30          	add    $0x30,%rsp
    20a1:	83 f8 01             	cmp    $0x1,%eax
    20a4:	75 44                	jne    20ea <starting_t+0x142>
    20a6:	83 45 f8 01          	addl   $0x1,-0x8(%rbp)
    20aa:	48 8b 45 c8          	mov    -0x38(%rbp),%rax
    20ae:	f3 0f 10 00          	movss  (%rax),%xmm0
    20b2:	f3 0f 5a c0          	cvtss2sd %xmm0,%xmm0
    20b6:	f2 0f 10 4d f0       	movsd  -0x10(%rbp),%xmm1
    20bb:	f2 0f 58 c1          	addsd  %xmm1,%xmm0
    20bf:	f2 0f 11 45 f0       	movsd  %xmm0,-0x10(%rbp)
    20c4:	48 8b 45 c8          	mov    -0x38(%rbp),%rax
    20c8:	f3 0f 10 08          	movss  (%rax),%xmm1
    20cc:	48 8b 45 c8          	mov    -0x38(%rbp),%rax
    20d0:	f3 0f 10 00          	movss  (%rax),%xmm0
    20d4:	f3 0f 59 c1          	mulss  %xmm1,%xmm0
    20d8:	f3 0f 5a c0          	cvtss2sd %xmm0,%xmm0
    20dc:	f2 0f 10 4d e8       	movsd  -0x18(%rbp),%xmm1
    20e1:	f2 0f 58 c1          	addsd  %xmm1,%xmm0
    20e5:	f2 0f 11 45 e8       	movsd  %xmm0,-0x18(%rbp)
    20ea:	83 45 fc 01          	addl   $0x1,-0x4(%rbp)
    20ee:	8b 45 fc             	mov    -0x4(%rbp),%eax
    20f1:	3b 45 dc             	cmp    -0x24(%rbp),%eax
    20f4:	0f 8c 46 ff ff ff    	jl     2040 <starting_t+0x98>
    20fa:	83 7d f8 00          	cmpl   $0x0,-0x8(%rbp)
    20fe:	74 1d                	je     211d <starting_t+0x175>
    2100:	66 0f ef c0          	pxor   %xmm0,%xmm0
    2104:	f2 0f 2a 45 f8       	cvtsi2sdl -0x8(%rbp),%xmm0
    2109:	f2 0f 10 4d f0       	movsd  -0x10(%rbp),%xmm1
    210e:	f2 0f 5e c8          	divsd  %xmm0,%xmm1
    2112:	66 0f 28 c1          	movapd %xmm1,%xmm0
    2116:	f2 0f 11 45 f0       	movsd  %xmm0,-0x10(%rbp)
    211b:	eb 09                	jmp    2126 <starting_t+0x17e>
    211d:	66 0f ef c0          	pxor   %xmm0,%xmm0
    2121:	f2 0f 11 45 f0       	movsd  %xmm0,-0x10(%rbp)
    2126:	f2 0f 10 45 f0       	movsd  -0x10(%rbp),%xmm0
    212b:	48 8b 55 e8          	mov    -0x18(%rbp),%rdx
    212f:	8b 45 f8             	mov    -0x8(%rbp),%eax
    2132:	66 0f 28 c8          	movapd %xmm0,%xmm1
    2136:	48 89 55 88          	mov    %rdx,-0x78(%rbp)
    213a:	f2 0f 10 45 88       	movsd  -0x78(%rbp),%xmm0
    213f:	89 c7                	mov    %eax,%edi
    2141:	e8 7b fb ff ff       	callq  1cc1 <get_std_dev>
    2146:	66 48 0f 7e c0       	movq   %xmm0,%rax
    214b:	48 89 45 d0          	mov    %rax,-0x30(%rbp)
    214f:	8b 45 f8             	mov    -0x8(%rbp),%eax
    2152:	3b 45 dc             	cmp    -0x24(%rbp),%eax
    2155:	74 19                	je     2170 <starting_t+0x1c8>
    2157:	8b 55 dc             	mov    -0x24(%rbp),%edx
    215a:	8b 45 f8             	mov    -0x8(%rbp),%eax
    215d:	89 c6                	mov    %eax,%esi
    215f:	48 8d 3d 00 00 00 00 	lea    0x0(%rip),%rdi        # 2166 <starting_t+0x1be>
    2166:	b8 00 00 00 00       	mov    $0x0,%eax
    216b:	e8 00 00 00 00       	callq  2170 <starting_t+0x1c8>
    2170:	48 8b 45 e0          	mov    -0x20(%rbp),%rax
    2174:	48 89 c7             	mov    %rax,%rdi
    2177:	e8 00 00 00 00       	callq  217c <starting_t+0x1d4>
    217c:	f2 0f 10 4d d0       	movsd  -0x30(%rbp),%xmm1
    2181:	f2 0f 10 05 00 00 00 	movsd  0x0(%rip),%xmm0        # 2189 <starting_t+0x1e1>
    2188:	00 
    2189:	f2 0f 59 c1          	mulsd  %xmm1,%xmm0
    218d:	f2 0f 5a c0          	cvtsd2ss %xmm0,%xmm0
    2191:	c9                   	leaveq 
    2192:	c3                   	retq   

0000000000002193 <try_swap>:
    2193:	55                   	push   %rbp
    2194:	48 89 e5             	mov    %rsp,%rbp
    2197:	53                   	push   %rbx
    2198:	48 81 ec b8 00 00 00 	sub    $0xb8,%rsp
    219f:	ff 15 00 00 00 00    	callq  *0x0(%rip)        # 21a5 <try_swap+0x12>
    21a5:	f3 0f 11 45 8c       	movss  %xmm0,-0x74(%rbp)
    21aa:	48 89 7d 80          	mov    %rdi,-0x80(%rbp)
    21ae:	48 89 b5 78 ff ff ff 	mov    %rsi,-0x88(%rbp)
    21b5:	48 89 95 70 ff ff ff 	mov    %rdx,-0x90(%rbp)
    21bc:	f3 0f 11 4d 88       	movss  %xmm1,-0x78(%rbp)
    21c1:	89 8d 6c ff ff ff    	mov    %ecx,-0x94(%rbp)
    21c7:	4c 89 85 60 ff ff ff 	mov    %r8,-0xa0(%rbp)
    21ce:	4c 89 8d 58 ff ff ff 	mov    %r9,-0xa8(%rbp)
    21d5:	f3 0f 11 95 68 ff ff 	movss  %xmm2,-0x98(%rbp)
    21dc:	ff 
    21dd:	f3 0f 11 9d 54 ff ff 	movss  %xmm3,-0xac(%rbp)
    21e4:	ff 
    21e5:	f3 0f 11 a5 50 ff ff 	movss  %xmm4,-0xb0(%rbp)
    21ec:	ff 
    21ed:	c7 45 d8 00 00 00 00 	movl   $0x0,-0x28(%rbp)
    21f4:	c7 45 e0 00 00 00 00 	movl   $0x0,-0x20(%rbp)
    21fb:	eb 36                	jmp    2233 <try_swap+0xa0>
    21fd:	48 8b 0d 00 00 00 00 	mov    0x0(%rip),%rcx        # 2204 <try_swap+0x71>
    2204:	8b 45 e0             	mov    -0x20(%rbp),%eax
    2207:	48 63 d0             	movslq %eax,%rdx
    220a:	48 89 d0             	mov    %rdx,%rax
    220d:	48 c1 e0 03          	shl    $0x3,%rax
    2211:	48 01 d0             	add    %rdx,%rax
    2214:	48 01 c0             	add    %rax,%rax
    2217:	48 01 d0             	add    %rdx,%rax
    221a:	48 c1 e0 03          	shl    $0x3,%rax
    221e:	48 01 c8             	add    %rcx,%rax
    2221:	8b 50 08             	mov    0x8(%rax),%edx
    2224:	8b 45 d8             	mov    -0x28(%rbp),%eax
    2227:	39 c2                	cmp    %eax,%edx
    2229:	0f 4d c2             	cmovge %edx,%eax
    222c:	89 45 d8             	mov    %eax,-0x28(%rbp)
    222f:	83 45 e0 01          	addl   $0x1,-0x20(%rbp)
    2233:	8b 05 00 00 00 00    	mov    0x0(%rip),%eax        # 2239 <try_swap+0xa6>
    2239:	39 45 e0             	cmp    %eax,-0x20(%rbp)
    223c:	7c bf                	jl     21fd <try_swap+0x6a>
    223e:	48 8b 05 00 00 00 00 	mov    0x0(%rip),%rax        # 2245 <try_swap+0xb2>
    2245:	48 85 c0             	test   %rax,%rax
    2248:	75 60                	jne    22aa <try_swap+0x117>
    224a:	8b 45 d8             	mov    -0x28(%rbp),%eax
    224d:	48 98                	cltq   
    224f:	48 c1 e0 05          	shl    $0x5,%rax
    2253:	48 89 c7             	mov    %rax,%rdi
    2256:	e8 00 00 00 00       	callq  225b <try_swap+0xc8>
    225b:	48 89 05 00 00 00 00 	mov    %rax,0x0(%rip)        # 2262 <try_swap+0xcf>
    2262:	8b 45 d8             	mov    -0x28(%rbp),%eax
    2265:	48 98                	cltq   
    2267:	48 c1 e0 05          	shl    $0x5,%rax
    226b:	48 89 c7             	mov    %rax,%rdi
    226e:	e8 00 00 00 00       	callq  2273 <try_swap+0xe0>
    2273:	48 89 05 00 00 00 00 	mov    %rax,0x0(%rip)        # 227a <try_swap+0xe7>
    227a:	8b 45 d8             	mov    -0x28(%rbp),%eax
    227d:	48 98                	cltq   
    227f:	48 c1 e0 03          	shl    $0x3,%rax
    2283:	48 89 c7             	mov    %rax,%rdi
    2286:	e8 00 00 00 00       	callq  228b <try_swap+0xf8>
    228b:	48 89 05 00 00 00 00 	mov    %rax,0x0(%rip)        # 2292 <try_swap+0xff>
    2292:	8b 45 d8             	mov    -0x28(%rbp),%eax
    2295:	48 98                	cltq   
    2297:	48 c1 e0 03          	shl    $0x3,%rax
    229b:	48 89 c7             	mov    %rax,%rdi
    229e:	e8 00 00 00 00       	callq  22a3 <try_swap+0x110>
    22a3:	48 89 05 00 00 00 00 	mov    %rax,0x0(%rip)        # 22aa <try_swap+0x117>
    22aa:	66 0f ef c0          	pxor   %xmm0,%xmm0
    22ae:	f3 0f 11 45 9c       	movss  %xmm0,-0x64(%rbp)
    22b3:	8b 05 00 00 00 00    	mov    0x0(%rip),%eax        # 22b9 <try_swap+0x126>
    22b9:	83 e8 01             	sub    $0x1,%eax
    22bc:	89 c7                	mov    %eax,%edi
    22be:	e8 00 00 00 00       	callq  22c3 <try_swap+0x130>
    22c3:	89 45 ec             	mov    %eax,-0x14(%rbp)
    22c6:	83 7d 18 01          	cmpl   $0x1,0x18(%rbp)
    22ca:	75 43                	jne    230f <try_swap+0x17c>
    22cc:	eb 13                	jmp    22e1 <try_swap+0x14e>
    22ce:	8b 05 00 00 00 00    	mov    0x0(%rip),%eax        # 22d4 <try_swap+0x141>
    22d4:	83 e8 01             	sub    $0x1,%eax
    22d7:	89 c7                	mov    %eax,%edi
    22d9:	e8 00 00 00 00       	callq  22de <try_swap+0x14b>
    22de:	89 45 ec             	mov    %eax,-0x14(%rbp)
    22e1:	48 8b 0d 00 00 00 00 	mov    0x0(%rip),%rcx        # 22e8 <try_swap+0x155>
    22e8:	8b 45 ec             	mov    -0x14(%rbp),%eax
    22eb:	48 63 d0             	movslq %eax,%rdx
    22ee:	48 89 d0             	mov    %rdx,%rax
    22f1:	48 c1 e0 02          	shl    $0x2,%rax
    22f5:	48 01 d0             	add    %rdx,%rax
    22f8:	48 c1 e0 03          	shl    $0x3,%rax
    22fc:	48 01 c8             	add    %rcx,%rax
    22ff:	48 8b 50 08          	mov    0x8(%rax),%rdx
    2303:	48 8b 05 00 00 00 00 	mov    0x0(%rip),%rax        # 230a <try_swap+0x177>
    230a:	48 39 c2             	cmp    %rax,%rdx
    230d:	74 bf                	je     22ce <try_swap+0x13b>
    230f:	48 8b 0d 00 00 00 00 	mov    0x0(%rip),%rcx        # 2316 <try_swap+0x183>
    2316:	8b 45 ec             	mov    -0x14(%rbp),%eax
    2319:	48 63 d0             	movslq %eax,%rdx
    231c:	48 89 d0             	mov    %rdx,%rax
    231f:	48 c1 e0 02          	shl    $0x2,%rax
    2323:	48 01 d0             	add    %rdx,%rax
    2326:	48 c1 e0 03          	shl    $0x3,%rax
    232a:	48 01 c8             	add    %rcx,%rax
    232d:	8b 40 18             	mov    0x18(%rax),%eax
    2330:	89 45 c8             	mov    %eax,-0x38(%rbp)
    2333:	48 8b 0d 00 00 00 00 	mov    0x0(%rip),%rcx        # 233a <try_swap+0x1a7>
    233a:	8b 45 ec             	mov    -0x14(%rbp),%eax
    233d:	48 63 d0             	movslq %eax,%rdx
    2340:	48 89 d0             	mov    %rdx,%rax
    2343:	48 c1 e0 02          	shl    $0x2,%rax
    2347:	48 01 d0             	add    %rdx,%rax
    234a:	48 c1 e0 03          	shl    $0x3,%rax
    234e:	48 01 c8             	add    %rcx,%rax
    2351:	8b 40 1c             	mov    0x1c(%rax),%eax
    2354:	89 45 c4             	mov    %eax,-0x3c(%rbp)
    2357:	48 8b 0d 00 00 00 00 	mov    0x0(%rip),%rcx        # 235e <try_swap+0x1cb>
    235e:	8b 45 ec             	mov    -0x14(%rbp),%eax
    2361:	48 63 d0             	movslq %eax,%rdx
    2364:	48 89 d0             	mov    %rdx,%rax
    2367:	48 c1 e0 02          	shl    $0x2,%rax
    236b:	48 01 d0             	add    %rdx,%rax
    236e:	48 c1 e0 03          	shl    $0x3,%rax
    2372:	48 01 c8             	add    %rcx,%rax
    2375:	8b 40 20             	mov    0x20(%rax),%eax
    2378:	89 45 c0             	mov    %eax,-0x40(%rbp)
    237b:	48 8b 0d 00 00 00 00 	mov    0x0(%rip),%rcx        # 2382 <try_swap+0x1ef>
    2382:	8b 45 ec             	mov    -0x14(%rbp),%eax
    2385:	48 63 d0             	movslq %eax,%rdx
    2388:	48 89 d0             	mov    %rdx,%rax
    238b:	48 c1 e0 02          	shl    $0x2,%rax
    238f:	48 01 d0             	add    %rdx,%rax
    2392:	48 c1 e0 03          	shl    $0x3,%rax
    2396:	48 01 c8             	add    %rcx,%rax
    2399:	48 8b 50 08          	mov    0x8(%rax),%rdx
    239d:	4c 8d 4d a4          	lea    -0x5c(%rbp),%r9
    23a1:	4c 8d 45 a8          	lea    -0x58(%rbp),%r8
    23a5:	48 8b 4d 30          	mov    0x30(%rbp),%rcx
    23a9:	8b 7d 88             	mov    -0x78(%rbp),%edi
    23ac:	8b 75 c4             	mov    -0x3c(%rbp),%esi
    23af:	8b 45 c8             	mov    -0x38(%rbp),%eax
    23b2:	89 bd 4c ff ff ff    	mov    %edi,-0xb4(%rbp)
    23b8:	f3 0f 10 85 4c ff ff 	movss  -0xb4(%rbp),%xmm0
    23bf:	ff 
    23c0:	89 c7                	mov    %eax,%edi
    23c2:	e8 19 0f 00 00       	callq  32e0 <find_to>
    23c7:	85 c0                	test   %eax,%eax
    23c9:	75 0a                	jne    23d5 <try_swap+0x242>
    23cb:	b8 00 00 00 00       	mov    $0x0,%eax
    23d0:	e9 44 0a 00 00       	jmpq   2e19 <try_swap+0xc86>
    23d5:	c7 45 e8 00 00 00 00 	movl   $0x0,-0x18(%rbp)
    23dc:	48 8b 05 00 00 00 00 	mov    0x0(%rip),%rax        # 23e3 <try_swap+0x250>
    23e3:	8b 55 a8             	mov    -0x58(%rbp),%edx
    23e6:	48 63 d2             	movslq %edx,%rdx
    23e9:	48 c1 e2 03          	shl    $0x3,%rdx
    23ed:	48 01 d0             	add    %rdx,%rax
    23f0:	48 8b 08             	mov    (%rax),%rcx
    23f3:	8b 45 a4             	mov    -0x5c(%rbp),%eax
    23f6:	48 63 d0             	movslq %eax,%rdx
    23f9:	48 89 d0             	mov    %rdx,%rax
    23fc:	48 01 c0             	add    %rax,%rax
    23ff:	48 01 d0             	add    %rdx,%rax
    2402:	48 c1 e0 03          	shl    $0x3,%rax
    2406:	48 01 c8             	add    %rcx,%rax
    2409:	48 8b 00             	mov    (%rax),%rax
    240c:	8b 40 0c             	mov    0xc(%rax),%eax
    240f:	83 f8 01             	cmp    $0x1,%eax
    2412:	7e 40                	jle    2454 <try_swap+0x2c1>
    2414:	48 8b 05 00 00 00 00 	mov    0x0(%rip),%rax        # 241b <try_swap+0x288>
    241b:	8b 55 a8             	mov    -0x58(%rbp),%edx
    241e:	48 63 d2             	movslq %edx,%rdx
    2421:	48 c1 e2 03          	shl    $0x3,%rdx
    2425:	48 01 d0             	add    %rdx,%rax
    2428:	48 8b 08             	mov    (%rax),%rcx
    242b:	8b 45 a4             	mov    -0x5c(%rbp),%eax
    242e:	48 63 d0             	movslq %eax,%rdx
    2431:	48 89 d0             	mov    %rdx,%rax
    2434:	48 01 c0             	add    %rax,%rax
    2437:	48 01 d0             	add    %rdx,%rax
    243a:	48 c1 e0 03          	shl    $0x3,%rax
    243e:	48 01 c8             	add    %rcx,%rax
    2441:	48 8b 00             	mov    (%rax),%rax
    2444:	8b 40 0c             	mov    0xc(%rax),%eax
    2447:	83 e8 01             	sub    $0x1,%eax
    244a:	89 c7                	mov    %eax,%edi
    244c:	e8 00 00 00 00       	callq  2451 <try_swap+0x2be>
    2451:	89 45 e8             	mov    %eax,-0x18(%rbp)
    2454:	48 8b 05 00 00 00 00 	mov    0x0(%rip),%rax        # 245b <try_swap+0x2c8>
    245b:	8b 55 a8             	mov    -0x58(%rbp),%edx
    245e:	48 63 d2             	movslq %edx,%rdx
    2461:	48 c1 e2 03          	shl    $0x3,%rdx
    2465:	48 01 d0             	add    %rdx,%rax
    2468:	48 8b 08             	mov    (%rax),%rcx
    246b:	8b 45 a4             	mov    -0x5c(%rbp),%eax
    246e:	48 63 d0             	movslq %eax,%rdx
    2471:	48 89 d0             	mov    %rdx,%rax
    2474:	48 01 c0             	add    %rax,%rax
    2477:	48 01 d0             	add    %rdx,%rax
    247a:	48 c1 e0 03          	shl    $0x3,%rax
    247e:	48 01 c8             	add    %rcx,%rax
    2481:	48 8b 40 10          	mov    0x10(%rax),%rax
    2485:	8b 55 e8             	mov    -0x18(%rbp),%edx
    2488:	48 63 d2             	movslq %edx,%rdx
    248b:	48 c1 e2 02          	shl    $0x2,%rdx
    248f:	48 01 d0             	add    %rdx,%rax
    2492:	8b 00                	mov    (%rax),%eax
    2494:	83 f8 ff             	cmp    $0xffffffff,%eax
    2497:	75 7b                	jne    2514 <try_swap+0x381>
    2499:	c7 45 e4 ff ff ff ff 	movl   $0xffffffff,-0x1c(%rbp)
    24a0:	48 8b 0d 00 00 00 00 	mov    0x0(%rip),%rcx        # 24a7 <try_swap+0x314>
    24a7:	8b 45 ec             	mov    -0x14(%rbp),%eax
    24aa:	48 63 d0             	movslq %eax,%rdx
    24ad:	48 89 d0             	mov    %rdx,%rax
    24b0:	48 c1 e0 02          	shl    $0x2,%rax
    24b4:	48 01 d0             	add    %rdx,%rax
    24b7:	48 c1 e0 03          	shl    $0x3,%rax
    24bb:	48 8d 14 01          	lea    (%rcx,%rax,1),%rdx
    24bf:	8b 45 a8             	mov    -0x58(%rbp),%eax
    24c2:	89 42 18             	mov    %eax,0x18(%rdx)
    24c5:	48 8b 0d 00 00 00 00 	mov    0x0(%rip),%rcx        # 24cc <try_swap+0x339>
    24cc:	8b 45 ec             	mov    -0x14(%rbp),%eax
    24cf:	48 63 d0             	movslq %eax,%rdx
    24d2:	48 89 d0             	mov    %rdx,%rax
    24d5:	48 c1 e0 02          	shl    $0x2,%rax
    24d9:	48 01 d0             	add    %rdx,%rax
    24dc:	48 c1 e0 03          	shl    $0x3,%rax
    24e0:	48 8d 14 01          	lea    (%rcx,%rax,1),%rdx
    24e4:	8b 45 a4             	mov    -0x5c(%rbp),%eax
    24e7:	89 42 1c             	mov    %eax,0x1c(%rdx)
    24ea:	48 8b 0d 00 00 00 00 	mov    0x0(%rip),%rcx        # 24f1 <try_swap+0x35e>
    24f1:	8b 45 ec             	mov    -0x14(%rbp),%eax
    24f4:	48 63 d0             	movslq %eax,%rdx
    24f7:	48 89 d0             	mov    %rdx,%rax
    24fa:	48 c1 e0 02          	shl    $0x2,%rax
    24fe:	48 01 d0             	add    %rdx,%rax
    2501:	48 c1 e0 03          	shl    $0x3,%rax
    2505:	48 8d 14 01          	lea    (%rcx,%rax,1),%rdx
    2509:	8b 45 e8             	mov    -0x18(%rbp),%eax
    250c:	89 42 20             	mov    %eax,0x20(%rdx)
    250f:	e9 21 01 00 00       	jmpq   2635 <try_swap+0x4a2>
    2514:	48 8b 05 00 00 00 00 	mov    0x0(%rip),%rax        # 251b <try_swap+0x388>
    251b:	8b 55 a8             	mov    -0x58(%rbp),%edx
    251e:	48 63 d2             	movslq %edx,%rdx
    2521:	48 c1 e2 03          	shl    $0x3,%rdx
    2525:	48 01 d0             	add    %rdx,%rax
    2528:	48 8b 08             	mov    (%rax),%rcx
    252b:	8b 45 a4             	mov    -0x5c(%rbp),%eax
    252e:	48 63 d0             	movslq %eax,%rdx
    2531:	48 89 d0             	mov    %rdx,%rax
    2534:	48 01 c0             	add    %rax,%rax
    2537:	48 01 d0             	add    %rdx,%rax
    253a:	48 c1 e0 03          	shl    $0x3,%rax
    253e:	48 01 c8             	add    %rcx,%rax
    2541:	48 8b 40 10          	mov    0x10(%rax),%rax
    2545:	8b 55 e8             	mov    -0x18(%rbp),%edx
    2548:	48 63 d2             	movslq %edx,%rdx
    254b:	48 c1 e2 02          	shl    $0x2,%rdx
    254f:	48 01 d0             	add    %rdx,%rax
    2552:	8b 00                	mov    (%rax),%eax
    2554:	89 45 e4             	mov    %eax,-0x1c(%rbp)
    2557:	48 8b 0d 00 00 00 00 	mov    0x0(%rip),%rcx        # 255e <try_swap+0x3cb>
    255e:	8b 45 e4             	mov    -0x1c(%rbp),%eax
    2561:	48 63 d0             	movslq %eax,%rdx
    2564:	48 89 d0             	mov    %rdx,%rax
    2567:	48 c1 e0 02          	shl    $0x2,%rax
    256b:	48 01 d0             	add    %rdx,%rax
    256e:	48 c1 e0 03          	shl    $0x3,%rax
    2572:	48 8d 14 01          	lea    (%rcx,%rax,1),%rdx
    2576:	8b 45 c8             	mov    -0x38(%rbp),%eax
    2579:	89 42 18             	mov    %eax,0x18(%rdx)
    257c:	48 8b 0d 00 00 00 00 	mov    0x0(%rip),%rcx        # 2583 <try_swap+0x3f0>
    2583:	8b 45 e4             	mov    -0x1c(%rbp),%eax
    2586:	48 63 d0             	movslq %eax,%rdx
    2589:	48 89 d0             	mov    %rdx,%rax
    258c:	48 c1 e0 02          	shl    $0x2,%rax
    2590:	48 01 d0             	add    %rdx,%rax
    2593:	48 c1 e0 03          	shl    $0x3,%rax
    2597:	48 8d 14 01          	lea    (%rcx,%rax,1),%rdx
    259b:	8b 45 c4             	mov    -0x3c(%rbp),%eax
    259e:	89 42 1c             	mov    %eax,0x1c(%rdx)
    25a1:	48 8b 0d 00 00 00 00 	mov    0x0(%rip),%rcx        # 25a8 <try_swap+0x415>
    25a8:	8b 45 e4             	mov    -0x1c(%rbp),%eax
    25ab:	48 63 d0             	movslq %eax,%rdx
    25ae:	48 89 d0             	mov    %rdx,%rax
    25b1:	48 c1 e0 02          	shl    $0x2,%rax
    25b5:	48 01 d0             	add    %rdx,%rax
    25b8:	48 c1 e0 03          	shl    $0x3,%rax
    25bc:	48 8d 14 01          	lea    (%rcx,%rax,1),%rdx
    25c0:	8b 45 c0             	mov    -0x40(%rbp),%eax
    25c3:	89 42 20             	mov    %eax,0x20(%rdx)
    25c6:	48 8b 0d 00 00 00 00 	mov    0x0(%rip),%rcx        # 25cd <try_swap+0x43a>
    25cd:	8b 45 ec             	mov    -0x14(%rbp),%eax
    25d0:	48 63 d0             	movslq %eax,%rdx
    25d3:	48 89 d0             	mov    %rdx,%rax
    25d6:	48 c1 e0 02          	shl    $0x2,%rax
    25da:	48 01 d0             	add    %rdx,%rax
    25dd:	48 c1 e0 03          	shl    $0x3,%rax
    25e1:	48 8d 14 01          	lea    (%rcx,%rax,1),%rdx
    25e5:	8b 45 a8             	mov    -0x58(%rbp),%eax
    25e8:	89 42 18             	mov    %eax,0x18(%rdx)
    25eb:	48 8b 0d 00 00 00 00 	mov    0x0(%rip),%rcx        # 25f2 <try_swap+0x45f>
    25f2:	8b 45 ec             	mov    -0x14(%rbp),%eax
    25f5:	48 63 d0             	movslq %eax,%rdx
    25f8:	48 89 d0             	mov    %rdx,%rax
    25fb:	48 c1 e0 02          	shl    $0x2,%rax
    25ff:	48 01 d0             	add    %rdx,%rax
    2602:	48 c1 e0 03          	shl    $0x3,%rax
    2606:	48 8d 14 01          	lea    (%rcx,%rax,1),%rdx
    260a:	8b 45 a4             	mov    -0x5c(%rbp),%eax
    260d:	89 42 1c             	mov    %eax,0x1c(%rdx)
    2610:	48 8b 0d 00 00 00 00 	mov    0x0(%rip),%rcx        # 2617 <try_swap+0x484>
    2617:	8b 45 ec             	mov    -0x14(%rbp),%eax
    261a:	48 63 d0             	movslq %eax,%rdx
    261d:	48 89 d0             	mov    %rdx,%rax
    2620:	48 c1 e0 02          	shl    $0x2,%rax
    2624:	48 01 d0             	add    %rdx,%rax
    2627:	48 c1 e0 03          	shl    $0x3,%rax
    262b:	48 8d 14 01          	lea    (%rcx,%rax,1),%rdx
    262f:	8b 45 e8             	mov    -0x18(%rbp),%eax
    2632:	89 42 20             	mov    %eax,0x20(%rdx)
    2635:	66 0f ef c0          	pxor   %xmm0,%xmm0
    2639:	f3 0f 11 45 d0       	movss  %xmm0,-0x30(%rbp)
    263e:	66 0f ef c0          	pxor   %xmm0,%xmm0
    2642:	f3 0f 11 45 cc       	movss  %xmm0,-0x34(%rbp)
    2647:	66 0f ef c0          	pxor   %xmm0,%xmm0
    264b:	f3 0f 11 45 a0       	movss  %xmm0,-0x60(%rbp)
    2650:	48 8b 0d 00 00 00 00 	mov    0x0(%rip),%rcx        # 2657 <try_swap+0x4c4>
    2657:	8b 45 ec             	mov    -0x14(%rbp),%eax
    265a:	48 63 d0             	movslq %eax,%rdx
    265d:	48 89 d0             	mov    %rdx,%rax
    2660:	48 c1 e0 02          	shl    $0x2,%rax
    2664:	48 01 d0             	add    %rdx,%rax
    2667:	48 c1 e0 03          	shl    $0x3,%rax
    266b:	48 01 c8             	add    %rcx,%rax
    266e:	48 8b 40 08          	mov    0x8(%rax),%rax
    2672:	8b 40 08             	mov    0x8(%rax),%eax
    2675:	89 45 bc             	mov    %eax,-0x44(%rbp)
    2678:	48 8b 35 00 00 00 00 	mov    0x0(%rip),%rsi        # 267f <try_swap+0x4ec>
    267f:	48 8b 05 00 00 00 00 	mov    0x0(%rip),%rax        # 2686 <try_swap+0x4f3>
    2686:	8b 7d bc             	mov    -0x44(%rbp),%edi
    2689:	8b 4d e4             	mov    -0x1c(%rbp),%ecx
    268c:	8b 55 ec             	mov    -0x14(%rbp),%edx
    268f:	41 89 f8             	mov    %edi,%r8d
    2692:	48 89 c7             	mov    %rax,%rdi
    2695:	e8 73 09 00 00       	callq  300d <find_affected_nets>
    269a:	89 45 b8             	mov    %eax,-0x48(%rbp)
    269d:	83 bd 6c ff ff ff 01 	cmpl   $0x1,-0x94(%rbp)
    26a4:	75 1c                	jne    26c2 <try_swap+0x52f>
    26a6:	48 8b 8d 58 ff ff ff 	mov    -0xa8(%rbp),%rcx
    26ad:	48 8b 85 60 ff ff ff 	mov    -0xa0(%rbp),%rax
    26b4:	8b 55 10             	mov    0x10(%rbp),%edx
    26b7:	48 89 ce             	mov    %rcx,%rsi
    26ba:	48 89 c7             	mov    %rax,%rdi
    26bd:	e8 5d 07 00 00       	callq  2e1f <save_region_occ>
    26c2:	c7 45 d4 00 00 00 00 	movl   $0x0,-0x2c(%rbp)
    26c9:	c7 45 dc 00 00 00 00 	movl   $0x0,-0x24(%rbp)
    26d0:	e9 26 02 00 00       	jmpq   28fb <try_swap+0x768>
    26d5:	48 8b 05 00 00 00 00 	mov    0x0(%rip),%rax        # 26dc <try_swap+0x549>
    26dc:	8b 55 dc             	mov    -0x24(%rbp),%edx
    26df:	48 63 d2             	movslq %edx,%rdx
    26e2:	48 c1 e2 02          	shl    $0x2,%rdx
    26e6:	48 01 d0             	add    %rdx,%rax
    26e9:	8b 00                	mov    (%rax),%eax
    26eb:	89 45 b4             	mov    %eax,-0x4c(%rbp)
    26ee:	48 8b 05 00 00 00 00 	mov    0x0(%rip),%rax        # 26f5 <try_swap+0x562>
    26f5:	8b 55 dc             	mov    -0x24(%rbp),%edx
    26f8:	48 63 d2             	movslq %edx,%rdx
    26fb:	48 c1 e2 02          	shl    $0x2,%rdx
    26ff:	48 01 d0             	add    %rdx,%rax
    2702:	8b 00                	mov    (%rax),%eax
    2704:	83 f8 02             	cmp    $0x2,%eax
    2707:	0f 84 e9 01 00 00    	je     28f6 <try_swap+0x763>
    270d:	48 8b 0d 00 00 00 00 	mov    0x0(%rip),%rcx        # 2714 <try_swap+0x581>
    2714:	8b 45 b4             	mov    -0x4c(%rbp),%eax
    2717:	48 63 d0             	movslq %eax,%rdx
    271a:	48 89 d0             	mov    %rdx,%rax
    271d:	48 c1 e0 02          	shl    $0x2,%rax
    2721:	48 01 d0             	add    %rdx,%rax
    2724:	48 c1 e0 03          	shl    $0x3,%rax
    2728:	48 01 c8             	add    %rcx,%rax
    272b:	8b 40 08             	mov    0x8(%rax),%eax
    272e:	83 f8 03             	cmp    $0x3,%eax
    2731:	7f 26                	jg     2759 <try_swap+0x5c6>
    2733:	48 8b 05 00 00 00 00 	mov    0x0(%rip),%rax        # 273a <try_swap+0x5a7>
    273a:	8b 55 d4             	mov    -0x2c(%rbp),%edx
    273d:	48 63 d2             	movslq %edx,%rdx
    2740:	48 c1 e2 04          	shl    $0x4,%rdx
    2744:	48 01 c2             	add    %rax,%rdx
    2747:	8b 45 b4             	mov    -0x4c(%rbp),%eax
    274a:	48 89 d6             	mov    %rdx,%rsi
    274d:	89 c7                	mov    %eax,%edi
    274f:	e8 b1 4f 00 00       	callq  7705 <get_non_updateable_bb>
    2754:	e9 bc 00 00 00       	jmpq   2815 <try_swap+0x682>
    2759:	48 8b 05 00 00 00 00 	mov    0x0(%rip),%rax        # 2760 <try_swap+0x5cd>
    2760:	8b 55 dc             	mov    -0x24(%rbp),%edx
    2763:	48 63 d2             	movslq %edx,%rdx
    2766:	48 c1 e2 02          	shl    $0x2,%rdx
    276a:	48 01 d0             	add    %rdx,%rax
    276d:	8b 00                	mov    (%rax),%eax
    276f:	85 c0                	test   %eax,%eax
    2771:	75 52                	jne    27c5 <try_swap+0x632>
    2773:	8b 4d a4             	mov    -0x5c(%rbp),%ecx
    2776:	44 8b 4d a8          	mov    -0x58(%rbp),%r9d
    277a:	48 8b 05 00 00 00 00 	mov    0x0(%rip),%rax        # 2781 <try_swap+0x5ee>
    2781:	8b 55 d4             	mov    -0x2c(%rbp),%edx
    2784:	48 63 d2             	movslq %edx,%rdx
    2787:	48 c1 e2 04          	shl    $0x4,%rdx
    278b:	48 8d 3c 10          	lea    (%rax,%rdx,1),%rdi
    278f:	48 8b 05 00 00 00 00 	mov    0x0(%rip),%rax        # 2796 <try_swap+0x603>
    2796:	8b 55 d4             	mov    -0x2c(%rbp),%edx
    2799:	48 63 d2             	movslq %edx,%rdx
    279c:	48 c1 e2 04          	shl    $0x4,%rdx
    27a0:	48 8d 34 10          	lea    (%rax,%rdx,1),%rsi
    27a4:	44 8b 45 c4          	mov    -0x3c(%rbp),%r8d
    27a8:	8b 55 c8             	mov    -0x38(%rbp),%edx
    27ab:	8b 45 b4             	mov    -0x4c(%rbp),%eax
    27ae:	48 83 ec 08          	sub    $0x8,%rsp
    27b2:	51                   	push   %rcx
    27b3:	89 d1                	mov    %edx,%ecx
    27b5:	48 89 fa             	mov    %rdi,%rdx
    27b8:	89 c7                	mov    %eax,%edi
    27ba:	e8 94 51 00 00       	callq  7953 <update_bb>
    27bf:	48 83 c4 10          	add    $0x10,%rsp
    27c3:	eb 50                	jmp    2815 <try_swap+0x682>
    27c5:	44 8b 45 a4          	mov    -0x5c(%rbp),%r8d
    27c9:	8b 55 a8             	mov    -0x58(%rbp),%edx
    27cc:	48 8b 05 00 00 00 00 	mov    0x0(%rip),%rax        # 27d3 <try_swap+0x640>
    27d3:	8b 4d d4             	mov    -0x2c(%rbp),%ecx
    27d6:	48 63 c9             	movslq %ecx,%rcx
    27d9:	48 c1 e1 04          	shl    $0x4,%rcx
    27dd:	48 8d 3c 08          	lea    (%rax,%rcx,1),%rdi
    27e1:	48 8b 05 00 00 00 00 	mov    0x0(%rip),%rax        # 27e8 <try_swap+0x655>
    27e8:	8b 4d d4             	mov    -0x2c(%rbp),%ecx
    27eb:	48 63 c9             	movslq %ecx,%rcx
    27ee:	48 c1 e1 04          	shl    $0x4,%rcx
    27f2:	48 8d 34 08          	lea    (%rax,%rcx,1),%rsi
    27f6:	44 8b 4d c8          	mov    -0x38(%rbp),%r9d
    27fa:	8b 45 b4             	mov    -0x4c(%rbp),%eax
    27fd:	48 83 ec 08          	sub    $0x8,%rsp
    2801:	8b 4d c4             	mov    -0x3c(%rbp),%ecx
    2804:	51                   	push   %rcx
    2805:	89 d1                	mov    %edx,%ecx
    2807:	48 89 fa             	mov    %rdi,%rdx
    280a:	89 c7                	mov    %eax,%edi
    280c:	e8 42 51 00 00       	callq  7953 <update_bb>
    2811:	48 83 c4 10          	add    $0x10,%rsp
    2815:	83 bd 6c ff ff ff 01 	cmpl   $0x1,-0x94(%rbp)
    281c:	0f 84 80 00 00 00    	je     28a2 <try_swap+0x70f>
    2822:	48 8b 05 00 00 00 00 	mov    0x0(%rip),%rax        # 2829 <try_swap+0x696>
    2829:	8b 55 b4             	mov    -0x4c(%rbp),%edx
    282c:	48 63 d2             	movslq %edx,%rdx
    282f:	48 c1 e2 02          	shl    $0x2,%rdx
    2833:	48 8d 1c 10          	lea    (%rax,%rdx,1),%rbx
    2837:	48 8b 05 00 00 00 00 	mov    0x0(%rip),%rax        # 283e <try_swap+0x6ab>
    283e:	8b 55 d4             	mov    -0x2c(%rbp),%edx
    2841:	48 63 d2             	movslq %edx,%rdx
    2844:	48 c1 e2 04          	shl    $0x4,%rdx
    2848:	48 01 c2             	add    %rax,%rdx
    284b:	8b 45 b4             	mov    -0x4c(%rbp),%eax
    284e:	48 89 d6             	mov    %rdx,%rsi
    2851:	89 c7                	mov    %eax,%edi
    2853:	e8 1c 4d 00 00       	callq  7574 <get_net_cost>
    2858:	66 0f 7e c0          	movd   %xmm0,%eax
    285c:	89 03                	mov    %eax,(%rbx)
    285e:	48 8b 05 00 00 00 00 	mov    0x0(%rip),%rax        # 2865 <try_swap+0x6d2>
    2865:	8b 55 b4             	mov    -0x4c(%rbp),%edx
    2868:	48 63 d2             	movslq %edx,%rdx
    286b:	48 c1 e2 02          	shl    $0x2,%rdx
    286f:	48 01 d0             	add    %rdx,%rax
    2872:	f3 0f 10 00          	movss  (%rax),%xmm0
    2876:	48 8b 05 00 00 00 00 	mov    0x0(%rip),%rax        # 287d <try_swap+0x6ea>
    287d:	8b 55 b4             	mov    -0x4c(%rbp),%edx
    2880:	48 63 d2             	movslq %edx,%rdx
    2883:	48 c1 e2 02          	shl    $0x2,%rdx
    2887:	48 01 d0             	add    %rdx,%rax
    288a:	f3 0f 10 08          	movss  (%rax),%xmm1
    288e:	f3 0f 5c c1          	subss  %xmm1,%xmm0
    2892:	f3 0f 10 4d cc       	movss  -0x34(%rbp),%xmm1
    2897:	f3 0f 58 c1          	addss  %xmm1,%xmm0
    289b:	f3 0f 11 45 cc       	movss  %xmm0,-0x34(%rbp)
    28a0:	eb 4e                	jmp    28f0 <try_swap+0x75d>
    28a2:	48 8b 05 00 00 00 00 	mov    0x0(%rip),%rax        # 28a9 <try_swap+0x716>
    28a9:	8b 55 b4             	mov    -0x4c(%rbp),%edx
    28ac:	48 63 d2             	movslq %edx,%rdx
    28af:	48 c1 e2 04          	shl    $0x4,%rdx
    28b3:	48 8d 34 10          	lea    (%rax,%rdx,1),%rsi
    28b7:	8b 45 b4             	mov    -0x4c(%rbp),%eax
    28ba:	8b 4d 10             	mov    0x10(%rbp),%ecx
    28bd:	ba ff ff ff ff       	mov    $0xffffffff,%edx
    28c2:	89 c7                	mov    %eax,%edi
    28c4:	e8 39 2d 00 00       	callq  5602 <update_region_occ>
    28c9:	48 8b 05 00 00 00 00 	mov    0x0(%rip),%rax        # 28d0 <try_swap+0x73d>
    28d0:	8b 55 d4             	mov    -0x2c(%rbp),%edx
    28d3:	48 63 d2             	movslq %edx,%rdx
    28d6:	48 c1 e2 04          	shl    $0x4,%rdx
    28da:	48 8d 34 10          	lea    (%rax,%rdx,1),%rsi
    28de:	8b 45 b4             	mov    -0x4c(%rbp),%eax
    28e1:	8b 4d 10             	mov    0x10(%rbp),%ecx
    28e4:	ba 01 00 00 00       	mov    $0x1,%edx
    28e9:	89 c7                	mov    %eax,%edi
    28eb:	e8 12 2d 00 00       	callq  5602 <update_region_occ>
    28f0:	83 45 d4 01          	addl   $0x1,-0x2c(%rbp)
    28f4:	eb 01                	jmp    28f7 <try_swap+0x764>
    28f6:	90                   	nop
    28f7:	83 45 dc 01          	addl   $0x1,-0x24(%rbp)
    28fb:	8b 45 dc             	mov    -0x24(%rbp),%eax
    28fe:	3b 45 b8             	cmp    -0x48(%rbp),%eax
    2901:	0f 8c ce fd ff ff    	jl     26d5 <try_swap+0x542>
    2907:	83 bd 6c ff ff ff 01 	cmpl   $0x1,-0x94(%rbp)
    290e:	75 28                	jne    2938 <try_swap+0x7a5>
    2910:	8b 7d 10             	mov    0x10(%rbp),%edi
    2913:	e8 33 2a 00 00       	callq  534b <nonlinear_cong_cost>
    2918:	66 0f 7e c0          	movd   %xmm0,%eax
    291c:	89 45 b0             	mov    %eax,-0x50(%rbp)
    291f:	48 8b 85 78 ff ff ff 	mov    -0x88(%rbp),%rax
    2926:	f3 0f 10 08          	movss  (%rax),%xmm1
    292a:	f3 0f 10 45 b0       	movss  -0x50(%rbp),%xmm0
    292f:	f3 0f 5c c1          	subss  %xmm1,%xmm0
    2933:	f3 0f 11 45 cc       	movss  %xmm0,-0x34(%rbp)
    2938:	83 7d 20 01          	cmpl   $0x1,0x20(%rbp)
    293c:	74 06                	je     2944 <try_swap+0x7b1>
    293e:	83 7d 20 02          	cmpl   $0x2,0x20(%rbp)
    2942:	75 5b                	jne    299f <try_swap+0x80c>
    2944:	48 8d 7d 9c          	lea    -0x64(%rbp),%rdi
    2948:	48 8d 4d a0          	lea    -0x60(%rbp),%rcx
    294c:	8b 55 bc             	mov    -0x44(%rbp),%edx
    294f:	8b 75 e4             	mov    -0x1c(%rbp),%esi
    2952:	8b 45 ec             	mov    -0x14(%rbp),%eax
    2955:	49 89 f8             	mov    %rdi,%r8
    2958:	89 c7                	mov    %eax,%edi
    295a:	e8 f8 1c 00 00       	callq  4657 <comp_delta_td_cost>
    295f:	f3 0f 10 05 00 00 00 	movss  0x0(%rip),%xmm0        # 2967 <try_swap+0x7d4>
    2966:	00 
    2967:	f3 0f 5c 85 68 ff ff 	subss  -0x98(%rbp),%xmm0
    296e:	ff 
    296f:	f3 0f 59 45 cc       	mulss  -0x34(%rbp),%xmm0
    2974:	0f 28 c8             	movaps %xmm0,%xmm1
    2977:	f3 0f 59 8d 54 ff ff 	mulss  -0xac(%rbp),%xmm1
    297e:	ff 
    297f:	f3 0f 10 45 a0       	movss  -0x60(%rbp),%xmm0
    2984:	f3 0f 59 85 68 ff ff 	mulss  -0x98(%rbp),%xmm0
    298b:	ff 
    298c:	f3 0f 59 85 50 ff ff 	mulss  -0xb0(%rbp),%xmm0
    2993:	ff 
    2994:	f3 0f 58 c1          	addss  %xmm1,%xmm0
    2998:	f3 0f 11 45 d0       	movss  %xmm0,-0x30(%rbp)
    299d:	eb 0a                	jmp    29a9 <try_swap+0x816>
    299f:	f3 0f 10 45 cc       	movss  -0x34(%rbp),%xmm0
    29a4:	f3 0f 11 45 d0       	movss  %xmm0,-0x30(%rbp)
    29a9:	f3 0f 10 45 8c       	movss  -0x74(%rbp),%xmm0
    29ae:	8b 45 d0             	mov    -0x30(%rbp),%eax
    29b1:	0f 28 c8             	movaps %xmm0,%xmm1
    29b4:	89 85 4c ff ff ff    	mov    %eax,-0xb4(%rbp)
    29ba:	f3 0f 10 85 4c ff ff 	movss  -0xb4(%rbp),%xmm0
    29c1:	ff 
    29c2:	e8 e1 10 00 00       	callq  3aa8 <assess_swap>
    29c7:	89 45 ac             	mov    %eax,-0x54(%rbp)
    29ca:	83 7d ac 00          	cmpl   $0x0,-0x54(%rbp)
    29ce:	0f 84 eb 02 00 00    	je     2cbf <try_swap+0xb2c>
    29d4:	48 8b 45 80          	mov    -0x80(%rbp),%rax
    29d8:	f3 0f 10 00          	movss  (%rax),%xmm0
    29dc:	f3 0f 58 45 d0       	addss  -0x30(%rbp),%xmm0
    29e1:	48 8b 45 80          	mov    -0x80(%rbp),%rax
    29e5:	f3 0f 11 00          	movss  %xmm0,(%rax)
    29e9:	48 8b 85 78 ff ff ff 	mov    -0x88(%rbp),%rax
    29f0:	f3 0f 10 00          	movss  (%rax),%xmm0
    29f4:	f3 0f 58 45 cc       	addss  -0x34(%rbp),%xmm0
    29f9:	48 8b 85 78 ff ff ff 	mov    -0x88(%rbp),%rax
    2a00:	f3 0f 11 00          	movss  %xmm0,(%rax)
    2a04:	83 7d 20 01          	cmpl   $0x1,0x20(%rbp)
    2a08:	74 06                	je     2a10 <try_swap+0x87d>
    2a0a:	83 7d 20 02          	cmpl   $0x2,0x20(%rbp)
    2a0e:	75 4a                	jne    2a5a <try_swap+0x8c7>
    2a10:	48 8b 85 70 ff ff ff 	mov    -0x90(%rbp),%rax
    2a17:	f3 0f 10 08          	movss  (%rax),%xmm1
    2a1b:	f3 0f 10 45 a0       	movss  -0x60(%rbp),%xmm0
    2a20:	f3 0f 58 c1          	addss  %xmm1,%xmm0
    2a24:	48 8b 85 70 ff ff ff 	mov    -0x90(%rbp),%rax
    2a2b:	f3 0f 11 00          	movss  %xmm0,(%rax)
    2a2f:	48 8b 45 28          	mov    0x28(%rbp),%rax
    2a33:	f3 0f 10 08          	movss  (%rax),%xmm1
    2a37:	f3 0f 10 45 9c       	movss  -0x64(%rbp),%xmm0
    2a3c:	f3 0f 58 c1          	addss  %xmm1,%xmm0
    2a40:	48 8b 45 28          	mov    0x28(%rbp),%rax
    2a44:	f3 0f 11 00          	movss  %xmm0,(%rax)
    2a48:	8b 55 bc             	mov    -0x44(%rbp),%edx
    2a4b:	8b 4d e4             	mov    -0x1c(%rbp),%ecx
    2a4e:	8b 45 ec             	mov    -0x14(%rbp),%eax
    2a51:	89 ce                	mov    %ecx,%esi
    2a53:	89 c7                	mov    %eax,%edi
    2a55:	e8 2f 15 00 00       	callq  3f89 <update_td_cost>
    2a5a:	c7 45 d4 00 00 00 00 	movl   $0x0,-0x2c(%rbp)
    2a61:	c7 45 dc 00 00 00 00 	movl   $0x0,-0x24(%rbp)
    2a68:	e9 45 01 00 00       	jmpq   2bb2 <try_swap+0xa1f>
    2a6d:	48 8b 05 00 00 00 00 	mov    0x0(%rip),%rax        # 2a74 <try_swap+0x8e1>
    2a74:	8b 55 dc             	mov    -0x24(%rbp),%edx
    2a77:	48 63 d2             	movslq %edx,%rdx
    2a7a:	48 c1 e2 02          	shl    $0x2,%rdx
    2a7e:	48 01 d0             	add    %rdx,%rax
    2a81:	8b 00                	mov    (%rax),%eax
    2a83:	89 45 b4             	mov    %eax,-0x4c(%rbp)
    2a86:	48 8b 05 00 00 00 00 	mov    0x0(%rip),%rax        # 2a8d <try_swap+0x8fa>
    2a8d:	8b 55 dc             	mov    -0x24(%rbp),%edx
    2a90:	48 63 d2             	movslq %edx,%rdx
    2a93:	48 c1 e2 02          	shl    $0x2,%rdx
    2a97:	48 01 d0             	add    %rdx,%rax
    2a9a:	8b 00                	mov    (%rax),%eax
    2a9c:	83 f8 02             	cmp    $0x2,%eax
    2a9f:	75 25                	jne    2ac6 <try_swap+0x933>
    2aa1:	48 8b 05 00 00 00 00 	mov    0x0(%rip),%rax        # 2aa8 <try_swap+0x915>
    2aa8:	8b 55 b4             	mov    -0x4c(%rbp),%edx
    2aab:	48 63 d2             	movslq %edx,%rdx
    2aae:	48 c1 e2 02          	shl    $0x2,%rdx
    2ab2:	48 01 d0             	add    %rdx,%rax
    2ab5:	f3 0f 10 05 00 00 00 	movss  0x0(%rip),%xmm0        # 2abd <try_swap+0x92a>
    2abc:	00 
    2abd:	f3 0f 11 00          	movss  %xmm0,(%rax)
    2ac1:	e9 e8 00 00 00       	jmpq   2bae <try_swap+0xa1b>
    2ac6:	48 8b 05 00 00 00 00 	mov    0x0(%rip),%rax        # 2acd <try_swap+0x93a>
    2acd:	8b 55 b4             	mov    -0x4c(%rbp),%edx
    2ad0:	48 63 d2             	movslq %edx,%rdx
    2ad3:	48 c1 e2 04          	shl    $0x4,%rdx
    2ad7:	48 8d 0c 10          	lea    (%rax,%rdx,1),%rcx
    2adb:	48 8b 05 00 00 00 00 	mov    0x0(%rip),%rax        # 2ae2 <try_swap+0x94f>
    2ae2:	8b 55 d4             	mov    -0x2c(%rbp),%edx
    2ae5:	48 63 d2             	movslq %edx,%rdx
    2ae8:	48 c1 e2 04          	shl    $0x4,%rdx
    2aec:	48 01 d0             	add    %rdx,%rax
    2aef:	48 8b 50 08          	mov    0x8(%rax),%rdx
    2af3:	48 8b 00             	mov    (%rax),%rax
    2af6:	48 89 01             	mov    %rax,(%rcx)
    2af9:	48 89 51 08          	mov    %rdx,0x8(%rcx)
    2afd:	48 8b 0d 00 00 00 00 	mov    0x0(%rip),%rcx        # 2b04 <try_swap+0x971>
    2b04:	8b 45 b4             	mov    -0x4c(%rbp),%eax
    2b07:	48 63 d0             	movslq %eax,%rdx
    2b0a:	48 89 d0             	mov    %rdx,%rax
    2b0d:	48 c1 e0 02          	shl    $0x2,%rax
    2b11:	48 01 d0             	add    %rdx,%rax
    2b14:	48 c1 e0 03          	shl    $0x3,%rax
    2b18:	48 01 c8             	add    %rcx,%rax
    2b1b:	8b 40 08             	mov    0x8(%rax),%eax
    2b1e:	83 f8 03             	cmp    $0x3,%eax
    2b21:	7e 37                	jle    2b5a <try_swap+0x9c7>
    2b23:	48 8b 05 00 00 00 00 	mov    0x0(%rip),%rax        # 2b2a <try_swap+0x997>
    2b2a:	8b 55 b4             	mov    -0x4c(%rbp),%edx
    2b2d:	48 63 d2             	movslq %edx,%rdx
    2b30:	48 c1 e2 04          	shl    $0x4,%rdx
    2b34:	48 8d 0c 10          	lea    (%rax,%rdx,1),%rcx
    2b38:	48 8b 05 00 00 00 00 	mov    0x0(%rip),%rax        # 2b3f <try_swap+0x9ac>
    2b3f:	8b 55 d4             	mov    -0x2c(%rbp),%edx
    2b42:	48 63 d2             	movslq %edx,%rdx
    2b45:	48 c1 e2 04          	shl    $0x4,%rdx
    2b49:	48 01 d0             	add    %rdx,%rax
    2b4c:	48 8b 50 08          	mov    0x8(%rax),%rdx
    2b50:	48 8b 00             	mov    (%rax),%rax
    2b53:	48 89 01             	mov    %rax,(%rcx)
    2b56:	48 89 51 08          	mov    %rdx,0x8(%rcx)
    2b5a:	83 45 d4 01          	addl   $0x1,-0x2c(%rbp)
    2b5e:	48 8b 05 00 00 00 00 	mov    0x0(%rip),%rax        # 2b65 <try_swap+0x9d2>
    2b65:	8b 55 b4             	mov    -0x4c(%rbp),%edx
    2b68:	48 63 d2             	movslq %edx,%rdx
    2b6b:	48 c1 e2 02          	shl    $0x2,%rdx
    2b6f:	48 01 d0             	add    %rdx,%rax
    2b72:	48 8b 15 00 00 00 00 	mov    0x0(%rip),%rdx        # 2b79 <try_swap+0x9e6>
    2b79:	8b 4d b4             	mov    -0x4c(%rbp),%ecx
    2b7c:	48 63 c9             	movslq %ecx,%rcx
    2b7f:	48 c1 e1 02          	shl    $0x2,%rcx
    2b83:	48 01 ca             	add    %rcx,%rdx
    2b86:	f3 0f 10 02          	movss  (%rdx),%xmm0
    2b8a:	f3 0f 11 00          	movss  %xmm0,(%rax)
    2b8e:	48 8b 05 00 00 00 00 	mov    0x0(%rip),%rax        # 2b95 <try_swap+0xa02>
    2b95:	8b 55 b4             	mov    -0x4c(%rbp),%edx
    2b98:	48 63 d2             	movslq %edx,%rdx
    2b9b:	48 c1 e2 02          	shl    $0x2,%rdx
    2b9f:	48 01 d0             	add    %rdx,%rax
    2ba2:	f3 0f 10 05 00 00 00 	movss  0x0(%rip),%xmm0        # 2baa <try_swap+0xa17>
    2ba9:	00 
    2baa:	f3 0f 11 00          	movss  %xmm0,(%rax)
    2bae:	83 45 dc 01          	addl   $0x1,-0x24(%rbp)
    2bb2:	8b 45 dc             	mov    -0x24(%rbp),%eax
    2bb5:	3b 45 b8             	cmp    -0x48(%rbp),%eax
    2bb8:	0f 8c af fe ff ff    	jl     2a6d <try_swap+0x8da>
    2bbe:	48 8b 05 00 00 00 00 	mov    0x0(%rip),%rax        # 2bc5 <try_swap+0xa32>
    2bc5:	8b 55 a8             	mov    -0x58(%rbp),%edx
    2bc8:	48 63 d2             	movslq %edx,%rdx
    2bcb:	48 c1 e2 03          	shl    $0x3,%rdx
    2bcf:	48 01 d0             	add    %rdx,%rax
    2bd2:	48 8b 08             	mov    (%rax),%rcx
    2bd5:	8b 45 a4             	mov    -0x5c(%rbp),%eax
    2bd8:	48 63 d0             	movslq %eax,%rdx
    2bdb:	48 89 d0             	mov    %rdx,%rax
    2bde:	48 01 c0             	add    %rax,%rax
    2be1:	48 01 d0             	add    %rdx,%rax
    2be4:	48 c1 e0 03          	shl    $0x3,%rax
    2be8:	48 01 c8             	add    %rcx,%rax
    2beb:	48 8b 40 10          	mov    0x10(%rax),%rax
    2bef:	8b 55 e8             	mov    -0x18(%rbp),%edx
    2bf2:	48 63 d2             	movslq %edx,%rdx
    2bf5:	48 c1 e2 02          	shl    $0x2,%rdx
    2bf9:	48 01 c2             	add    %rax,%rdx
    2bfc:	8b 45 ec             	mov    -0x14(%rbp),%eax
    2bff:	89 02                	mov    %eax,(%rdx)
    2c01:	48 8b 05 00 00 00 00 	mov    0x0(%rip),%rax        # 2c08 <try_swap+0xa75>
    2c08:	8b 55 c8             	mov    -0x38(%rbp),%edx
    2c0b:	48 63 d2             	movslq %edx,%rdx
    2c0e:	48 c1 e2 03          	shl    $0x3,%rdx
    2c12:	48 01 d0             	add    %rdx,%rax
    2c15:	48 8b 08             	mov    (%rax),%rcx
    2c18:	8b 45 c4             	mov    -0x3c(%rbp),%eax
    2c1b:	48 63 d0             	movslq %eax,%rdx
    2c1e:	48 89 d0             	mov    %rdx,%rax
    2c21:	48 01 c0             	add    %rax,%rax
    2c24:	48 01 d0             	add    %rdx,%rax
    2c27:	48 c1 e0 03          	shl    $0x3,%rax
    2c2b:	48 01 c8             	add    %rcx,%rax
    2c2e:	48 8b 40 10          	mov    0x10(%rax),%rax
    2c32:	8b 55 c0             	mov    -0x40(%rbp),%edx
    2c35:	48 63 d2             	movslq %edx,%rdx
    2c38:	48 c1 e2 02          	shl    $0x2,%rdx
    2c3c:	48 01 c2             	add    %rax,%rdx
    2c3f:	8b 45 e4             	mov    -0x1c(%rbp),%eax
    2c42:	89 02                	mov    %eax,(%rdx)
    2c44:	83 7d e4 ff          	cmpl   $0xffffffff,-0x1c(%rbp)
    2c48:	0f 85 c8 01 00 00    	jne    2e16 <try_swap+0xc83>
    2c4e:	48 8b 05 00 00 00 00 	mov    0x0(%rip),%rax        # 2c55 <try_swap+0xac2>
    2c55:	8b 55 a8             	mov    -0x58(%rbp),%edx
    2c58:	48 63 d2             	movslq %edx,%rdx
    2c5b:	48 c1 e2 03          	shl    $0x3,%rdx
    2c5f:	48 01 d0             	add    %rdx,%rax
    2c62:	48 8b 08             	mov    (%rax),%rcx
    2c65:	8b 45 a4             	mov    -0x5c(%rbp),%eax
    2c68:	48 63 d0             	movslq %eax,%rdx
    2c6b:	48 89 d0             	mov    %rdx,%rax
    2c6e:	48 01 c0             	add    %rax,%rax
    2c71:	48 01 d0             	add    %rdx,%rax
    2c74:	48 c1 e0 03          	shl    $0x3,%rax
    2c78:	48 01 c8             	add    %rcx,%rax
    2c7b:	8b 50 0c             	mov    0xc(%rax),%edx
    2c7e:	83 c2 01             	add    $0x1,%edx
    2c81:	89 50 0c             	mov    %edx,0xc(%rax)
    2c84:	48 8b 05 00 00 00 00 	mov    0x0(%rip),%rax        # 2c8b <try_swap+0xaf8>
    2c8b:	8b 55 c8             	mov    -0x38(%rbp),%edx
    2c8e:	48 63 d2             	movslq %edx,%rdx
    2c91:	48 c1 e2 03          	shl    $0x3,%rdx
    2c95:	48 01 d0             	add    %rdx,%rax
    2c98:	48 8b 08             	mov    (%rax),%rcx
    2c9b:	8b 45 c4             	mov    -0x3c(%rbp),%eax
    2c9e:	48 63 d0             	movslq %eax,%rdx
    2ca1:	48 89 d0             	mov    %rdx,%rax
    2ca4:	48 01 c0             	add    %rax,%rax
    2ca7:	48 01 d0             	add    %rdx,%rax
    2caa:	48 c1 e0 03          	shl    $0x3,%rax
    2cae:	48 01 c8             	add    %rcx,%rax
    2cb1:	8b 50 0c             	mov    0xc(%rax),%edx
    2cb4:	83 ea 01             	sub    $0x1,%edx
    2cb7:	89 50 0c             	mov    %edx,0xc(%rax)
    2cba:	e9 57 01 00 00       	jmpq   2e16 <try_swap+0xc83>
    2cbf:	c7 45 dc 00 00 00 00 	movl   $0x0,-0x24(%rbp)
    2cc6:	eb 3d                	jmp    2d05 <try_swap+0xb72>
    2cc8:	48 8b 05 00 00 00 00 	mov    0x0(%rip),%rax        # 2ccf <try_swap+0xb3c>
    2ccf:	8b 55 dc             	mov    -0x24(%rbp),%edx
    2cd2:	48 63 d2             	movslq %edx,%rdx
    2cd5:	48 c1 e2 02          	shl    $0x2,%rdx
    2cd9:	48 01 d0             	add    %rdx,%rax
    2cdc:	8b 00                	mov    (%rax),%eax
    2cde:	89 45 b4             	mov    %eax,-0x4c(%rbp)
    2ce1:	48 8b 05 00 00 00 00 	mov    0x0(%rip),%rax        # 2ce8 <try_swap+0xb55>
    2ce8:	8b 55 b4             	mov    -0x4c(%rbp),%edx
    2ceb:	48 63 d2             	movslq %edx,%rdx
    2cee:	48 c1 e2 02          	shl    $0x2,%rdx
    2cf2:	48 01 d0             	add    %rdx,%rax
    2cf5:	f3 0f 10 05 00 00 00 	movss  0x0(%rip),%xmm0        # 2cfd <try_swap+0xb6a>
    2cfc:	00 
    2cfd:	f3 0f 11 00          	movss  %xmm0,(%rax)
    2d01:	83 45 dc 01          	addl   $0x1,-0x24(%rbp)
    2d05:	8b 45 dc             	mov    -0x24(%rbp),%eax
    2d08:	3b 45 b8             	cmp    -0x48(%rbp),%eax
    2d0b:	7c bb                	jl     2cc8 <try_swap+0xb35>
    2d0d:	48 8b 0d 00 00 00 00 	mov    0x0(%rip),%rcx        # 2d14 <try_swap+0xb81>
    2d14:	8b 45 ec             	mov    -0x14(%rbp),%eax
    2d17:	48 63 d0             	movslq %eax,%rdx
    2d1a:	48 89 d0             	mov    %rdx,%rax
    2d1d:	48 c1 e0 02          	shl    $0x2,%rax
    2d21:	48 01 d0             	add    %rdx,%rax
    2d24:	48 c1 e0 03          	shl    $0x3,%rax
    2d28:	48 8d 14 01          	lea    (%rcx,%rax,1),%rdx
    2d2c:	8b 45 c8             	mov    -0x38(%rbp),%eax
    2d2f:	89 42 18             	mov    %eax,0x18(%rdx)
    2d32:	48 8b 0d 00 00 00 00 	mov    0x0(%rip),%rcx        # 2d39 <try_swap+0xba6>
    2d39:	8b 45 ec             	mov    -0x14(%rbp),%eax
    2d3c:	48 63 d0             	movslq %eax,%rdx
    2d3f:	48 89 d0             	mov    %rdx,%rax
    2d42:	48 c1 e0 02          	shl    $0x2,%rax
    2d46:	48 01 d0             	add    %rdx,%rax
    2d49:	48 c1 e0 03          	shl    $0x3,%rax
    2d4d:	48 8d 14 01          	lea    (%rcx,%rax,1),%rdx
    2d51:	8b 45 c4             	mov    -0x3c(%rbp),%eax
    2d54:	89 42 1c             	mov    %eax,0x1c(%rdx)
    2d57:	48 8b 0d 00 00 00 00 	mov    0x0(%rip),%rcx        # 2d5e <try_swap+0xbcb>
    2d5e:	8b 45 ec             	mov    -0x14(%rbp),%eax
    2d61:	48 63 d0             	movslq %eax,%rdx
    2d64:	48 89 d0             	mov    %rdx,%rax
    2d67:	48 c1 e0 02          	shl    $0x2,%rax
    2d6b:	48 01 d0             	add    %rdx,%rax
    2d6e:	48 c1 e0 03          	shl    $0x3,%rax
    2d72:	48 8d 14 01          	lea    (%rcx,%rax,1),%rdx
    2d76:	8b 45 c0             	mov    -0x40(%rbp),%eax
    2d79:	89 42 20             	mov    %eax,0x20(%rdx)
    2d7c:	83 7d e4 ff          	cmpl   $0xffffffff,-0x1c(%rbp)
    2d80:	74 6f                	je     2df1 <try_swap+0xc5e>
    2d82:	48 8b 0d 00 00 00 00 	mov    0x0(%rip),%rcx        # 2d89 <try_swap+0xbf6>
    2d89:	8b 45 e4             	mov    -0x1c(%rbp),%eax
    2d8c:	48 63 d0             	movslq %eax,%rdx
    2d8f:	48 89 d0             	mov    %rdx,%rax
    2d92:	48 c1 e0 02          	shl    $0x2,%rax
    2d96:	48 01 d0             	add    %rdx,%rax
    2d99:	48 c1 e0 03          	shl    $0x3,%rax
    2d9d:	48 8d 14 01          	lea    (%rcx,%rax,1),%rdx
    2da1:	8b 45 a8             	mov    -0x58(%rbp),%eax
    2da4:	89 42 18             	mov    %eax,0x18(%rdx)
    2da7:	48 8b 0d 00 00 00 00 	mov    0x0(%rip),%rcx        # 2dae <try_swap+0xc1b>
    2dae:	8b 45 e4             	mov    -0x1c(%rbp),%eax
    2db1:	48 63 d0             	movslq %eax,%rdx
    2db4:	48 89 d0             	mov    %rdx,%rax
    2db7:	48 c1 e0 02          	shl    $0x2,%rax
    2dbb:	48 01 d0             	add    %rdx,%rax
    2dbe:	48 c1 e0 03          	shl    $0x3,%rax
    2dc2:	48 8d 14 01          	lea    (%rcx,%rax,1),%rdx
    2dc6:	8b 45 a4             	mov    -0x5c(%rbp),%eax
    2dc9:	89 42 1c             	mov    %eax,0x1c(%rdx)
    2dcc:	48 8b 0d 00 00 00 00 	mov    0x0(%rip),%rcx        # 2dd3 <try_swap+0xc40>
    2dd3:	8b 45 e4             	mov    -0x1c(%rbp),%eax
    2dd6:	48 63 d0             	movslq %eax,%rdx
    2dd9:	48 89 d0             	mov    %rdx,%rax
    2ddc:	48 c1 e0 02          	shl    $0x2,%rax
    2de0:	48 01 d0             	add    %rdx,%rax
    2de3:	48 c1 e0 03          	shl    $0x3,%rax
    2de7:	48 8d 14 01          	lea    (%rcx,%rax,1),%rdx
    2deb:	8b 45 e8             	mov    -0x18(%rbp),%eax
    2dee:	89 42 20             	mov    %eax,0x20(%rdx)
    2df1:	83 bd 6c ff ff ff 01 	cmpl   $0x1,-0x94(%rbp)
    2df8:	75 1c                	jne    2e16 <try_swap+0xc83>
    2dfa:	48 8b 8d 58 ff ff ff 	mov    -0xa8(%rbp),%rcx
    2e01:	48 8b 85 60 ff ff ff 	mov    -0xa0(%rbp),%rax
    2e08:	8b 55 10             	mov    0x10(%rbp),%edx
    2e0b:	48 89 ce             	mov    %rcx,%rsi
    2e0e:	48 89 c7             	mov    %rax,%rdi
    2e11:	e8 ff 00 00 00       	callq  2f15 <restore_region_occ>
    2e16:	8b 45 ac             	mov    -0x54(%rbp),%eax
    2e19:	48 8b 5d f8          	mov    -0x8(%rbp),%rbx
    2e1d:	c9                   	leaveq 
    2e1e:	c3                   	retq   

0000000000002e1f <save_region_occ>:
    2e1f:	55                   	push   %rbp
    2e20:	48 89 e5             	mov    %rsp,%rbp
    2e23:	48 83 ec 28          	sub    $0x28,%rsp
    2e27:	ff 15 00 00 00 00    	callq  *0x0(%rip)        # 2e2d <save_region_occ+0xe>
    2e2d:	48 89 7d e8          	mov    %rdi,-0x18(%rbp)
    2e31:	48 89 75 e0          	mov    %rsi,-0x20(%rbp)
    2e35:	89 55 dc             	mov    %edx,-0x24(%rbp)
    2e38:	c7 45 fc 00 00 00 00 	movl   $0x0,-0x4(%rbp)
    2e3f:	e9 c2 00 00 00       	jmpq   2f06 <save_region_occ+0xe7>
    2e44:	c7 45 f8 00 00 00 00 	movl   $0x0,-0x8(%rbp)
    2e4b:	e9 a6 00 00 00       	jmpq   2ef6 <save_region_occ+0xd7>
    2e50:	8b 45 fc             	mov    -0x4(%rbp),%eax
    2e53:	48 98                	cltq   
    2e55:	48 8d 14 c5 00 00 00 	lea    0x0(,%rax,8),%rdx
    2e5c:	00 
    2e5d:	48 8b 45 e8          	mov    -0x18(%rbp),%rax
    2e61:	48 01 d0             	add    %rdx,%rax
    2e64:	48 8b 00             	mov    (%rax),%rax
    2e67:	8b 55 f8             	mov    -0x8(%rbp),%edx
    2e6a:	48 63 d2             	movslq %edx,%rdx
    2e6d:	48 c1 e2 02          	shl    $0x2,%rdx
    2e71:	48 01 d0             	add    %rdx,%rax
    2e74:	48 8b 15 00 00 00 00 	mov    0x0(%rip),%rdx        # 2e7b <save_region_occ+0x5c>
    2e7b:	8b 4d fc             	mov    -0x4(%rbp),%ecx
    2e7e:	48 63 c9             	movslq %ecx,%rcx
    2e81:	48 c1 e1 03          	shl    $0x3,%rcx
    2e85:	48 01 ca             	add    %rcx,%rdx
    2e88:	48 8b 12             	mov    (%rdx),%rdx
    2e8b:	8b 4d f8             	mov    -0x8(%rbp),%ecx
    2e8e:	48 63 c9             	movslq %ecx,%rcx
    2e91:	48 c1 e1 04          	shl    $0x4,%rcx
    2e95:	48 01 ca             	add    %rcx,%rdx
    2e98:	f3 0f 10 42 08       	movss  0x8(%rdx),%xmm0
    2e9d:	f3 0f 11 00          	movss  %xmm0,(%rax)
    2ea1:	8b 45 fc             	mov    -0x4(%rbp),%eax
    2ea4:	48 98                	cltq   
    2ea6:	48 8d 14 c5 00 00 00 	lea    0x0(,%rax,8),%rdx
    2ead:	00 
    2eae:	48 8b 45 e0          	mov    -0x20(%rbp),%rax
    2eb2:	48 01 d0             	add    %rdx,%rax
    2eb5:	48 8b 00             	mov    (%rax),%rax
    2eb8:	8b 55 f8             	mov    -0x8(%rbp),%edx
    2ebb:	48 63 d2             	movslq %edx,%rdx
    2ebe:	48 c1 e2 02          	shl    $0x2,%rdx
    2ec2:	48 01 d0             	add    %rdx,%rax
    2ec5:	48 8b 15 00 00 00 00 	mov    0x0(%rip),%rdx        # 2ecc <save_region_occ+0xad>
    2ecc:	8b 4d fc             	mov    -0x4(%rbp),%ecx
    2ecf:	48 63 c9             	movslq %ecx,%rcx
    2ed2:	48 c1 e1 03          	shl    $0x3,%rcx
    2ed6:	48 01 ca             	add    %rcx,%rdx
    2ed9:	48 8b 12             	mov    (%rdx),%rdx
    2edc:	8b 4d f8             	mov    -0x8(%rbp),%ecx
    2edf:	48 63 c9             	movslq %ecx,%rcx
    2ee2:	48 c1 e1 04          	shl    $0x4,%rcx
    2ee6:	48 01 ca             	add    %rcx,%rdx
    2ee9:	f3 0f 10 42 08       	movss  0x8(%rdx),%xmm0
    2eee:	f3 0f 11 00          	movss  %xmm0,(%rax)
    2ef2:	83 45 f8 01          	addl   $0x1,-0x8(%rbp)
    2ef6:	8b 45 f8             	mov    -0x8(%rbp),%eax
    2ef9:	3b 45 dc             	cmp    -0x24(%rbp),%eax
    2efc:	0f 8c 4e ff ff ff    	jl     2e50 <save_region_occ+0x31>
    2f02:	83 45 fc 01          	addl   $0x1,-0x4(%rbp)
    2f06:	8b 45 fc             	mov    -0x4(%rbp),%eax
    2f09:	3b 45 dc             	cmp    -0x24(%rbp),%eax
    2f0c:	0f 8c 32 ff ff ff    	jl     2e44 <save_region_occ+0x25>
    2f12:	90                   	nop
    2f13:	c9                   	leaveq 
    2f14:	c3                   	retq   

0000000000002f15 <restore_region_occ>:
    2f15:	55                   	push   %rbp
    2f16:	48 89 e5             	mov    %rsp,%rbp
    2f19:	48 83 ec 28          	sub    $0x28,%rsp
    2f1d:	ff 15 00 00 00 00    	callq  *0x0(%rip)        # 2f23 <restore_region_occ+0xe>
    2f23:	48 89 7d e8          	mov    %rdi,-0x18(%rbp)
    2f27:	48 89 75 e0          	mov    %rsi,-0x20(%rbp)
    2f2b:	89 55 dc             	mov    %edx,-0x24(%rbp)
    2f2e:	c7 45 fc 00 00 00 00 	movl   $0x0,-0x4(%rbp)
    2f35:	e9 c4 00 00 00       	jmpq   2ffe <restore_region_occ+0xe9>
    2f3a:	c7 45 f8 00 00 00 00 	movl   $0x0,-0x8(%rbp)
    2f41:	e9 a8 00 00 00       	jmpq   2fee <restore_region_occ+0xd9>
    2f46:	48 8b 05 00 00 00 00 	mov    0x0(%rip),%rax        # 2f4d <restore_region_occ+0x38>
    2f4d:	8b 55 fc             	mov    -0x4(%rbp),%edx
    2f50:	48 63 d2             	movslq %edx,%rdx
    2f53:	48 c1 e2 03          	shl    $0x3,%rdx
    2f57:	48 01 d0             	add    %rdx,%rax
    2f5a:	48 8b 00             	mov    (%rax),%rax
    2f5d:	8b 55 f8             	mov    -0x8(%rbp),%edx
    2f60:	48 63 d2             	movslq %edx,%rdx
    2f63:	48 c1 e2 04          	shl    $0x4,%rdx
    2f67:	48 01 d0             	add    %rdx,%rax
    2f6a:	8b 55 fc             	mov    -0x4(%rbp),%edx
    2f6d:	48 63 d2             	movslq %edx,%rdx
    2f70:	48 8d 0c d5 00 00 00 	lea    0x0(,%rdx,8),%rcx
    2f77:	00 
    2f78:	48 8b 55 e8          	mov    -0x18(%rbp),%rdx
    2f7c:	48 01 ca             	add    %rcx,%rdx
    2f7f:	48 8b 12             	mov    (%rdx),%rdx
    2f82:	8b 4d f8             	mov    -0x8(%rbp),%ecx
    2f85:	48 63 c9             	movslq %ecx,%rcx
    2f88:	48 c1 e1 02          	shl    $0x2,%rcx
    2f8c:	48 01 ca             	add    %rcx,%rdx
    2f8f:	f3 0f 10 02          	movss  (%rdx),%xmm0
    2f93:	f3 0f 11 40 08       	movss  %xmm0,0x8(%rax)
    2f98:	48 8b 05 00 00 00 00 	mov    0x0(%rip),%rax        # 2f9f <restore_region_occ+0x8a>
    2f9f:	8b 55 fc             	mov    -0x4(%rbp),%edx
    2fa2:	48 63 d2             	movslq %edx,%rdx
    2fa5:	48 c1 e2 03          	shl    $0x3,%rdx
    2fa9:	48 01 d0             	add    %rdx,%rax
    2fac:	48 8b 00             	mov    (%rax),%rax
    2faf:	8b 55 f8             	mov    -0x8(%rbp),%edx
    2fb2:	48 63 d2             	movslq %edx,%rdx
    2fb5:	48 c1 e2 04          	shl    $0x4,%rdx
    2fb9:	48 01 d0             	add    %rdx,%rax
    2fbc:	8b 55 fc             	mov    -0x4(%rbp),%edx
    2fbf:	48 63 d2             	movslq %edx,%rdx
    2fc2:	48 8d 0c d5 00 00 00 	lea    0x0(,%rdx,8),%rcx
    2fc9:	00 
    2fca:	48 8b 55 e0          	mov    -0x20(%rbp),%rdx
    2fce:	48 01 ca             	add    %rcx,%rdx
    2fd1:	48 8b 12             	mov    (%rdx),%rdx
    2fd4:	8b 4d f8             	mov    -0x8(%rbp),%ecx
    2fd7:	48 63 c9             	movslq %ecx,%rcx
    2fda:	48 c1 e1 02          	shl    $0x2,%rcx
    2fde:	48 01 ca             	add    %rcx,%rdx
    2fe1:	f3 0f 10 02          	movss  (%rdx),%xmm0
    2fe5:	f3 0f 11 40 08       	movss  %xmm0,0x8(%rax)
    2fea:	83 45 f8 01          	addl   $0x1,-0x8(%rbp)
    2fee:	8b 45 f8             	mov    -0x8(%rbp),%eax
    2ff1:	3b 45 dc             	cmp    -0x24(%rbp),%eax
    2ff4:	0f 8c 4c ff ff ff    	jl     2f46 <restore_region_occ+0x31>
    2ffa:	83 45 fc 01          	addl   $0x1,-0x4(%rbp)
    2ffe:	8b 45 fc             	mov    -0x4(%rbp),%eax
    3001:	3b 45 dc             	cmp    -0x24(%rbp),%eax
    3004:	0f 8c 30 ff ff ff    	jl     2f3a <restore_region_occ+0x25>
    300a:	90                   	nop
    300b:	c9                   	leaveq 
    300c:	c3                   	retq   

000000000000300d <find_affected_nets>:
    300d:	55                   	push   %rbp
    300e:	48 89 e5             	mov    %rsp,%rbp
    3011:	48 83 ec 30          	sub    $0x30,%rsp
    3015:	ff 15 00 00 00 00    	callq  *0x0(%rip)        # 301b <find_affected_nets+0xe>
    301b:	48 89 7d e8          	mov    %rdi,-0x18(%rbp)
    301f:	48 89 75 e0          	mov    %rsi,-0x20(%rbp)
    3023:	89 55 dc             	mov    %edx,-0x24(%rbp)
    3026:	89 4d d8             	mov    %ecx,-0x28(%rbp)
    3029:	44 89 45 d4          	mov    %r8d,-0x2c(%rbp)
    302d:	c7 45 f8 00 00 00 00 	movl   $0x0,-0x8(%rbp)
    3034:	c7 45 fc 00 00 00 00 	movl   $0x0,-0x4(%rbp)
    303b:	e9 e8 00 00 00       	jmpq   3128 <find_affected_nets+0x11b>
    3040:	48 8b 0d 00 00 00 00 	mov    0x0(%rip),%rcx        # 3047 <find_affected_nets+0x3a>
    3047:	8b 45 dc             	mov    -0x24(%rbp),%eax
    304a:	48 63 d0             	movslq %eax,%rdx
    304d:	48 89 d0             	mov    %rdx,%rax
    3050:	48 c1 e0 02          	shl    $0x2,%rax
    3054:	48 01 d0             	add    %rdx,%rax
    3057:	48 c1 e0 03          	shl    $0x3,%rax
    305b:	48 01 c8             	add    %rcx,%rax
    305e:	48 8b 40 10          	mov    0x10(%rax),%rax
    3062:	8b 55 fc             	mov    -0x4(%rbp),%edx
    3065:	48 63 d2             	movslq %edx,%rdx
    3068:	48 c1 e2 02          	shl    $0x2,%rdx
    306c:	48 01 d0             	add    %rdx,%rax
    306f:	8b 00                	mov    (%rax),%eax
    3071:	89 45 f0             	mov    %eax,-0x10(%rbp)
    3074:	83 7d f0 ff          	cmpl   $0xffffffff,-0x10(%rbp)
    3078:	0f 84 9f 00 00 00    	je     311d <find_affected_nets+0x110>
    307e:	48 8b 0d 00 00 00 00 	mov    0x0(%rip),%rcx        # 3085 <find_affected_nets+0x78>
    3085:	8b 45 f0             	mov    -0x10(%rbp),%eax
    3088:	48 63 d0             	movslq %eax,%rdx
    308b:	48 89 d0             	mov    %rdx,%rax
    308e:	48 c1 e0 02          	shl    $0x2,%rax
    3092:	48 01 d0             	add    %rdx,%rax
    3095:	48 c1 e0 03          	shl    $0x3,%rax
    3099:	48 01 c8             	add    %rcx,%rax
    309c:	8b 40 20             	mov    0x20(%rax),%eax
    309f:	85 c0                	test   %eax,%eax
    30a1:	75 7d                	jne    3120 <find_affected_nets+0x113>
    30a3:	48 8b 05 00 00 00 00 	mov    0x0(%rip),%rax        # 30aa <find_affected_nets+0x9d>
    30aa:	8b 55 f0             	mov    -0x10(%rbp),%edx
    30ad:	48 63 d2             	movslq %edx,%rdx
    30b0:	48 c1 e2 02          	shl    $0x2,%rdx
    30b4:	48 01 d0             	add    %rdx,%rax
    30b7:	f3 0f 10 00          	movss  (%rax),%xmm0
    30bb:	66 0f ef c9          	pxor   %xmm1,%xmm1
    30bf:	0f 2e c1             	ucomiss %xmm1,%xmm0
    30c2:	77 5f                	ja     3123 <find_affected_nets+0x116>
    30c4:	8b 45 f8             	mov    -0x8(%rbp),%eax
    30c7:	48 98                	cltq   
    30c9:	48 8d 14 85 00 00 00 	lea    0x0(,%rax,4),%rdx
    30d0:	00 
    30d1:	48 8b 45 e8          	mov    -0x18(%rbp),%rax
    30d5:	48 01 c2             	add    %rax,%rdx
    30d8:	8b 45 f0             	mov    -0x10(%rbp),%eax
    30db:	89 02                	mov    %eax,(%rdx)
    30dd:	8b 45 f8             	mov    -0x8(%rbp),%eax
    30e0:	48 98                	cltq   
    30e2:	48 8d 14 85 00 00 00 	lea    0x0(,%rax,4),%rdx
    30e9:	00 
    30ea:	48 8b 45 e0          	mov    -0x20(%rbp),%rax
    30ee:	48 01 d0             	add    %rdx,%rax
    30f1:	c7 00 00 00 00 00    	movl   $0x0,(%rax)
    30f7:	83 45 f8 01          	addl   $0x1,-0x8(%rbp)
    30fb:	48 8b 05 00 00 00 00 	mov    0x0(%rip),%rax        # 3102 <find_affected_nets+0xf5>
    3102:	8b 55 f0             	mov    -0x10(%rbp),%edx
    3105:	48 63 d2             	movslq %edx,%rdx
    3108:	48 c1 e2 02          	shl    $0x2,%rdx
    310c:	48 01 d0             	add    %rdx,%rax
    310f:	f3 0f 10 05 00 00 00 	movss  0x0(%rip),%xmm0        # 3117 <find_affected_nets+0x10a>
    3116:	00 
    3117:	f3 0f 11 00          	movss  %xmm0,(%rax)
    311b:	eb 07                	jmp    3124 <find_affected_nets+0x117>
    311d:	90                   	nop
    311e:	eb 04                	jmp    3124 <find_affected_nets+0x117>
    3120:	90                   	nop
    3121:	eb 01                	jmp    3124 <find_affected_nets+0x117>
    3123:	90                   	nop
    3124:	83 45 fc 01          	addl   $0x1,-0x4(%rbp)
    3128:	8b 45 fc             	mov    -0x4(%rbp),%eax
    312b:	3b 45 d4             	cmp    -0x2c(%rbp),%eax
    312e:	0f 8c 0c ff ff ff    	jl     3040 <find_affected_nets+0x33>
    3134:	83 7d d8 ff          	cmpl   $0xffffffff,-0x28(%rbp)
    3138:	0f 84 9d 01 00 00    	je     32db <find_affected_nets+0x2ce>
    313e:	c7 45 fc 00 00 00 00 	movl   $0x0,-0x4(%rbp)
    3145:	e9 85 01 00 00       	jmpq   32cf <find_affected_nets+0x2c2>
    314a:	48 8b 0d 00 00 00 00 	mov    0x0(%rip),%rcx        # 3151 <find_affected_nets+0x144>
    3151:	8b 45 d8             	mov    -0x28(%rbp),%eax
    3154:	48 63 d0             	movslq %eax,%rdx
    3157:	48 89 d0             	mov    %rdx,%rax
    315a:	48 c1 e0 02          	shl    $0x2,%rax
    315e:	48 01 d0             	add    %rdx,%rax
    3161:	48 c1 e0 03          	shl    $0x3,%rax
    3165:	48 01 c8             	add    %rcx,%rax
    3168:	48 8b 40 10          	mov    0x10(%rax),%rax
    316c:	8b 55 fc             	mov    -0x4(%rbp),%edx
    316f:	48 63 d2             	movslq %edx,%rdx
    3172:	48 c1 e2 02          	shl    $0x2,%rdx
    3176:	48 01 d0             	add    %rdx,%rax
    3179:	8b 00                	mov    (%rax),%eax
    317b:	89 45 f0             	mov    %eax,-0x10(%rbp)
    317e:	83 7d f0 ff          	cmpl   $0xffffffff,-0x10(%rbp)
    3182:	0f 84 3f 01 00 00    	je     32c7 <find_affected_nets+0x2ba>
    3188:	48 8b 0d 00 00 00 00 	mov    0x0(%rip),%rcx        # 318f <find_affected_nets+0x182>
    318f:	8b 45 f0             	mov    -0x10(%rbp),%eax
    3192:	48 63 d0             	movslq %eax,%rdx
    3195:	48 89 d0             	mov    %rdx,%rax
    3198:	48 c1 e0 02          	shl    $0x2,%rax
    319c:	48 01 d0             	add    %rdx,%rax
    319f:	48 c1 e0 03          	shl    $0x3,%rax
    31a3:	48 01 c8             	add    %rcx,%rax
    31a6:	8b 40 20             	mov    0x20(%rax),%eax
    31a9:	85 c0                	test   %eax,%eax
    31ab:	0f 85 19 01 00 00    	jne    32ca <find_affected_nets+0x2bd>
    31b1:	48 8b 05 00 00 00 00 	mov    0x0(%rip),%rax        # 31b8 <find_affected_nets+0x1ab>
    31b8:	8b 55 f0             	mov    -0x10(%rbp),%edx
    31bb:	48 63 d2             	movslq %edx,%rdx
    31be:	48 c1 e2 02          	shl    $0x2,%rdx
    31c2:	48 01 d0             	add    %rdx,%rax
    31c5:	f3 0f 10 00          	movss  (%rax),%xmm0
    31c9:	66 0f ef c9          	pxor   %xmm1,%xmm1
    31cd:	0f 2e c1             	ucomiss %xmm1,%xmm0
    31d0:	0f 86 98 00 00 00    	jbe    326e <find_affected_nets+0x261>
    31d6:	c7 45 f4 00 00 00 00 	movl   $0x0,-0xc(%rbp)
    31dd:	eb 55                	jmp    3234 <find_affected_nets+0x227>
    31df:	8b 45 f4             	mov    -0xc(%rbp),%eax
    31e2:	48 98                	cltq   
    31e4:	48 8d 14 85 00 00 00 	lea    0x0(,%rax,4),%rdx
    31eb:	00 
    31ec:	48 8b 45 e8          	mov    -0x18(%rbp),%rax
    31f0:	48 01 d0             	add    %rdx,%rax
    31f3:	8b 00                	mov    (%rax),%eax
    31f5:	3b 45 f0             	cmp    -0x10(%rbp),%eax
    31f8:	75 36                	jne    3230 <find_affected_nets+0x223>
    31fa:	8b 45 f4             	mov    -0xc(%rbp),%eax
    31fd:	48 98                	cltq   
    31ff:	48 8d 14 85 00 00 00 	lea    0x0(,%rax,4),%rdx
    3206:	00 
    3207:	48 8b 45 e0          	mov    -0x20(%rbp),%rax
    320b:	48 01 d0             	add    %rdx,%rax
    320e:	8b 00                	mov    (%rax),%eax
    3210:	85 c0                	test   %eax,%eax
    3212:	75 2a                	jne    323e <find_affected_nets+0x231>
    3214:	8b 45 f4             	mov    -0xc(%rbp),%eax
    3217:	48 98                	cltq   
    3219:	48 8d 14 85 00 00 00 	lea    0x0(,%rax,4),%rdx
    3220:	00 
    3221:	48 8b 45 e0          	mov    -0x20(%rbp),%rax
    3225:	48 01 d0             	add    %rdx,%rax
    3228:	c7 00 02 00 00 00    	movl   $0x2,(%rax)
    322e:	eb 0e                	jmp    323e <find_affected_nets+0x231>
    3230:	83 45 f4 01          	addl   $0x1,-0xc(%rbp)
    3234:	8b 45 f4             	mov    -0xc(%rbp),%eax
    3237:	3b 45 f8             	cmp    -0x8(%rbp),%eax
    323a:	7c a3                	jl     31df <find_affected_nets+0x1d2>
    323c:	eb 01                	jmp    323f <find_affected_nets+0x232>
    323e:	90                   	nop
    323f:	8b 45 f4             	mov    -0xc(%rbp),%eax
    3242:	3b 45 f8             	cmp    -0x8(%rbp),%eax
    3245:	0f 8e 80 00 00 00    	jle    32cb <find_affected_nets+0x2be>
    324b:	8b 55 f8             	mov    -0x8(%rbp),%edx
    324e:	8b 45 f4             	mov    -0xc(%rbp),%eax
    3251:	89 c6                	mov    %eax,%esi
    3253:	48 8d 3d 00 00 00 00 	lea    0x0(%rip),%rdi        # 325a <find_affected_nets+0x24d>
    325a:	b8 00 00 00 00       	mov    $0x0,%eax
    325f:	e8 00 00 00 00       	callq  3264 <find_affected_nets+0x257>
    3264:	bf 01 00 00 00       	mov    $0x1,%edi
    3269:	e8 00 00 00 00       	callq  326e <find_affected_nets+0x261>
    326e:	8b 45 f8             	mov    -0x8(%rbp),%eax
    3271:	48 98                	cltq   
    3273:	48 8d 14 85 00 00 00 	lea    0x0(,%rax,4),%rdx
    327a:	00 
    327b:	48 8b 45 e8          	mov    -0x18(%rbp),%rax
    327f:	48 01 c2             	add    %rax,%rdx
    3282:	8b 45 f0             	mov    -0x10(%rbp),%eax
    3285:	89 02                	mov    %eax,(%rdx)
    3287:	8b 45 f8             	mov    -0x8(%rbp),%eax
    328a:	48 98                	cltq   
    328c:	48 8d 14 85 00 00 00 	lea    0x0(,%rax,4),%rdx
    3293:	00 
    3294:	48 8b 45 e0          	mov    -0x20(%rbp),%rax
    3298:	48 01 d0             	add    %rdx,%rax
    329b:	c7 00 01 00 00 00    	movl   $0x1,(%rax)
    32a1:	83 45 f8 01          	addl   $0x1,-0x8(%rbp)
    32a5:	48 8b 05 00 00 00 00 	mov    0x0(%rip),%rax        # 32ac <find_affected_nets+0x29f>
    32ac:	8b 55 f0             	mov    -0x10(%rbp),%edx
    32af:	48 63 d2             	movslq %edx,%rdx
    32b2:	48 c1 e2 02          	shl    $0x2,%rdx
    32b6:	48 01 d0             	add    %rdx,%rax
    32b9:	f3 0f 10 05 00 00 00 	movss  0x0(%rip),%xmm0        # 32c1 <find_affected_nets+0x2b4>
    32c0:	00 
    32c1:	f3 0f 11 00          	movss  %xmm0,(%rax)
    32c5:	eb 04                	jmp    32cb <find_affected_nets+0x2be>
    32c7:	90                   	nop
    32c8:	eb 01                	jmp    32cb <find_affected_nets+0x2be>
    32ca:	90                   	nop
    32cb:	83 45 fc 01          	addl   $0x1,-0x4(%rbp)
    32cf:	8b 45 fc             	mov    -0x4(%rbp),%eax
    32d2:	3b 45 d4             	cmp    -0x2c(%rbp),%eax
    32d5:	0f 8c 6f fe ff ff    	jl     314a <find_affected_nets+0x13d>
    32db:	8b 45 f8             	mov    -0x8(%rbp),%eax
    32de:	c9                   	leaveq 
    32df:	c3                   	retq   

00000000000032e0 <find_to>:
    32e0:	55                   	push   %rbp
    32e1:	48 89 e5             	mov    %rsp,%rbp
    32e4:	53                   	push   %rbx
    32e5:	48 83 ec 78          	sub    $0x78,%rsp
    32e9:	ff 15 00 00 00 00    	callq  *0x0(%rip)        # 32ef <find_to+0xf>
    32ef:	89 7d ac             	mov    %edi,-0x54(%rbp)
    32f2:	89 75 a8             	mov    %esi,-0x58(%rbp)
    32f5:	48 89 55 a0          	mov    %rdx,-0x60(%rbp)
    32f9:	f3 0f 11 45 9c       	movss  %xmm0,-0x64(%rbp)
    32fe:	48 89 4d 90          	mov    %rcx,-0x70(%rbp)
    3302:	4c 89 45 88          	mov    %r8,-0x78(%rbp)
    3306:	4c 89 4d 80          	mov    %r9,-0x80(%rbp)
    330a:	8b 05 00 00 00 00    	mov    0x0(%rip),%eax        # 3310 <find_to+0x30>
    3310:	66 0f ef c0          	pxor   %xmm0,%xmm0
    3314:	f3 0f 2a c0          	cvtsi2ss %eax,%xmm0
    3318:	0f 2e 45 9c          	ucomiss -0x64(%rbp),%xmm0
    331c:	76 0b                	jbe    3329 <find_to+0x49>
    331e:	f3 0f 10 45 9c       	movss  -0x64(%rbp),%xmm0
    3323:	f3 0f 2c c0          	cvttss2si %xmm0,%eax
    3327:	eb 12                	jmp    333b <find_to+0x5b>
    3329:	8b 05 00 00 00 00    	mov    0x0(%rip),%eax        # 332f <find_to+0x4f>
    332f:	66 0f ef c0          	pxor   %xmm0,%xmm0
    3333:	f3 0f 2a c0          	cvtsi2ss %eax,%xmm0
    3337:	f3 0f 2c c0          	cvttss2si %xmm0,%eax
    333b:	89 45 e0             	mov    %eax,-0x20(%rbp)
    333e:	8b 05 00 00 00 00    	mov    0x0(%rip),%eax        # 3344 <find_to+0x64>
    3344:	66 0f ef c0          	pxor   %xmm0,%xmm0
    3348:	f3 0f 2a c0          	cvtsi2ss %eax,%xmm0
    334c:	0f 2e 45 9c          	ucomiss -0x64(%rbp),%xmm0
    3350:	76 0b                	jbe    335d <find_to+0x7d>
    3352:	f3 0f 10 45 9c       	movss  -0x64(%rbp),%xmm0
    3357:	f3 0f 2c c0          	cvttss2si %xmm0,%eax
    335b:	eb 12                	jmp    336f <find_to+0x8f>
    335d:	8b 05 00 00 00 00    	mov    0x0(%rip),%eax        # 3363 <find_to+0x83>
    3363:	66 0f ef c0          	pxor   %xmm0,%xmm0
    3367:	f3 0f 2a c0          	cvtsi2ss %eax,%xmm0
    336b:	f3 0f 2c c0          	cvttss2si %xmm0,%eax
    336f:	89 45 dc             	mov    %eax,-0x24(%rbp)
    3372:	8b 45 ac             	mov    -0x54(%rbp),%eax
    3375:	2b 45 e0             	sub    -0x20(%rbp),%eax
    3378:	ba 01 00 00 00       	mov    $0x1,%edx
    337d:	85 c0                	test   %eax,%eax
    337f:	0f 4e c2             	cmovle %edx,%eax
    3382:	89 45 d8             	mov    %eax,-0x28(%rbp)
    3385:	8b 55 ac             	mov    -0x54(%rbp),%edx
    3388:	8b 45 e0             	mov    -0x20(%rbp),%eax
    338b:	01 c2                	add    %eax,%edx
    338d:	8b 05 00 00 00 00    	mov    0x0(%rip),%eax        # 3393 <find_to+0xb3>
    3393:	39 c2                	cmp    %eax,%edx
    3395:	0f 4e c2             	cmovle %edx,%eax
    3398:	89 45 d4             	mov    %eax,-0x2c(%rbp)
    339b:	8b 45 a8             	mov    -0x58(%rbp),%eax
    339e:	2b 45 dc             	sub    -0x24(%rbp),%eax
    33a1:	ba 01 00 00 00       	mov    $0x1,%edx
    33a6:	85 c0                	test   %eax,%eax
    33a8:	0f 4e c2             	cmovle %edx,%eax
    33ab:	89 45 d0             	mov    %eax,-0x30(%rbp)
    33ae:	8b 55 a8             	mov    -0x58(%rbp),%edx
    33b1:	8b 45 dc             	mov    -0x24(%rbp),%eax
    33b4:	01 c2                	add    %eax,%edx
    33b6:	8b 05 00 00 00 00    	mov    0x0(%rip),%eax        # 33bc <find_to+0xdc>
    33bc:	39 c2                	cmp    %eax,%edx
    33be:	0f 4e c2             	cmovle %edx,%eax
    33c1:	89 45 cc             	mov    %eax,-0x34(%rbp)
    33c4:	c7 45 ec 00 00 00 00 	movl   $0x0,-0x14(%rbp)
    33cb:	c7 45 e4 00 00 00 00 	movl   $0x0,-0x1c(%rbp)
    33d2:	48 8b 05 00 00 00 00 	mov    0x0(%rip),%rax        # 33d9 <find_to+0xf9>
    33d9:	48 39 45 a0          	cmp    %rax,-0x60(%rbp)
    33dd:	0f 84 bf 00 00 00    	je     34a2 <find_to+0x1c2>
    33e3:	8b 45 d8             	mov    -0x28(%rbp),%eax
    33e6:	89 45 e8             	mov    %eax,-0x18(%rbp)
    33e9:	eb 49                	jmp    3434 <find_to+0x154>
    33eb:	48 8b 05 00 00 00 00 	mov    0x0(%rip),%rax        # 33f2 <find_to+0x112>
    33f2:	8b 55 e8             	mov    -0x18(%rbp),%edx
    33f5:	48 63 d2             	movslq %edx,%rdx
    33f8:	48 c1 e2 03          	shl    $0x3,%rdx
    33fc:	48 01 d0             	add    %rdx,%rax
    33ff:	48 8b 00             	mov    (%rax),%rax
    3402:	48 83 c0 18          	add    $0x18,%rax
    3406:	48 8b 00             	mov    (%rax),%rax
    3409:	48 3b 45 a0          	cmp    -0x60(%rbp),%rax
    340d:	75 21                	jne    3430 <find_to+0x150>
    340f:	83 45 ec 01          	addl   $0x1,-0x14(%rbp)
    3413:	8b 45 e4             	mov    -0x1c(%rbp),%eax
    3416:	48 98                	cltq   
    3418:	48 8d 14 85 00 00 00 	lea    0x0(,%rax,4),%rdx
    341f:	00 
    3420:	48 8b 45 90          	mov    -0x70(%rbp),%rax
    3424:	48 01 c2             	add    %rax,%rdx
    3427:	8b 45 e8             	mov    -0x18(%rbp),%eax
    342a:	89 02                	mov    %eax,(%rdx)
    342c:	83 45 e4 01          	addl   $0x1,-0x1c(%rbp)
    3430:	83 45 e8 01          	addl   $0x1,-0x18(%rbp)
    3434:	8b 45 e8             	mov    -0x18(%rbp),%eax
    3437:	3b 45 d4             	cmp    -0x2c(%rbp),%eax
    343a:	7e af                	jle    33eb <find_to+0x10b>
    343c:	83 7d ec 00          	cmpl   $0x0,-0x14(%rbp)
    3440:	75 1f                	jne    3461 <find_to+0x181>
    3442:	48 8d 0d 00 00 00 00 	lea    0x0(%rip),%rcx        # 3449 <find_to+0x169>
    3449:	ba b5 06 00 00       	mov    $0x6b5,%edx
    344e:	48 8d 35 00 00 00 00 	lea    0x0(%rip),%rsi        # 3455 <find_to+0x175>
    3455:	48 8d 3d 00 00 00 00 	lea    0x0(%rip),%rdi        # 345c <find_to+0x17c>
    345c:	e8 00 00 00 00       	callq  3461 <find_to+0x181>
    3461:	83 7d ec 01          	cmpl   $0x1,-0x14(%rbp)
    3465:	75 3b                	jne    34a2 <find_to+0x1c2>
    3467:	8b 45 cc             	mov    -0x34(%rbp),%eax
    346a:	2b 45 d0             	sub    -0x30(%rbp),%eax
    346d:	48 8b 55 a0          	mov    -0x60(%rbp),%rdx
    3471:	8b 72 10             	mov    0x10(%rdx),%esi
    3474:	99                   	cltd   
    3475:	f7 fe                	idiv   %esi
    3477:	83 e8 01             	sub    $0x1,%eax
    347a:	85 c0                	test   %eax,%eax
    347c:	7e 1a                	jle    3498 <find_to+0x1b8>
    347e:	48 8b 45 a0          	mov    -0x60(%rbp),%rax
    3482:	8b 50 10             	mov    0x10(%rax),%edx
    3485:	8b 05 00 00 00 00    	mov    0x0(%rip),%eax        # 348b <find_to+0x1ab>
    348b:	89 c1                	mov    %eax,%ecx
    348d:	c1 e9 1f             	shr    $0x1f,%ecx
    3490:	01 c8                	add    %ecx,%eax
    3492:	d1 f8                	sar    %eax
    3494:	39 c2                	cmp    %eax,%edx
    3496:	7e 0a                	jle    34a2 <find_to+0x1c2>
    3498:	b8 00 00 00 00       	mov    $0x0,%eax
    349d:	e9 ff 05 00 00       	jmpq   3aa1 <find_to+0x7c1>
    34a2:	83 7d e0 00          	cmpl   $0x0,-0x20(%rbp)
    34a6:	7e 0b                	jle    34b3 <find_to+0x1d3>
    34a8:	8b 05 00 00 00 00    	mov    0x0(%rip),%eax        # 34ae <find_to+0x1ce>
    34ae:	39 45 e0             	cmp    %eax,-0x20(%rbp)
    34b1:	7e 20                	jle    34d3 <find_to+0x1f3>
    34b3:	8b 45 e0             	mov    -0x20(%rbp),%eax
    34b6:	89 c6                	mov    %eax,%esi
    34b8:	48 8d 3d 00 00 00 00 	lea    0x0(%rip),%rdi        # 34bf <find_to+0x1df>
    34bf:	b8 00 00 00 00       	mov    $0x0,%eax
    34c4:	e8 00 00 00 00       	callq  34c9 <find_to+0x1e9>
    34c9:	bf 01 00 00 00       	mov    $0x1,%edi
    34ce:	e8 00 00 00 00       	callq  34d3 <find_to+0x1f3>
    34d3:	48 8b 05 00 00 00 00 	mov    0x0(%rip),%rax        # 34da <find_to+0x1fa>
    34da:	48 39 45 a0          	cmp    %rax,-0x60(%rbp)
    34de:	0f 85 bf 03 00 00    	jne    38a3 <find_to+0x5c3>
    34e4:	8b 05 00 00 00 00    	mov    0x0(%rip),%eax        # 34ea <find_to+0x20a>
    34ea:	39 45 e0             	cmp    %eax,-0x20(%rbp)
    34ed:	0f 8c 0e 01 00 00    	jl     3601 <find_to+0x321>
    34f3:	bf 03 00 00 00       	mov    $0x3,%edi
    34f8:	e8 00 00 00 00       	callq  34fd <find_to+0x21d>
    34fd:	89 45 c8             	mov    %eax,-0x38(%rbp)
    3500:	8b 45 c8             	mov    -0x38(%rbp),%eax
    3503:	83 f8 01             	cmp    $0x1,%eax
    3506:	74 4f                	je     3557 <find_to+0x277>
    3508:	83 f8 01             	cmp    $0x1,%eax
    350b:	7f 09                	jg     3516 <find_to+0x236>
    350d:	85 c0                	test   %eax,%eax
    350f:	74 18                	je     3529 <find_to+0x249>
    3511:	e9 d5 00 00 00       	jmpq   35eb <find_to+0x30b>
    3516:	83 f8 02             	cmp    $0x2,%eax
    3519:	74 6f                	je     358a <find_to+0x2aa>
    351b:	83 f8 03             	cmp    $0x3,%eax
    351e:	0f 84 99 00 00 00    	je     35bd <find_to+0x2dd>
    3524:	e9 c2 00 00 00       	jmpq   35eb <find_to+0x30b>
    3529:	8b 05 00 00 00 00    	mov    0x0(%rip),%eax        # 352f <find_to+0x24f>
    352f:	83 e8 01             	sub    $0x1,%eax
    3532:	89 c7                	mov    %eax,%edi
    3534:	e8 00 00 00 00       	callq  3539 <find_to+0x259>
    3539:	83 c0 01             	add    $0x1,%eax
    353c:	89 45 c4             	mov    %eax,-0x3c(%rbp)
    353f:	48 8b 45 88          	mov    -0x78(%rbp),%rax
    3543:	c7 00 00 00 00 00    	movl   $0x0,(%rax)
    3549:	48 8b 45 80          	mov    -0x80(%rbp),%rax
    354d:	8b 55 c4             	mov    -0x3c(%rbp),%edx
    3550:	89 10                	mov    %edx,(%rax)
    3552:	e9 6e 04 00 00       	jmpq   39c5 <find_to+0x6e5>
    3557:	8b 05 00 00 00 00    	mov    0x0(%rip),%eax        # 355d <find_to+0x27d>
    355d:	83 e8 01             	sub    $0x1,%eax
    3560:	89 c7                	mov    %eax,%edi
    3562:	e8 00 00 00 00       	callq  3567 <find_to+0x287>
    3567:	83 c0 01             	add    $0x1,%eax
    356a:	89 45 c4             	mov    %eax,-0x3c(%rbp)
    356d:	48 8b 45 88          	mov    -0x78(%rbp),%rax
    3571:	8b 55 c4             	mov    -0x3c(%rbp),%edx
    3574:	89 10                	mov    %edx,(%rax)
    3576:	8b 05 00 00 00 00    	mov    0x0(%rip),%eax        # 357c <find_to+0x29c>
    357c:	8d 50 01             	lea    0x1(%rax),%edx
    357f:	48 8b 45 80          	mov    -0x80(%rbp),%rax
    3583:	89 10                	mov    %edx,(%rax)
    3585:	e9 3b 04 00 00       	jmpq   39c5 <find_to+0x6e5>
    358a:	8b 05 00 00 00 00    	mov    0x0(%rip),%eax        # 3590 <find_to+0x2b0>
    3590:	83 e8 01             	sub    $0x1,%eax
    3593:	89 c7                	mov    %eax,%edi
    3595:	e8 00 00 00 00       	callq  359a <find_to+0x2ba>
    359a:	83 c0 01             	add    $0x1,%eax
    359d:	89 45 c4             	mov    %eax,-0x3c(%rbp)
    35a0:	8b 05 00 00 00 00    	mov    0x0(%rip),%eax        # 35a6 <find_to+0x2c6>
    35a6:	8d 50 01             	lea    0x1(%rax),%edx
    35a9:	48 8b 45 88          	mov    -0x78(%rbp),%rax
    35ad:	89 10                	mov    %edx,(%rax)
    35af:	48 8b 45 80          	mov    -0x80(%rbp),%rax
    35b3:	8b 55 c4             	mov    -0x3c(%rbp),%edx
    35b6:	89 10                	mov    %edx,(%rax)
    35b8:	e9 08 04 00 00       	jmpq   39c5 <find_to+0x6e5>
    35bd:	8b 05 00 00 00 00    	mov    0x0(%rip),%eax        # 35c3 <find_to+0x2e3>
    35c3:	83 e8 01             	sub    $0x1,%eax
    35c6:	89 c7                	mov    %eax,%edi
    35c8:	e8 00 00 00 00       	callq  35cd <find_to+0x2ed>
    35cd:	83 c0 01             	add    $0x1,%eax
    35d0:	89 45 c4             	mov    %eax,-0x3c(%rbp)
    35d3:	48 8b 45 88          	mov    -0x78(%rbp),%rax
    35d7:	8b 55 c4             	mov    -0x3c(%rbp),%edx
    35da:	89 10                	mov    %edx,(%rax)
    35dc:	48 8b 45 80          	mov    -0x80(%rbp),%rax
    35e0:	c7 00 00 00 00 00    	movl   $0x0,(%rax)
    35e6:	e9 da 03 00 00       	jmpq   39c5 <find_to+0x6e5>
    35eb:	48 8d 3d 00 00 00 00 	lea    0x0(%rip),%rdi        # 35f2 <find_to+0x312>
    35f2:	e8 00 00 00 00       	callq  35f7 <find_to+0x317>
    35f7:	bf 01 00 00 00       	mov    $0x1,%edi
    35fc:	e8 00 00 00 00       	callq  3601 <find_to+0x321>
    3601:	83 7d ac 00          	cmpl   $0x0,-0x54(%rbp)
    3605:	0f 85 98 00 00 00    	jne    36a3 <find_to+0x3c3>
    360b:	8b 45 dc             	mov    -0x24(%rbp),%eax
    360e:	01 c0                	add    %eax,%eax
    3610:	89 c7                	mov    %eax,%edi
    3612:	e8 00 00 00 00       	callq  3617 <find_to+0x337>
    3617:	89 45 c4             	mov    %eax,-0x3c(%rbp)
    361a:	8b 45 a8             	mov    -0x58(%rbp),%eax
    361d:	2b 45 dc             	sub    -0x24(%rbp),%eax
    3620:	89 c2                	mov    %eax,%edx
    3622:	8b 45 c4             	mov    -0x3c(%rbp),%eax
    3625:	01 c2                	add    %eax,%edx
    3627:	48 8b 45 80          	mov    -0x80(%rbp),%rax
    362b:	89 10                	mov    %edx,(%rax)
    362d:	48 8b 45 88          	mov    -0x78(%rbp),%rax
    3631:	8b 55 ac             	mov    -0x54(%rbp),%edx
    3634:	89 10                	mov    %edx,(%rax)
    3636:	48 8b 45 80          	mov    -0x80(%rbp),%rax
    363a:	8b 10                	mov    (%rax),%edx
    363c:	8b 05 00 00 00 00    	mov    0x0(%rip),%eax        # 3642 <find_to+0x362>
    3642:	39 c2                	cmp    %eax,%edx
    3644:	7e 2a                	jle    3670 <find_to+0x390>
    3646:	8b 05 00 00 00 00    	mov    0x0(%rip),%eax        # 364c <find_to+0x36c>
    364c:	8d 50 01             	lea    0x1(%rax),%edx
    364f:	48 8b 45 80          	mov    -0x80(%rbp),%rax
    3653:	89 10                	mov    %edx,(%rax)
    3655:	8b 45 e0             	mov    -0x20(%rbp),%eax
    3658:	83 e8 01             	sub    $0x1,%eax
    365b:	89 c7                	mov    %eax,%edi
    365d:	e8 00 00 00 00       	callq  3662 <find_to+0x382>
    3662:	8d 50 01             	lea    0x1(%rax),%edx
    3665:	48 8b 45 88          	mov    -0x78(%rbp),%rax
    3669:	89 10                	mov    %edx,(%rax)
    366b:	e9 55 03 00 00       	jmpq   39c5 <find_to+0x6e5>
    3670:	48 8b 45 80          	mov    -0x80(%rbp),%rax
    3674:	8b 00                	mov    (%rax),%eax
    3676:	85 c0                	test   %eax,%eax
    3678:	0f 8f 47 03 00 00    	jg     39c5 <find_to+0x6e5>
    367e:	48 8b 45 80          	mov    -0x80(%rbp),%rax
    3682:	c7 00 00 00 00 00    	movl   $0x0,(%rax)
    3688:	8b 45 e0             	mov    -0x20(%rbp),%eax
    368b:	83 e8 01             	sub    $0x1,%eax
    368e:	89 c7                	mov    %eax,%edi
    3690:	e8 00 00 00 00       	callq  3695 <find_to+0x3b5>
    3695:	8d 50 01             	lea    0x1(%rax),%edx
    3698:	48 8b 45 88          	mov    -0x78(%rbp),%rax
    369c:	89 10                	mov    %edx,(%rax)
    369e:	e9 22 03 00 00       	jmpq   39c5 <find_to+0x6e5>
    36a3:	8b 05 00 00 00 00    	mov    0x0(%rip),%eax        # 36a9 <find_to+0x3c9>
    36a9:	83 c0 01             	add    $0x1,%eax
    36ac:	3b 45 ac             	cmp    -0x54(%rbp),%eax
    36af:	0f 85 a6 00 00 00    	jne    375b <find_to+0x47b>
    36b5:	8b 45 dc             	mov    -0x24(%rbp),%eax
    36b8:	01 c0                	add    %eax,%eax
    36ba:	89 c7                	mov    %eax,%edi
    36bc:	e8 00 00 00 00       	callq  36c1 <find_to+0x3e1>
    36c1:	89 45 c4             	mov    %eax,-0x3c(%rbp)
    36c4:	8b 45 a8             	mov    -0x58(%rbp),%eax
    36c7:	2b 45 dc             	sub    -0x24(%rbp),%eax
    36ca:	89 c2                	mov    %eax,%edx
    36cc:	8b 45 c4             	mov    -0x3c(%rbp),%eax
    36cf:	01 c2                	add    %eax,%edx
    36d1:	48 8b 45 80          	mov    -0x80(%rbp),%rax
    36d5:	89 10                	mov    %edx,(%rax)
    36d7:	48 8b 45 88          	mov    -0x78(%rbp),%rax
    36db:	8b 55 ac             	mov    -0x54(%rbp),%edx
    36de:	89 10                	mov    %edx,(%rax)
    36e0:	48 8b 45 80          	mov    -0x80(%rbp),%rax
    36e4:	8b 10                	mov    (%rax),%edx
    36e6:	8b 05 00 00 00 00    	mov    0x0(%rip),%eax        # 36ec <find_to+0x40c>
    36ec:	39 c2                	cmp    %eax,%edx
    36ee:	7e 31                	jle    3721 <find_to+0x441>
    36f0:	8b 05 00 00 00 00    	mov    0x0(%rip),%eax        # 36f6 <find_to+0x416>
    36f6:	8d 50 01             	lea    0x1(%rax),%edx
    36f9:	48 8b 45 80          	mov    -0x80(%rbp),%rax
    36fd:	89 10                	mov    %edx,(%rax)
    36ff:	8b 1d 00 00 00 00    	mov    0x0(%rip),%ebx        # 3705 <find_to+0x425>
    3705:	8b 45 e0             	mov    -0x20(%rbp),%eax
    3708:	83 e8 01             	sub    $0x1,%eax
    370b:	89 c7                	mov    %eax,%edi
    370d:	e8 00 00 00 00       	callq  3712 <find_to+0x432>
    3712:	29 c3                	sub    %eax,%ebx
    3714:	89 da                	mov    %ebx,%edx
    3716:	48 8b 45 88          	mov    -0x78(%rbp),%rax
    371a:	89 10                	mov    %edx,(%rax)
    371c:	e9 a4 02 00 00       	jmpq   39c5 <find_to+0x6e5>
    3721:	48 8b 45 80          	mov    -0x80(%rbp),%rax
    3725:	8b 00                	mov    (%rax),%eax
    3727:	85 c0                	test   %eax,%eax
    3729:	0f 8f 96 02 00 00    	jg     39c5 <find_to+0x6e5>
    372f:	48 8b 45 80          	mov    -0x80(%rbp),%rax
    3733:	c7 00 00 00 00 00    	movl   $0x0,(%rax)
    3739:	8b 1d 00 00 00 00    	mov    0x0(%rip),%ebx        # 373f <find_to+0x45f>
    373f:	8b 45 e0             	mov    -0x20(%rbp),%eax
    3742:	83 e8 01             	sub    $0x1,%eax
    3745:	89 c7                	mov    %eax,%edi
    3747:	e8 00 00 00 00       	callq  374c <find_to+0x46c>
    374c:	29 c3                	sub    %eax,%ebx
    374e:	89 da                	mov    %ebx,%edx
    3750:	48 8b 45 88          	mov    -0x78(%rbp),%rax
    3754:	89 10                	mov    %edx,(%rax)
    3756:	e9 6a 02 00 00       	jmpq   39c5 <find_to+0x6e5>
    375b:	83 7d a8 00          	cmpl   $0x0,-0x58(%rbp)
    375f:	0f 85 98 00 00 00    	jne    37fd <find_to+0x51d>
    3765:	8b 45 e0             	mov    -0x20(%rbp),%eax
    3768:	01 c0                	add    %eax,%eax
    376a:	89 c7                	mov    %eax,%edi
    376c:	e8 00 00 00 00       	callq  3771 <find_to+0x491>
    3771:	89 45 c4             	mov    %eax,-0x3c(%rbp)
    3774:	8b 45 ac             	mov    -0x54(%rbp),%eax
    3777:	2b 45 e0             	sub    -0x20(%rbp),%eax
    377a:	89 c2                	mov    %eax,%edx
    377c:	8b 45 c4             	mov    -0x3c(%rbp),%eax
    377f:	01 c2                	add    %eax,%edx
    3781:	48 8b 45 88          	mov    -0x78(%rbp),%rax
    3785:	89 10                	mov    %edx,(%rax)
    3787:	48 8b 45 80          	mov    -0x80(%rbp),%rax
    378b:	8b 55 a8             	mov    -0x58(%rbp),%edx
    378e:	89 10                	mov    %edx,(%rax)
    3790:	48 8b 45 88          	mov    -0x78(%rbp),%rax
    3794:	8b 10                	mov    (%rax),%edx
    3796:	8b 05 00 00 00 00    	mov    0x0(%rip),%eax        # 379c <find_to+0x4bc>
    379c:	39 c2                	cmp    %eax,%edx
    379e:	7e 2a                	jle    37ca <find_to+0x4ea>
    37a0:	8b 05 00 00 00 00    	mov    0x0(%rip),%eax        # 37a6 <find_to+0x4c6>
    37a6:	8d 50 01             	lea    0x1(%rax),%edx
    37a9:	48 8b 45 88          	mov    -0x78(%rbp),%rax
    37ad:	89 10                	mov    %edx,(%rax)
    37af:	8b 45 dc             	mov    -0x24(%rbp),%eax
    37b2:	83 e8 01             	sub    $0x1,%eax
    37b5:	89 c7                	mov    %eax,%edi
    37b7:	e8 00 00 00 00       	callq  37bc <find_to+0x4dc>
    37bc:	8d 50 01             	lea    0x1(%rax),%edx
    37bf:	48 8b 45 80          	mov    -0x80(%rbp),%rax
    37c3:	89 10                	mov    %edx,(%rax)
    37c5:	e9 fb 01 00 00       	jmpq   39c5 <find_to+0x6e5>
    37ca:	48 8b 45 88          	mov    -0x78(%rbp),%rax
    37ce:	8b 00                	mov    (%rax),%eax
    37d0:	85 c0                	test   %eax,%eax
    37d2:	0f 8f ed 01 00 00    	jg     39c5 <find_to+0x6e5>
    37d8:	48 8b 45 88          	mov    -0x78(%rbp),%rax
    37dc:	c7 00 00 00 00 00    	movl   $0x0,(%rax)
    37e2:	8b 45 dc             	mov    -0x24(%rbp),%eax
    37e5:	83 e8 01             	sub    $0x1,%eax
    37e8:	89 c7                	mov    %eax,%edi
    37ea:	e8 00 00 00 00       	callq  37ef <find_to+0x50f>
    37ef:	8d 50 01             	lea    0x1(%rax),%edx
    37f2:	48 8b 45 80          	mov    -0x80(%rbp),%rax
    37f6:	89 10                	mov    %edx,(%rax)
    37f8:	e9 c8 01 00 00       	jmpq   39c5 <find_to+0x6e5>
    37fd:	8b 45 e0             	mov    -0x20(%rbp),%eax
    3800:	01 c0                	add    %eax,%eax
    3802:	89 c7                	mov    %eax,%edi
    3804:	e8 00 00 00 00       	callq  3809 <find_to+0x529>
    3809:	89 45 c4             	mov    %eax,-0x3c(%rbp)
    380c:	8b 45 ac             	mov    -0x54(%rbp),%eax
    380f:	2b 45 e0             	sub    -0x20(%rbp),%eax
    3812:	89 c2                	mov    %eax,%edx
    3814:	8b 45 c4             	mov    -0x3c(%rbp),%eax
    3817:	01 c2                	add    %eax,%edx
    3819:	48 8b 45 88          	mov    -0x78(%rbp),%rax
    381d:	89 10                	mov    %edx,(%rax)
    381f:	48 8b 45 80          	mov    -0x80(%rbp),%rax
    3823:	8b 55 a8             	mov    -0x58(%rbp),%edx
    3826:	89 10                	mov    %edx,(%rax)
    3828:	48 8b 45 88          	mov    -0x78(%rbp),%rax
    382c:	8b 10                	mov    (%rax),%edx
    382e:	8b 05 00 00 00 00    	mov    0x0(%rip),%eax        # 3834 <find_to+0x554>
    3834:	39 c2                	cmp    %eax,%edx
    3836:	7e 31                	jle    3869 <find_to+0x589>
    3838:	8b 05 00 00 00 00    	mov    0x0(%rip),%eax        # 383e <find_to+0x55e>
    383e:	8d 50 01             	lea    0x1(%rax),%edx
    3841:	48 8b 45 88          	mov    -0x78(%rbp),%rax
    3845:	89 10                	mov    %edx,(%rax)
    3847:	8b 1d 00 00 00 00    	mov    0x0(%rip),%ebx        # 384d <find_to+0x56d>
    384d:	8b 45 dc             	mov    -0x24(%rbp),%eax
    3850:	83 e8 01             	sub    $0x1,%eax
    3853:	89 c7                	mov    %eax,%edi
    3855:	e8 00 00 00 00       	callq  385a <find_to+0x57a>
    385a:	29 c3                	sub    %eax,%ebx
    385c:	89 da                	mov    %ebx,%edx
    385e:	48 8b 45 80          	mov    -0x80(%rbp),%rax
    3862:	89 10                	mov    %edx,(%rax)
    3864:	e9 5c 01 00 00       	jmpq   39c5 <find_to+0x6e5>
    3869:	48 8b 45 88          	mov    -0x78(%rbp),%rax
    386d:	8b 00                	mov    (%rax),%eax
    386f:	85 c0                	test   %eax,%eax
    3871:	0f 8f 4e 01 00 00    	jg     39c5 <find_to+0x6e5>
    3877:	48 8b 45 88          	mov    -0x78(%rbp),%rax
    387b:	c7 00 00 00 00 00    	movl   $0x0,(%rax)
    3881:	8b 1d 00 00 00 00    	mov    0x0(%rip),%ebx        # 3887 <find_to+0x5a7>
    3887:	8b 45 dc             	mov    -0x24(%rbp),%eax
    388a:	83 e8 01             	sub    $0x1,%eax
    388d:	89 c7                	mov    %eax,%edi
    388f:	e8 00 00 00 00       	callq  3894 <find_to+0x5b4>
    3894:	29 c3                	sub    %eax,%ebx
    3896:	89 da                	mov    %ebx,%edx
    3898:	48 8b 45 80          	mov    -0x80(%rbp),%rax
    389c:	89 10                	mov    %edx,(%rax)
    389e:	e9 22 01 00 00       	jmpq   39c5 <find_to+0x6e5>
    38a3:	8b 45 ec             	mov    -0x14(%rbp),%eax
    38a6:	83 e8 01             	sub    $0x1,%eax
    38a9:	89 c7                	mov    %eax,%edi
    38ab:	e8 00 00 00 00       	callq  38b0 <find_to+0x5d0>
    38b0:	89 45 c0             	mov    %eax,-0x40(%rbp)
    38b3:	8b 45 cc             	mov    -0x34(%rbp),%eax
    38b6:	2b 45 d0             	sub    -0x30(%rbp),%eax
    38b9:	48 8b 55 a0          	mov    -0x60(%rbp),%rdx
    38bd:	8b 72 10             	mov    0x10(%rdx),%esi
    38c0:	99                   	cltd   
    38c1:	f7 fe                	idiv   %esi
    38c3:	83 e8 01             	sub    $0x1,%eax
    38c6:	ba 00 00 00 00       	mov    $0x0,%edx
    38cb:	85 c0                	test   %eax,%eax
    38cd:	0f 48 c2             	cmovs  %edx,%eax
    38d0:	89 c7                	mov    %eax,%edi
    38d2:	e8 00 00 00 00       	callq  38d7 <find_to+0x5f7>
    38d7:	89 45 bc             	mov    %eax,-0x44(%rbp)
    38da:	8b 45 c0             	mov    -0x40(%rbp),%eax
    38dd:	48 98                	cltq   
    38df:	48 8d 14 85 00 00 00 	lea    0x0(,%rax,4),%rdx
    38e6:	00 
    38e7:	48 8b 45 90          	mov    -0x70(%rbp),%rax
    38eb:	48 01 d0             	add    %rdx,%rax
    38ee:	8b 10                	mov    (%rax),%edx
    38f0:	48 8b 45 88          	mov    -0x78(%rbp),%rax
    38f4:	89 10                	mov    %edx,(%rax)
    38f6:	48 8b 45 a0          	mov    -0x60(%rbp),%rax
    38fa:	8b 40 10             	mov    0x10(%rax),%eax
    38fd:	0f af 45 bc          	imul   -0x44(%rbp),%eax
    3901:	89 c2                	mov    %eax,%edx
    3903:	8b 45 d0             	mov    -0x30(%rbp),%eax
    3906:	01 c2                	add    %eax,%edx
    3908:	48 8b 45 80          	mov    -0x80(%rbp),%rax
    390c:	89 10                	mov    %edx,(%rax)
    390e:	48 8b 45 80          	mov    -0x80(%rbp),%rax
    3912:	8b 08                	mov    (%rax),%ecx
    3914:	48 8b 15 00 00 00 00 	mov    0x0(%rip),%rdx        # 391b <find_to+0x63b>
    391b:	48 8b 45 88          	mov    -0x78(%rbp),%rax
    391f:	8b 00                	mov    (%rax),%eax
    3921:	48 98                	cltq   
    3923:	48 c1 e0 03          	shl    $0x3,%rax
    3927:	48 01 d0             	add    %rdx,%rax
    392a:	48 8b 30             	mov    (%rax),%rsi
    392d:	48 8b 45 80          	mov    -0x80(%rbp),%rax
    3931:	8b 00                	mov    (%rax),%eax
    3933:	48 63 d0             	movslq %eax,%rdx
    3936:	48 89 d0             	mov    %rdx,%rax
    3939:	48 01 c0             	add    %rax,%rax
    393c:	48 01 d0             	add    %rdx,%rax
    393f:	48 c1 e0 03          	shl    $0x3,%rax
    3943:	48 01 f0             	add    %rsi,%rax
    3946:	8b 40 08             	mov    0x8(%rax),%eax
    3949:	29 c1                	sub    %eax,%ecx
    394b:	89 ca                	mov    %ecx,%edx
    394d:	48 8b 45 80          	mov    -0x80(%rbp),%rax
    3951:	89 10                	mov    %edx,(%rax)
    3953:	48 8b 45 88          	mov    -0x78(%rbp),%rax
    3957:	8b 00                	mov    (%rax),%eax
    3959:	85 c0                	test   %eax,%eax
    395b:	7e 10                	jle    396d <find_to+0x68d>
    395d:	48 8b 45 88          	mov    -0x78(%rbp),%rax
    3961:	8b 10                	mov    (%rax),%edx
    3963:	8b 05 00 00 00 00    	mov    0x0(%rip),%eax        # 3969 <find_to+0x689>
    3969:	39 c2                	cmp    %eax,%edx
    396b:	7e 1f                	jle    398c <find_to+0x6ac>
    396d:	48 8d 0d 00 00 00 00 	lea    0x0(%rip),%rcx        # 3974 <find_to+0x694>
    3974:	ba 3d 07 00 00       	mov    $0x73d,%edx
    3979:	48 8d 35 00 00 00 00 	lea    0x0(%rip),%rsi        # 3980 <find_to+0x6a0>
    3980:	48 8d 3d 00 00 00 00 	lea    0x0(%rip),%rdi        # 3987 <find_to+0x6a7>
    3987:	e8 00 00 00 00       	callq  398c <find_to+0x6ac>
    398c:	48 8b 45 80          	mov    -0x80(%rbp),%rax
    3990:	8b 00                	mov    (%rax),%eax
    3992:	85 c0                	test   %eax,%eax
    3994:	7e 10                	jle    39a6 <find_to+0x6c6>
    3996:	48 8b 45 80          	mov    -0x80(%rbp),%rax
    399a:	8b 10                	mov    (%rax),%edx
    399c:	8b 05 00 00 00 00    	mov    0x0(%rip),%eax        # 39a2 <find_to+0x6c2>
    39a2:	39 c2                	cmp    %eax,%edx
    39a4:	7e 1f                	jle    39c5 <find_to+0x6e5>
    39a6:	48 8d 0d 00 00 00 00 	lea    0x0(%rip),%rcx        # 39ad <find_to+0x6cd>
    39ad:	ba 3e 07 00 00       	mov    $0x73e,%edx
    39b2:	48 8d 35 00 00 00 00 	lea    0x0(%rip),%rsi        # 39b9 <find_to+0x6d9>
    39b9:	48 8d 3d 00 00 00 00 	lea    0x0(%rip),%rdi        # 39c0 <find_to+0x6e0>
    39c0:	e8 00 00 00 00       	callq  39c5 <find_to+0x6e5>
    39c5:	48 8b 45 88          	mov    -0x78(%rbp),%rax
    39c9:	8b 00                	mov    (%rax),%eax
    39cb:	3b 45 ac             	cmp    -0x54(%rbp),%eax
    39ce:	75 0f                	jne    39df <find_to+0x6ff>
    39d0:	48 8b 45 80          	mov    -0x80(%rbp),%rax
    39d4:	8b 00                	mov    (%rax),%eax
    39d6:	3b 45 a8             	cmp    -0x58(%rbp),%eax
    39d9:	0f 84 f4 fa ff ff    	je     34d3 <find_to+0x1f3>
    39df:	48 8b 45 88          	mov    -0x78(%rbp),%rax
    39e3:	8b 00                	mov    (%rax),%eax
    39e5:	85 c0                	test   %eax,%eax
    39e7:	78 30                	js     3a19 <find_to+0x739>
    39e9:	48 8b 45 88          	mov    -0x78(%rbp),%rax
    39ed:	8b 00                	mov    (%rax),%eax
    39ef:	8b 15 00 00 00 00    	mov    0x0(%rip),%edx        # 39f5 <find_to+0x715>
    39f5:	83 c2 01             	add    $0x1,%edx
    39f8:	39 d0                	cmp    %edx,%eax
    39fa:	7f 1d                	jg     3a19 <find_to+0x739>
    39fc:	48 8b 45 80          	mov    -0x80(%rbp),%rax
    3a00:	8b 00                	mov    (%rax),%eax
    3a02:	85 c0                	test   %eax,%eax
    3a04:	78 13                	js     3a19 <find_to+0x739>
    3a06:	48 8b 45 80          	mov    -0x80(%rbp),%rax
    3a0a:	8b 00                	mov    (%rax),%eax
    3a0c:	8b 15 00 00 00 00    	mov    0x0(%rip),%edx        # 3a12 <find_to+0x732>
    3a12:	83 c2 01             	add    $0x1,%edx
    3a15:	39 d0                	cmp    %edx,%eax
    3a17:	7e 29                	jle    3a42 <find_to+0x762>
    3a19:	48 8b 45 80          	mov    -0x80(%rbp),%rax
    3a1d:	8b 10                	mov    (%rax),%edx
    3a1f:	48 8b 45 88          	mov    -0x78(%rbp),%rax
    3a23:	8b 00                	mov    (%rax),%eax
    3a25:	89 c6                	mov    %eax,%esi
    3a27:	48 8d 3d 00 00 00 00 	lea    0x0(%rip),%rdi        # 3a2e <find_to+0x74e>
    3a2e:	b8 00 00 00 00       	mov    $0x0,%eax
    3a33:	e8 00 00 00 00       	callq  3a38 <find_to+0x758>
    3a38:	bf 01 00 00 00       	mov    $0x1,%edi
    3a3d:	e8 00 00 00 00       	callq  3a42 <find_to+0x762>
    3a42:	48 8b 15 00 00 00 00 	mov    0x0(%rip),%rdx        # 3a49 <find_to+0x769>
    3a49:	48 8b 45 88          	mov    -0x78(%rbp),%rax
    3a4d:	8b 00                	mov    (%rax),%eax
    3a4f:	48 98                	cltq   
    3a51:	48 c1 e0 03          	shl    $0x3,%rax
    3a55:	48 01 d0             	add    %rdx,%rax
    3a58:	48 8b 08             	mov    (%rax),%rcx
    3a5b:	48 8b 45 80          	mov    -0x80(%rbp),%rax
    3a5f:	8b 00                	mov    (%rax),%eax
    3a61:	48 63 d0             	movslq %eax,%rdx
    3a64:	48 89 d0             	mov    %rdx,%rax
    3a67:	48 01 c0             	add    %rax,%rax
    3a6a:	48 01 d0             	add    %rdx,%rax
    3a6d:	48 c1 e0 03          	shl    $0x3,%rax
    3a71:	48 01 c8             	add    %rcx,%rax
    3a74:	48 8b 00             	mov    (%rax),%rax
    3a77:	48 3b 45 a0          	cmp    -0x60(%rbp),%rax
    3a7b:	74 1f                	je     3a9c <find_to+0x7bc>
    3a7d:	48 8d 0d 00 00 00 00 	lea    0x0(%rip),%rcx        # 3a84 <find_to+0x7a4>
    3a84:	ba 4b 07 00 00       	mov    $0x74b,%edx
    3a89:	48 8d 35 00 00 00 00 	lea    0x0(%rip),%rsi        # 3a90 <find_to+0x7b0>
    3a90:	48 8d 3d 00 00 00 00 	lea    0x0(%rip),%rdi        # 3a97 <find_to+0x7b7>
    3a97:	e8 00 00 00 00       	callq  3a9c <find_to+0x7bc>
    3a9c:	b8 01 00 00 00       	mov    $0x1,%eax
    3aa1:	48 83 c4 78          	add    $0x78,%rsp
    3aa5:	5b                   	pop    %rbx
    3aa6:	5d                   	pop    %rbp
    3aa7:	c3                   	retq   

0000000000003aa8 <assess_swap>:
    3aa8:	55                   	push   %rbp
    3aa9:	48 89 e5             	mov    %rsp,%rbp
    3aac:	48 83 ec 20          	sub    $0x20,%rsp
    3ab0:	ff 15 00 00 00 00    	callq  *0x0(%rip)        # 3ab6 <assess_swap+0xe>
    3ab6:	f3 0f 11 45 ec       	movss  %xmm0,-0x14(%rbp)
    3abb:	f3 0f 11 4d e8       	movss  %xmm1,-0x18(%rbp)
    3ac0:	66 0f ef c0          	pxor   %xmm0,%xmm0
    3ac4:	0f 2e 45 ec          	ucomiss -0x14(%rbp),%xmm0
    3ac8:	72 0c                	jb     3ad6 <assess_swap+0x2e>
    3aca:	c7 45 fc 01 00 00 00 	movl   $0x1,-0x4(%rbp)
    3ad1:	8b 45 fc             	mov    -0x4(%rbp),%eax
    3ad4:	eb 6c                	jmp    3b42 <assess_swap+0x9a>
    3ad6:	66 0f ef c0          	pxor   %xmm0,%xmm0
    3ada:	0f 2e 45 e8          	ucomiss -0x18(%rbp),%xmm0
    3ade:	7a 11                	jp     3af1 <assess_swap+0x49>
    3ae0:	66 0f ef c0          	pxor   %xmm0,%xmm0
    3ae4:	0f 2e 45 e8          	ucomiss -0x18(%rbp),%xmm0
    3ae8:	75 07                	jne    3af1 <assess_swap+0x49>
    3aea:	b8 00 00 00 00       	mov    $0x0,%eax
    3aef:	eb 51                	jmp    3b42 <assess_swap+0x9a>
    3af1:	e8 00 00 00 00       	callq  3af6 <assess_swap+0x4e>
    3af6:	66 0f 7e c0          	movd   %xmm0,%eax
    3afa:	89 45 f8             	mov    %eax,-0x8(%rbp)
    3afd:	f3 0f 10 4d ec       	movss  -0x14(%rbp),%xmm1
    3b02:	f3 0f 10 05 00 00 00 	movss  0x0(%rip),%xmm0        # 3b0a <assess_swap+0x62>
    3b09:	00 
    3b0a:	0f 57 c1             	xorps  %xmm1,%xmm0
    3b0d:	f3 0f 5e 45 e8       	divss  -0x18(%rbp),%xmm0
    3b12:	f3 0f 5a c0          	cvtss2sd %xmm0,%xmm0
    3b16:	e8 00 00 00 00       	callq  3b1b <assess_swap+0x73>
    3b1b:	f2 0f 5a d0          	cvtsd2ss %xmm0,%xmm2
    3b1f:	f3 0f 11 55 f4       	movss  %xmm2,-0xc(%rbp)
    3b24:	f3 0f 10 45 f4       	movss  -0xc(%rbp),%xmm0
    3b29:	0f 2e 45 f8          	ucomiss -0x8(%rbp),%xmm0
    3b2d:	76 09                	jbe    3b38 <assess_swap+0x90>
    3b2f:	c7 45 fc 01 00 00 00 	movl   $0x1,-0x4(%rbp)
    3b36:	eb 07                	jmp    3b3f <assess_swap+0x97>
    3b38:	c7 45 fc 00 00 00 00 	movl   $0x0,-0x4(%rbp)
    3b3f:	8b 45 fc             	mov    -0x4(%rbp),%eax
    3b42:	c9                   	leaveq 
    3b43:	c3                   	retq   

0000000000003b44 <recompute_bb_cost>:
    3b44:	55                   	push   %rbp
    3b45:	48 89 e5             	mov    %rsp,%rbp
    3b48:	48 83 ec 20          	sub    $0x20,%rsp
    3b4c:	ff 15 00 00 00 00    	callq  *0x0(%rip)        # 3b52 <recompute_bb_cost+0xe>
    3b52:	89 7d ec             	mov    %edi,-0x14(%rbp)
    3b55:	89 75 e8             	mov    %esi,-0x18(%rbp)
    3b58:	66 0f ef c0          	pxor   %xmm0,%xmm0
    3b5c:	f3 0f 11 45 f0       	movss  %xmm0,-0x10(%rbp)
    3b61:	83 7d ec 01          	cmpl   $0x1,-0x14(%rbp)
    3b65:	0f 85 84 00 00 00    	jne    3bef <recompute_bb_cost+0xab>
    3b6b:	c7 45 fc 00 00 00 00 	movl   $0x0,-0x4(%rbp)
    3b72:	eb 73                	jmp    3be7 <recompute_bb_cost+0xa3>
    3b74:	c7 45 f8 00 00 00 00 	movl   $0x0,-0x8(%rbp)
    3b7b:	eb 5e                	jmp    3bdb <recompute_bb_cost+0x97>
    3b7d:	48 8b 05 00 00 00 00 	mov    0x0(%rip),%rax        # 3b84 <recompute_bb_cost+0x40>
    3b84:	8b 55 fc             	mov    -0x4(%rbp),%edx
    3b87:	48 63 d2             	movslq %edx,%rdx
    3b8a:	48 c1 e2 03          	shl    $0x3,%rdx
    3b8e:	48 01 d0             	add    %rdx,%rax
    3b91:	48 8b 00             	mov    (%rax),%rax
    3b94:	8b 55 f8             	mov    -0x8(%rbp),%edx
    3b97:	48 63 d2             	movslq %edx,%rdx
    3b9a:	48 c1 e2 04          	shl    $0x4,%rdx
    3b9e:	48 01 d0             	add    %rdx,%rax
    3ba1:	66 0f ef c0          	pxor   %xmm0,%xmm0
    3ba5:	f3 0f 11 40 08       	movss  %xmm0,0x8(%rax)
    3baa:	48 8b 05 00 00 00 00 	mov    0x0(%rip),%rax        # 3bb1 <recompute_bb_cost+0x6d>
    3bb1:	8b 55 fc             	mov    -0x4(%rbp),%edx
    3bb4:	48 63 d2             	movslq %edx,%rdx
    3bb7:	48 c1 e2 03          	shl    $0x3,%rdx
    3bbb:	48 01 d0             	add    %rdx,%rax
    3bbe:	48 8b 00             	mov    (%rax),%rax
    3bc1:	8b 55 f8             	mov    -0x8(%rbp),%edx
    3bc4:	48 63 d2             	movslq %edx,%rdx
    3bc7:	48 c1 e2 04          	shl    $0x4,%rdx
    3bcb:	48 01 d0             	add    %rdx,%rax
    3bce:	66 0f ef c0          	pxor   %xmm0,%xmm0
    3bd2:	f3 0f 11 40 08       	movss  %xmm0,0x8(%rax)
    3bd7:	83 45 f8 01          	addl   $0x1,-0x8(%rbp)
    3bdb:	8b 45 f8             	mov    -0x8(%rbp),%eax
    3bde:	3b 45 e8             	cmp    -0x18(%rbp),%eax
    3be1:	7c 9a                	jl     3b7d <recompute_bb_cost+0x39>
    3be3:	83 45 fc 01          	addl   $0x1,-0x4(%rbp)
    3be7:	8b 45 fc             	mov    -0x4(%rbp),%eax
    3bea:	3b 45 e8             	cmp    -0x18(%rbp),%eax
    3bed:	7c 85                	jl     3b74 <recompute_bb_cost+0x30>
    3bef:	c7 45 f4 00 00 00 00 	movl   $0x0,-0xc(%rbp)
    3bf6:	e9 80 00 00 00       	jmpq   3c7b <recompute_bb_cost+0x137>
    3bfb:	48 8b 0d 00 00 00 00 	mov    0x0(%rip),%rcx        # 3c02 <recompute_bb_cost+0xbe>
    3c02:	8b 45 f4             	mov    -0xc(%rbp),%eax
    3c05:	48 63 d0             	movslq %eax,%rdx
    3c08:	48 89 d0             	mov    %rdx,%rax
    3c0b:	48 c1 e0 02          	shl    $0x2,%rax
    3c0f:	48 01 d0             	add    %rdx,%rax
    3c12:	48 c1 e0 03          	shl    $0x3,%rax
    3c16:	48 01 c8             	add    %rcx,%rax
    3c19:	8b 40 20             	mov    0x20(%rax),%eax
    3c1c:	85 c0                	test   %eax,%eax
    3c1e:	75 57                	jne    3c77 <recompute_bb_cost+0x133>
    3c20:	83 7d ec 01          	cmpl   $0x1,-0x14(%rbp)
    3c24:	74 28                	je     3c4e <recompute_bb_cost+0x10a>
    3c26:	48 8b 05 00 00 00 00 	mov    0x0(%rip),%rax        # 3c2d <recompute_bb_cost+0xe9>
    3c2d:	8b 55 f4             	mov    -0xc(%rbp),%edx
    3c30:	48 63 d2             	movslq %edx,%rdx
    3c33:	48 c1 e2 02          	shl    $0x2,%rdx
    3c37:	48 01 d0             	add    %rdx,%rax
    3c3a:	f3 0f 10 00          	movss  (%rax),%xmm0
    3c3e:	f3 0f 10 4d f0       	movss  -0x10(%rbp),%xmm1
    3c43:	f3 0f 58 c1          	addss  %xmm1,%xmm0
    3c47:	f3 0f 11 45 f0       	movss  %xmm0,-0x10(%rbp)
    3c4c:	eb 29                	jmp    3c77 <recompute_bb_cost+0x133>
    3c4e:	48 8b 05 00 00 00 00 	mov    0x0(%rip),%rax        # 3c55 <recompute_bb_cost+0x111>
    3c55:	8b 55 f4             	mov    -0xc(%rbp),%edx
    3c58:	48 63 d2             	movslq %edx,%rdx
    3c5b:	48 c1 e2 04          	shl    $0x4,%rdx
    3c5f:	48 8d 34 10          	lea    (%rax,%rdx,1),%rsi
    3c63:	8b 55 e8             	mov    -0x18(%rbp),%edx
    3c66:	8b 45 f4             	mov    -0xc(%rbp),%eax
    3c69:	89 d1                	mov    %edx,%ecx
    3c6b:	ba 01 00 00 00       	mov    $0x1,%edx
    3c70:	89 c7                	mov    %eax,%edi
    3c72:	e8 8b 19 00 00       	callq  5602 <update_region_occ>
    3c77:	83 45 f4 01          	addl   $0x1,-0xc(%rbp)
    3c7b:	8b 05 00 00 00 00    	mov    0x0(%rip),%eax        # 3c81 <recompute_bb_cost+0x13d>
    3c81:	39 45 f4             	cmp    %eax,-0xc(%rbp)
    3c84:	0f 8c 71 ff ff ff    	jl     3bfb <recompute_bb_cost+0xb7>
    3c8a:	83 7d ec 01          	cmpl   $0x1,-0x14(%rbp)
    3c8e:	75 11                	jne    3ca1 <recompute_bb_cost+0x15d>
    3c90:	8b 45 e8             	mov    -0x18(%rbp),%eax
    3c93:	89 c7                	mov    %eax,%edi
    3c95:	e8 b1 16 00 00       	callq  534b <nonlinear_cong_cost>
    3c9a:	66 0f 7e c0          	movd   %xmm0,%eax
    3c9e:	89 45 f0             	mov    %eax,-0x10(%rbp)
    3ca1:	f3 0f 10 45 f0       	movss  -0x10(%rbp),%xmm0
    3ca6:	c9                   	leaveq 
    3ca7:	c3                   	retq   

0000000000003ca8 <comp_td_point_to_point_delay>:
    3ca8:	55                   	push   %rbp
    3ca9:	48 89 e5             	mov    %rsp,%rbp
    3cac:	48 83 ec 40          	sub    $0x40,%rsp
    3cb0:	ff 15 00 00 00 00    	callq  *0x0(%rip)        # 3cb6 <comp_td_point_to_point_delay+0xe>
    3cb6:	89 7d cc             	mov    %edi,-0x34(%rbp)
    3cb9:	89 75 c8             	mov    %esi,-0x38(%rbp)
    3cbc:	66 0f ef c0          	pxor   %xmm0,%xmm0
    3cc0:	f3 0f 11 45 fc       	movss  %xmm0,-0x4(%rbp)
    3cc5:	48 8b 0d 00 00 00 00 	mov    0x0(%rip),%rcx        # 3ccc <comp_td_point_to_point_delay+0x24>
    3ccc:	8b 45 cc             	mov    -0x34(%rbp),%eax
    3ccf:	48 63 d0             	movslq %eax,%rdx
    3cd2:	48 89 d0             	mov    %rdx,%rax
    3cd5:	48 c1 e0 02          	shl    $0x2,%rax
    3cd9:	48 01 d0             	add    %rdx,%rax
    3cdc:	48 c1 e0 03          	shl    $0x3,%rax
    3ce0:	48 01 c8             	add    %rcx,%rax
    3ce3:	48 8b 40 10          	mov    0x10(%rax),%rax
    3ce7:	8b 00                	mov    (%rax),%eax
    3ce9:	89 45 f8             	mov    %eax,-0x8(%rbp)
    3cec:	48 8b 0d 00 00 00 00 	mov    0x0(%rip),%rcx        # 3cf3 <comp_td_point_to_point_delay+0x4b>
    3cf3:	8b 45 f8             	mov    -0x8(%rbp),%eax
    3cf6:	48 63 d0             	movslq %eax,%rdx
    3cf9:	48 89 d0             	mov    %rdx,%rax
    3cfc:	48 c1 e0 02          	shl    $0x2,%rax
    3d00:	48 01 d0             	add    %rdx,%rax
    3d03:	48 c1 e0 03          	shl    $0x3,%rax
    3d07:	48 01 c8             	add    %rcx,%rax
    3d0a:	48 8b 40 08          	mov    0x8(%rax),%rax
    3d0e:	48 89 45 f0          	mov    %rax,-0x10(%rbp)
    3d12:	48 8b 0d 00 00 00 00 	mov    0x0(%rip),%rcx        # 3d19 <comp_td_point_to_point_delay+0x71>
    3d19:	8b 45 cc             	mov    -0x34(%rbp),%eax
    3d1c:	48 63 d0             	movslq %eax,%rdx
    3d1f:	48 89 d0             	mov    %rdx,%rax
    3d22:	48 c1 e0 02          	shl    $0x2,%rax
    3d26:	48 01 d0             	add    %rdx,%rax
    3d29:	48 c1 e0 03          	shl    $0x3,%rax
    3d2d:	48 01 c8             	add    %rcx,%rax
    3d30:	48 8b 40 10          	mov    0x10(%rax),%rax
    3d34:	8b 55 c8             	mov    -0x38(%rbp),%edx
    3d37:	48 63 d2             	movslq %edx,%rdx
    3d3a:	48 c1 e2 02          	shl    $0x2,%rdx
    3d3e:	48 01 d0             	add    %rdx,%rax
    3d41:	8b 00                	mov    (%rax),%eax
    3d43:	89 45 ec             	mov    %eax,-0x14(%rbp)
    3d46:	48 8b 0d 00 00 00 00 	mov    0x0(%rip),%rcx        # 3d4d <comp_td_point_to_point_delay+0xa5>
    3d4d:	8b 45 ec             	mov    -0x14(%rbp),%eax
    3d50:	48 63 d0             	movslq %eax,%rdx
    3d53:	48 89 d0             	mov    %rdx,%rax
    3d56:	48 c1 e0 02          	shl    $0x2,%rax
    3d5a:	48 01 d0             	add    %rdx,%rax
    3d5d:	48 c1 e0 03          	shl    $0x3,%rax
    3d61:	48 01 c8             	add    %rcx,%rax
    3d64:	48 8b 40 08          	mov    0x8(%rax),%rax
    3d68:	48 89 45 e0          	mov    %rax,-0x20(%rbp)
    3d6c:	48 83 7d f0 00       	cmpq   $0x0,-0x10(%rbp)
    3d71:	75 1f                	jne    3d92 <comp_td_point_to_point_delay+0xea>
    3d73:	48 8d 0d 00 00 00 00 	lea    0x0(%rip),%rcx        # 3d7a <comp_td_point_to_point_delay+0xd2>
    3d7a:	ba c3 07 00 00       	mov    $0x7c3,%edx
    3d7f:	48 8d 35 00 00 00 00 	lea    0x0(%rip),%rsi        # 3d86 <comp_td_point_to_point_delay+0xde>
    3d86:	48 8d 3d 00 00 00 00 	lea    0x0(%rip),%rdi        # 3d8d <comp_td_point_to_point_delay+0xe5>
    3d8d:	e8 00 00 00 00       	callq  3d92 <comp_td_point_to_point_delay+0xea>
    3d92:	48 83 7d e0 00       	cmpq   $0x0,-0x20(%rbp)
    3d97:	75 1f                	jne    3db8 <comp_td_point_to_point_delay+0x110>
    3d99:	48 8d 0d 00 00 00 00 	lea    0x0(%rip),%rcx        # 3da0 <comp_td_point_to_point_delay+0xf8>
    3da0:	ba c4 07 00 00       	mov    $0x7c4,%edx
    3da5:	48 8d 35 00 00 00 00 	lea    0x0(%rip),%rsi        # 3dac <comp_td_point_to_point_delay+0x104>
    3dac:	48 8d 3d 00 00 00 00 	lea    0x0(%rip),%rdi        # 3db3 <comp_td_point_to_point_delay+0x10b>
    3db3:	e8 00 00 00 00       	callq  3db8 <comp_td_point_to_point_delay+0x110>
    3db8:	48 8b 0d 00 00 00 00 	mov    0x0(%rip),%rcx        # 3dbf <comp_td_point_to_point_delay+0x117>
    3dbf:	8b 45 ec             	mov    -0x14(%rbp),%eax
    3dc2:	48 63 d0             	movslq %eax,%rdx
    3dc5:	48 89 d0             	mov    %rdx,%rax
    3dc8:	48 c1 e0 02          	shl    $0x2,%rax
    3dcc:	48 01 d0             	add    %rdx,%rax
    3dcf:	48 c1 e0 03          	shl    $0x3,%rax
    3dd3:	48 01 c8             	add    %rcx,%rax
    3dd6:	8b 48 18             	mov    0x18(%rax),%ecx
    3dd9:	48 8b 35 00 00 00 00 	mov    0x0(%rip),%rsi        # 3de0 <comp_td_point_to_point_delay+0x138>
    3de0:	8b 45 f8             	mov    -0x8(%rbp),%eax
    3de3:	48 63 d0             	movslq %eax,%rdx
    3de6:	48 89 d0             	mov    %rdx,%rax
    3de9:	48 c1 e0 02          	shl    $0x2,%rax
    3ded:	48 01 d0             	add    %rdx,%rax
    3df0:	48 c1 e0 03          	shl    $0x3,%rax
    3df4:	48 01 f0             	add    %rsi,%rax
    3df7:	8b 40 18             	mov    0x18(%rax),%eax
    3dfa:	29 c1                	sub    %eax,%ecx
    3dfc:	89 ca                	mov    %ecx,%edx
    3dfe:	89 d0                	mov    %edx,%eax
    3e00:	c1 f8 1f             	sar    $0x1f,%eax
    3e03:	31 c2                	xor    %eax,%edx
    3e05:	89 55 dc             	mov    %edx,-0x24(%rbp)
    3e08:	29 45 dc             	sub    %eax,-0x24(%rbp)
    3e0b:	48 8b 0d 00 00 00 00 	mov    0x0(%rip),%rcx        # 3e12 <comp_td_point_to_point_delay+0x16a>
    3e12:	8b 45 ec             	mov    -0x14(%rbp),%eax
    3e15:	48 63 d0             	movslq %eax,%rdx
    3e18:	48 89 d0             	mov    %rdx,%rax
    3e1b:	48 c1 e0 02          	shl    $0x2,%rax
    3e1f:	48 01 d0             	add    %rdx,%rax
    3e22:	48 c1 e0 03          	shl    $0x3,%rax
    3e26:	48 01 c8             	add    %rcx,%rax
    3e29:	8b 48 1c             	mov    0x1c(%rax),%ecx
    3e2c:	48 8b 35 00 00 00 00 	mov    0x0(%rip),%rsi        # 3e33 <comp_td_point_to_point_delay+0x18b>
    3e33:	8b 45 f8             	mov    -0x8(%rbp),%eax
    3e36:	48 63 d0             	movslq %eax,%rdx
    3e39:	48 89 d0             	mov    %rdx,%rax
    3e3c:	48 c1 e0 02          	shl    $0x2,%rax
    3e40:	48 01 d0             	add    %rdx,%rax
    3e43:	48 c1 e0 03          	shl    $0x3,%rax
    3e47:	48 01 f0             	add    %rsi,%rax
    3e4a:	8b 40 1c             	mov    0x1c(%rax),%eax
    3e4d:	29 c1                	sub    %eax,%ecx
    3e4f:	89 ca                	mov    %ecx,%edx
    3e51:	89 d0                	mov    %edx,%eax
    3e53:	c1 f8 1f             	sar    $0x1f,%eax
    3e56:	31 c2                	xor    %eax,%edx
    3e58:	89 55 d8             	mov    %edx,-0x28(%rbp)
    3e5b:	29 45 d8             	sub    %eax,-0x28(%rbp)
    3e5e:	48 8b 05 00 00 00 00 	mov    0x0(%rip),%rax        # 3e65 <comp_td_point_to_point_delay+0x1bd>
    3e65:	48 39 45 f0          	cmp    %rax,-0x10(%rbp)
    3e69:	75 6e                	jne    3ed9 <comp_td_point_to_point_delay+0x231>
    3e6b:	48 8b 05 00 00 00 00 	mov    0x0(%rip),%rax        # 3e72 <comp_td_point_to_point_delay+0x1ca>
    3e72:	48 39 45 e0          	cmp    %rax,-0x20(%rbp)
    3e76:	75 32                	jne    3eaa <comp_td_point_to_point_delay+0x202>
    3e78:	48 8b 05 00 00 00 00 	mov    0x0(%rip),%rax        # 3e7f <comp_td_point_to_point_delay+0x1d7>
    3e7f:	8b 55 dc             	mov    -0x24(%rbp),%edx
    3e82:	48 63 d2             	movslq %edx,%rdx
    3e85:	48 c1 e2 03          	shl    $0x3,%rdx
    3e89:	48 01 d0             	add    %rdx,%rax
    3e8c:	48 8b 00             	mov    (%rax),%rax
    3e8f:	8b 55 d8             	mov    -0x28(%rbp),%edx
    3e92:	48 63 d2             	movslq %edx,%rdx
    3e95:	48 c1 e2 02          	shl    $0x2,%rdx
    3e99:	48 01 d0             	add    %rdx,%rax
    3e9c:	f3 0f 10 00          	movss  (%rax),%xmm0
    3ea0:	f3 0f 11 45 fc       	movss  %xmm0,-0x4(%rbp)
    3ea5:	e9 98 00 00 00       	jmpq   3f42 <comp_td_point_to_point_delay+0x29a>
    3eaa:	48 8b 05 00 00 00 00 	mov    0x0(%rip),%rax        # 3eb1 <comp_td_point_to_point_delay+0x209>
    3eb1:	8b 55 dc             	mov    -0x24(%rbp),%edx
    3eb4:	48 63 d2             	movslq %edx,%rdx
    3eb7:	48 c1 e2 03          	shl    $0x3,%rdx
    3ebb:	48 01 d0             	add    %rdx,%rax
    3ebe:	48 8b 00             	mov    (%rax),%rax
    3ec1:	8b 55 d8             	mov    -0x28(%rbp),%edx
    3ec4:	48 63 d2             	movslq %edx,%rdx
    3ec7:	48 c1 e2 02          	shl    $0x2,%rdx
    3ecb:	48 01 d0             	add    %rdx,%rax
    3ece:	f3 0f 10 00          	movss  (%rax),%xmm0
    3ed2:	f3 0f 11 45 fc       	movss  %xmm0,-0x4(%rbp)
    3ed7:	eb 69                	jmp    3f42 <comp_td_point_to_point_delay+0x29a>
    3ed9:	48 8b 05 00 00 00 00 	mov    0x0(%rip),%rax        # 3ee0 <comp_td_point_to_point_delay+0x238>
    3ee0:	48 39 45 e0          	cmp    %rax,-0x20(%rbp)
    3ee4:	75 2f                	jne    3f15 <comp_td_point_to_point_delay+0x26d>
    3ee6:	48 8b 05 00 00 00 00 	mov    0x0(%rip),%rax        # 3eed <comp_td_point_to_point_delay+0x245>
    3eed:	8b 55 dc             	mov    -0x24(%rbp),%edx
    3ef0:	48 63 d2             	movslq %edx,%rdx
    3ef3:	48 c1 e2 03          	shl    $0x3,%rdx
    3ef7:	48 01 d0             	add    %rdx,%rax
    3efa:	48 8b 00             	mov    (%rax),%rax
    3efd:	8b 55 d8             	mov    -0x28(%rbp),%edx
    3f00:	48 63 d2             	movslq %edx,%rdx
    3f03:	48 c1 e2 02          	shl    $0x2,%rdx
    3f07:	48 01 d0             	add    %rdx,%rax
    3f0a:	f3 0f 10 00          	movss  (%rax),%xmm0
    3f0e:	f3 0f 11 45 fc       	movss  %xmm0,-0x4(%rbp)
    3f13:	eb 2d                	jmp    3f42 <comp_td_point_to_point_delay+0x29a>
    3f15:	48 8b 05 00 00 00 00 	mov    0x0(%rip),%rax        # 3f1c <comp_td_point_to_point_delay+0x274>
    3f1c:	8b 55 dc             	mov    -0x24(%rbp),%edx
    3f1f:	48 63 d2             	movslq %edx,%rdx
    3f22:	48 c1 e2 03          	shl    $0x3,%rdx
    3f26:	48 01 d0             	add    %rdx,%rax
    3f29:	48 8b 00             	mov    (%rax),%rax
    3f2c:	8b 55 d8             	mov    -0x28(%rbp),%edx
    3f2f:	48 63 d2             	movslq %edx,%rdx
    3f32:	48 c1 e2 02          	shl    $0x2,%rdx
    3f36:	48 01 d0             	add    %rdx,%rax
    3f39:	f3 0f 10 00          	movss  (%rax),%xmm0
    3f3d:	f3 0f 11 45 fc       	movss  %xmm0,-0x4(%rbp)
    3f42:	66 0f ef c0          	pxor   %xmm0,%xmm0
    3f46:	0f 2e 45 fc          	ucomiss -0x4(%rbp),%xmm0
    3f4a:	76 16                	jbe    3f62 <comp_td_point_to_point_delay+0x2ba>
    3f4c:	48 8d 3d 00 00 00 00 	lea    0x0(%rip),%rdi        # 3f53 <comp_td_point_to_point_delay+0x2ab>
    3f53:	e8 00 00 00 00       	callq  3f58 <comp_td_point_to_point_delay+0x2b0>
    3f58:	bf 01 00 00 00       	mov    $0x1,%edi
    3f5d:	e8 00 00 00 00       	callq  3f62 <comp_td_point_to_point_delay+0x2ba>
    3f62:	66 0f ef c0          	pxor   %xmm0,%xmm0
    3f66:	0f 2e 45 fc          	ucomiss -0x4(%rbp),%xmm0
    3f6a:	76 16                	jbe    3f82 <comp_td_point_to_point_delay+0x2da>
    3f6c:	48 8d 3d 00 00 00 00 	lea    0x0(%rip),%rdi        # 3f73 <comp_td_point_to_point_delay+0x2cb>
    3f73:	e8 00 00 00 00       	callq  3f78 <comp_td_point_to_point_delay+0x2d0>
    3f78:	bf 01 00 00 00       	mov    $0x1,%edi
    3f7d:	e8 00 00 00 00       	callq  3f82 <comp_td_point_to_point_delay+0x2da>
    3f82:	f3 0f 10 45 fc       	movss  -0x4(%rbp),%xmm0
    3f87:	c9                   	leaveq 
    3f88:	c3                   	retq   

0000000000003f89 <update_td_cost>:
    3f89:	55                   	push   %rbp
    3f8a:	48 89 e5             	mov    %rsp,%rbp
    3f8d:	48 83 ec 20          	sub    $0x20,%rsp
    3f91:	ff 15 00 00 00 00    	callq  *0x0(%rip)        # 3f97 <update_td_cost+0xe>
    3f97:	89 7d ec             	mov    %edi,-0x14(%rbp)
    3f9a:	89 75 e8             	mov    %esi,-0x18(%rbp)
    3f9d:	89 55 e4             	mov    %edx,-0x1c(%rbp)
    3fa0:	c7 45 fc 00 00 00 00 	movl   $0x0,-0x4(%rbp)
    3fa7:	e9 3d 03 00 00       	jmpq   42e9 <update_td_cost+0x360>
    3fac:	48 8b 0d 00 00 00 00 	mov    0x0(%rip),%rcx        # 3fb3 <update_td_cost+0x2a>
    3fb3:	8b 45 ec             	mov    -0x14(%rbp),%eax
    3fb6:	48 63 d0             	movslq %eax,%rdx
    3fb9:	48 89 d0             	mov    %rdx,%rax
    3fbc:	48 c1 e0 02          	shl    $0x2,%rax
    3fc0:	48 01 d0             	add    %rdx,%rax
    3fc3:	48 c1 e0 03          	shl    $0x3,%rax
    3fc7:	48 01 c8             	add    %rcx,%rax
    3fca:	48 8b 40 10          	mov    0x10(%rax),%rax
    3fce:	8b 55 fc             	mov    -0x4(%rbp),%edx
    3fd1:	48 63 d2             	movslq %edx,%rdx
    3fd4:	48 c1 e2 02          	shl    $0x2,%rdx
    3fd8:	48 01 d0             	add    %rdx,%rax
    3fdb:	8b 00                	mov    (%rax),%eax
    3fdd:	89 45 f4             	mov    %eax,-0xc(%rbp)
    3fe0:	83 7d f4 ff          	cmpl   $0xffffffff,-0xc(%rbp)
    3fe4:	0f 84 f7 02 00 00    	je     42e1 <update_td_cost+0x358>
    3fea:	48 8b 0d 00 00 00 00 	mov    0x0(%rip),%rcx        # 3ff1 <update_td_cost+0x68>
    3ff1:	8b 45 f4             	mov    -0xc(%rbp),%eax
    3ff4:	48 63 d0             	movslq %eax,%rdx
    3ff7:	48 89 d0             	mov    %rdx,%rax
    3ffa:	48 c1 e0 02          	shl    $0x2,%rax
    3ffe:	48 01 d0             	add    %rdx,%rax
    4001:	48 c1 e0 03          	shl    $0x3,%rax
    4005:	48 01 c8             	add    %rcx,%rax
    4008:	8b 40 20             	mov    0x20(%rax),%eax
    400b:	85 c0                	test   %eax,%eax
    400d:	0f 85 d1 02 00 00    	jne    42e4 <update_td_cost+0x35b>
    4013:	48 8b 05 00 00 00 00 	mov    0x0(%rip),%rax        # 401a <update_td_cost+0x91>
    401a:	8b 55 ec             	mov    -0x14(%rbp),%edx
    401d:	48 63 d2             	movslq %edx,%rdx
    4020:	48 c1 e2 03          	shl    $0x3,%rdx
    4024:	48 01 d0             	add    %rdx,%rax
    4027:	48 8b 00             	mov    (%rax),%rax
    402a:	8b 55 fc             	mov    -0x4(%rbp),%edx
    402d:	48 63 d2             	movslq %edx,%rdx
    4030:	48 c1 e2 02          	shl    $0x2,%rdx
    4034:	48 01 d0             	add    %rdx,%rax
    4037:	8b 00                	mov    (%rax),%eax
    4039:	89 45 f0             	mov    %eax,-0x10(%rbp)
    403c:	83 7d f0 00          	cmpl   $0x0,-0x10(%rbp)
    4040:	0f 84 5f 01 00 00    	je     41a5 <update_td_cost+0x21c>
    4046:	48 8b 0d 00 00 00 00 	mov    0x0(%rip),%rcx        # 404d <update_td_cost+0xc4>
    404d:	8b 45 f4             	mov    -0xc(%rbp),%eax
    4050:	48 63 d0             	movslq %eax,%rdx
    4053:	48 89 d0             	mov    %rdx,%rax
    4056:	48 c1 e0 02          	shl    $0x2,%rax
    405a:	48 01 d0             	add    %rdx,%rax
    405d:	48 c1 e0 03          	shl    $0x3,%rax
    4061:	48 01 c8             	add    %rcx,%rax
    4064:	48 8b 40 10          	mov    0x10(%rax),%rax
    4068:	8b 00                	mov    (%rax),%eax
    406a:	3b 45 e8             	cmp    -0x18(%rbp),%eax
    406d:	0f 84 72 02 00 00    	je     42e5 <update_td_cost+0x35c>
    4073:	48 8b 0d 00 00 00 00 	mov    0x0(%rip),%rcx        # 407a <update_td_cost+0xf1>
    407a:	8b 45 f4             	mov    -0xc(%rbp),%eax
    407d:	48 63 d0             	movslq %eax,%rdx
    4080:	48 89 d0             	mov    %rdx,%rax
    4083:	48 c1 e0 02          	shl    $0x2,%rax
    4087:	48 01 d0             	add    %rdx,%rax
    408a:	48 c1 e0 03          	shl    $0x3,%rax
    408e:	48 01 c8             	add    %rcx,%rax
    4091:	48 8b 40 10          	mov    0x10(%rax),%rax
    4095:	8b 00                	mov    (%rax),%eax
    4097:	3b 45 ec             	cmp    -0x14(%rbp),%eax
    409a:	0f 84 45 02 00 00    	je     42e5 <update_td_cost+0x35c>
    40a0:	48 8b 05 00 00 00 00 	mov    0x0(%rip),%rax        # 40a7 <update_td_cost+0x11e>
    40a7:	8b 55 f4             	mov    -0xc(%rbp),%edx
    40aa:	48 63 d2             	movslq %edx,%rdx
    40ad:	48 c1 e2 03          	shl    $0x3,%rdx
    40b1:	48 01 d0             	add    %rdx,%rax
    40b4:	48 8b 00             	mov    (%rax),%rax
    40b7:	8b 55 f0             	mov    -0x10(%rbp),%edx
    40ba:	48 63 d2             	movslq %edx,%rdx
    40bd:	48 c1 e2 02          	shl    $0x2,%rdx
    40c1:	48 01 d0             	add    %rdx,%rax
    40c4:	48 8b 15 00 00 00 00 	mov    0x0(%rip),%rdx        # 40cb <update_td_cost+0x142>
    40cb:	8b 4d f4             	mov    -0xc(%rbp),%ecx
    40ce:	48 63 c9             	movslq %ecx,%rcx
    40d1:	48 c1 e1 03          	shl    $0x3,%rcx
    40d5:	48 01 ca             	add    %rcx,%rdx
    40d8:	48 8b 12             	mov    (%rdx),%rdx
    40db:	8b 4d f0             	mov    -0x10(%rbp),%ecx
    40de:	48 63 c9             	movslq %ecx,%rcx
    40e1:	48 c1 e1 02          	shl    $0x2,%rcx
    40e5:	48 01 ca             	add    %rcx,%rdx
    40e8:	f3 0f 10 02          	movss  (%rdx),%xmm0
    40ec:	f3 0f 11 00          	movss  %xmm0,(%rax)
    40f0:	48 8b 05 00 00 00 00 	mov    0x0(%rip),%rax        # 40f7 <update_td_cost+0x16e>
    40f7:	8b 55 f4             	mov    -0xc(%rbp),%edx
    40fa:	48 63 d2             	movslq %edx,%rdx
    40fd:	48 c1 e2 03          	shl    $0x3,%rdx
    4101:	48 01 d0             	add    %rdx,%rax
    4104:	48 8b 00             	mov    (%rax),%rax
    4107:	8b 55 f0             	mov    -0x10(%rbp),%edx
    410a:	48 63 d2             	movslq %edx,%rdx
    410d:	48 c1 e2 02          	shl    $0x2,%rdx
    4111:	48 01 d0             	add    %rdx,%rax
    4114:	f3 0f 10 05 00 00 00 	movss  0x0(%rip),%xmm0        # 411c <update_td_cost+0x193>
    411b:	00 
    411c:	f3 0f 11 00          	movss  %xmm0,(%rax)
    4120:	48 8b 05 00 00 00 00 	mov    0x0(%rip),%rax        # 4127 <update_td_cost+0x19e>
    4127:	8b 55 f4             	mov    -0xc(%rbp),%edx
    412a:	48 63 d2             	movslq %edx,%rdx
    412d:	48 c1 e2 03          	shl    $0x3,%rdx
    4131:	48 01 d0             	add    %rdx,%rax
    4134:	48 8b 00             	mov    (%rax),%rax
    4137:	8b 55 f0             	mov    -0x10(%rbp),%edx
    413a:	48 63 d2             	movslq %edx,%rdx
    413d:	48 c1 e2 02          	shl    $0x2,%rdx
    4141:	48 01 d0             	add    %rdx,%rax
    4144:	48 8b 15 00 00 00 00 	mov    0x0(%rip),%rdx        # 414b <update_td_cost+0x1c2>
    414b:	8b 4d f4             	mov    -0xc(%rbp),%ecx
    414e:	48 63 c9             	movslq %ecx,%rcx
    4151:	48 c1 e1 03          	shl    $0x3,%rcx
    4155:	48 01 ca             	add    %rcx,%rdx
    4158:	48 8b 12             	mov    (%rdx),%rdx
    415b:	8b 4d f0             	mov    -0x10(%rbp),%ecx
    415e:	48 63 c9             	movslq %ecx,%rcx
    4161:	48 c1 e1 02          	shl    $0x2,%rcx
    4165:	48 01 ca             	add    %rcx,%rdx
    4168:	f3 0f 10 02          	movss  (%rdx),%xmm0
    416c:	f3 0f 11 00          	movss  %xmm0,(%rax)
    4170:	48 8b 05 00 00 00 00 	mov    0x0(%rip),%rax        # 4177 <update_td_cost+0x1ee>
    4177:	8b 55 f4             	mov    -0xc(%rbp),%edx
    417a:	48 63 d2             	movslq %edx,%rdx
    417d:	48 c1 e2 03          	shl    $0x3,%rdx
    4181:	48 01 d0             	add    %rdx,%rax
    4184:	48 8b 00             	mov    (%rax),%rax
    4187:	8b 55 f0             	mov    -0x10(%rbp),%edx
    418a:	48 63 d2             	movslq %edx,%rdx
    418d:	48 c1 e2 02          	shl    $0x2,%rdx
    4191:	48 01 d0             	add    %rdx,%rax
    4194:	f3 0f 10 05 00 00 00 	movss  0x0(%rip),%xmm0        # 419c <update_td_cost+0x213>
    419b:	00 
    419c:	f3 0f 11 00          	movss  %xmm0,(%rax)
    41a0:	e9 40 01 00 00       	jmpq   42e5 <update_td_cost+0x35c>
    41a5:	c7 45 f8 01 00 00 00 	movl   $0x1,-0x8(%rbp)
    41ac:	e9 04 01 00 00       	jmpq   42b5 <update_td_cost+0x32c>
    41b1:	48 8b 05 00 00 00 00 	mov    0x0(%rip),%rax        # 41b8 <update_td_cost+0x22f>
    41b8:	8b 55 f4             	mov    -0xc(%rbp),%edx
    41bb:	48 63 d2             	movslq %edx,%rdx
    41be:	48 c1 e2 03          	shl    $0x3,%rdx
    41c2:	48 01 d0             	add    %rdx,%rax
    41c5:	48 8b 00             	mov    (%rax),%rax
    41c8:	8b 55 f8             	mov    -0x8(%rbp),%edx
    41cb:	48 63 d2             	movslq %edx,%rdx
    41ce:	48 c1 e2 02          	shl    $0x2,%rdx
    41d2:	48 01 d0             	add    %rdx,%rax
    41d5:	48 8b 15 00 00 00 00 	mov    0x0(%rip),%rdx        # 41dc <update_td_cost+0x253>
    41dc:	8b 4d f4             	mov    -0xc(%rbp),%ecx
    41df:	48 63 c9             	movslq %ecx,%rcx
    41e2:	48 c1 e1 03          	shl    $0x3,%rcx
    41e6:	48 01 ca             	add    %rcx,%rdx
    41e9:	48 8b 12             	mov    (%rdx),%rdx
    41ec:	8b 4d f8             	mov    -0x8(%rbp),%ecx
    41ef:	48 63 c9             	movslq %ecx,%rcx
    41f2:	48 c1 e1 02          	shl    $0x2,%rcx
    41f6:	48 01 ca             	add    %rcx,%rdx
    41f9:	f3 0f 10 02          	movss  (%rdx),%xmm0
    41fd:	f3 0f 11 00          	movss  %xmm0,(%rax)
    4201:	48 8b 05 00 00 00 00 	mov    0x0(%rip),%rax        # 4208 <update_td_cost+0x27f>
    4208:	8b 55 f4             	mov    -0xc(%rbp),%edx
    420b:	48 63 d2             	movslq %edx,%rdx
    420e:	48 c1 e2 03          	shl    $0x3,%rdx
    4212:	48 01 d0             	add    %rdx,%rax
    4215:	48 8b 00             	mov    (%rax),%rax
    4218:	8b 55 f8             	mov    -0x8(%rbp),%edx
    421b:	48 63 d2             	movslq %edx,%rdx
    421e:	48 c1 e2 02          	shl    $0x2,%rdx
    4222:	48 01 d0             	add    %rdx,%rax
    4225:	f3 0f 10 05 00 00 00 	movss  0x0(%rip),%xmm0        # 422d <update_td_cost+0x2a4>
    422c:	00 
    422d:	f3 0f 11 00          	movss  %xmm0,(%rax)
    4231:	48 8b 05 00 00 00 00 	mov    0x0(%rip),%rax        # 4238 <update_td_cost+0x2af>
    4238:	8b 55 f4             	mov    -0xc(%rbp),%edx
    423b:	48 63 d2             	movslq %edx,%rdx
    423e:	48 c1 e2 03          	shl    $0x3,%rdx
    4242:	48 01 d0             	add    %rdx,%rax
    4245:	48 8b 00             	mov    (%rax),%rax
    4248:	8b 55 f8             	mov    -0x8(%rbp),%edx
    424b:	48 63 d2             	movslq %edx,%rdx
    424e:	48 c1 e2 02          	shl    $0x2,%rdx
    4252:	48 01 d0             	add    %rdx,%rax
    4255:	48 8b 15 00 00 00 00 	mov    0x0(%rip),%rdx        # 425c <update_td_cost+0x2d3>
    425c:	8b 4d f4             	mov    -0xc(%rbp),%ecx
    425f:	48 63 c9             	movslq %ecx,%rcx
    4262:	48 c1 e1 03          	shl    $0x3,%rcx
    4266:	48 01 ca             	add    %rcx,%rdx
    4269:	48 8b 12             	mov    (%rdx),%rdx
    426c:	8b 4d f8             	mov    -0x8(%rbp),%ecx
    426f:	48 63 c9             	movslq %ecx,%rcx
    4272:	48 c1 e1 02          	shl    $0x2,%rcx
    4276:	48 01 ca             	add    %rcx,%rdx
    4279:	f3 0f 10 02          	movss  (%rdx),%xmm0
    427d:	f3 0f 11 00          	movss  %xmm0,(%rax)
    4281:	48 8b 05 00 00 00 00 	mov    0x0(%rip),%rax        # 4288 <update_td_cost+0x2ff>
    4288:	8b 55 f4             	mov    -0xc(%rbp),%edx
    428b:	48 63 d2             	movslq %edx,%rdx
    428e:	48 c1 e2 03          	shl    $0x3,%rdx
    4292:	48 01 d0             	add    %rdx,%rax
    4295:	48 8b 00             	mov    (%rax),%rax
    4298:	8b 55 f8             	mov    -0x8(%rbp),%edx
    429b:	48 63 d2             	movslq %edx,%rdx
    429e:	48 c1 e2 02          	shl    $0x2,%rdx
    42a2:	48 01 d0             	add    %rdx,%rax
    42a5:	f3 0f 10 05 00 00 00 	movss  0x0(%rip),%xmm0        # 42ad <update_td_cost+0x324>
    42ac:	00 
    42ad:	f3 0f 11 00          	movss  %xmm0,(%rax)
    42b1:	83 45 f8 01          	addl   $0x1,-0x8(%rbp)
    42b5:	48 8b 0d 00 00 00 00 	mov    0x0(%rip),%rcx        # 42bc <update_td_cost+0x333>
    42bc:	8b 45 f4             	mov    -0xc(%rbp),%eax
    42bf:	48 63 d0             	movslq %eax,%rdx
    42c2:	48 89 d0             	mov    %rdx,%rax
    42c5:	48 c1 e0 02          	shl    $0x2,%rax
    42c9:	48 01 d0             	add    %rdx,%rax
    42cc:	48 c1 e0 03          	shl    $0x3,%rax
    42d0:	48 01 c8             	add    %rcx,%rax
    42d3:	8b 40 08             	mov    0x8(%rax),%eax
    42d6:	3b 45 f8             	cmp    -0x8(%rbp),%eax
    42d9:	0f 8d d2 fe ff ff    	jge    41b1 <update_td_cost+0x228>
    42df:	eb 04                	jmp    42e5 <update_td_cost+0x35c>
    42e1:	90                   	nop
    42e2:	eb 01                	jmp    42e5 <update_td_cost+0x35c>
    42e4:	90                   	nop
    42e5:	83 45 fc 01          	addl   $0x1,-0x4(%rbp)
    42e9:	8b 45 fc             	mov    -0x4(%rbp),%eax
    42ec:	3b 45 e4             	cmp    -0x1c(%rbp),%eax
    42ef:	0f 8c b7 fc ff ff    	jl     3fac <update_td_cost+0x23>
    42f5:	83 7d e8 ff          	cmpl   $0xffffffff,-0x18(%rbp)
    42f9:	0f 84 55 03 00 00    	je     4654 <update_td_cost+0x6cb>
    42ff:	c7 45 fc 00 00 00 00 	movl   $0x0,-0x4(%rbp)
    4306:	e9 3d 03 00 00       	jmpq   4648 <update_td_cost+0x6bf>
    430b:	48 8b 0d 00 00 00 00 	mov    0x0(%rip),%rcx        # 4312 <update_td_cost+0x389>
    4312:	8b 45 e8             	mov    -0x18(%rbp),%eax
    4315:	48 63 d0             	movslq %eax,%rdx
    4318:	48 89 d0             	mov    %rdx,%rax
    431b:	48 c1 e0 02          	shl    $0x2,%rax
    431f:	48 01 d0             	add    %rdx,%rax
    4322:	48 c1 e0 03          	shl    $0x3,%rax
    4326:	48 01 c8             	add    %rcx,%rax
    4329:	48 8b 40 10          	mov    0x10(%rax),%rax
    432d:	8b 55 fc             	mov    -0x4(%rbp),%edx
    4330:	48 63 d2             	movslq %edx,%rdx
    4333:	48 c1 e2 02          	shl    $0x2,%rdx
    4337:	48 01 d0             	add    %rdx,%rax
    433a:	8b 00                	mov    (%rax),%eax
    433c:	89 45 f4             	mov    %eax,-0xc(%rbp)
    433f:	83 7d f4 ff          	cmpl   $0xffffffff,-0xc(%rbp)
    4343:	0f 84 f7 02 00 00    	je     4640 <update_td_cost+0x6b7>
    4349:	48 8b 0d 00 00 00 00 	mov    0x0(%rip),%rcx        # 4350 <update_td_cost+0x3c7>
    4350:	8b 45 f4             	mov    -0xc(%rbp),%eax
    4353:	48 63 d0             	movslq %eax,%rdx
    4356:	48 89 d0             	mov    %rdx,%rax
    4359:	48 c1 e0 02          	shl    $0x2,%rax
    435d:	48 01 d0             	add    %rdx,%rax
    4360:	48 c1 e0 03          	shl    $0x3,%rax
    4364:	48 01 c8             	add    %rcx,%rax
    4367:	8b 40 20             	mov    0x20(%rax),%eax
    436a:	85 c0                	test   %eax,%eax
    436c:	0f 85 d1 02 00 00    	jne    4643 <update_td_cost+0x6ba>
    4372:	48 8b 05 00 00 00 00 	mov    0x0(%rip),%rax        # 4379 <update_td_cost+0x3f0>
    4379:	8b 55 e8             	mov    -0x18(%rbp),%edx
    437c:	48 63 d2             	movslq %edx,%rdx
    437f:	48 c1 e2 03          	shl    $0x3,%rdx
    4383:	48 01 d0             	add    %rdx,%rax
    4386:	48 8b 00             	mov    (%rax),%rax
    4389:	8b 55 fc             	mov    -0x4(%rbp),%edx
    438c:	48 63 d2             	movslq %edx,%rdx
    438f:	48 c1 e2 02          	shl    $0x2,%rdx
    4393:	48 01 d0             	add    %rdx,%rax
    4396:	8b 00                	mov    (%rax),%eax
    4398:	89 45 f0             	mov    %eax,-0x10(%rbp)
    439b:	83 7d f0 00          	cmpl   $0x0,-0x10(%rbp)
    439f:	0f 84 5f 01 00 00    	je     4504 <update_td_cost+0x57b>
    43a5:	48 8b 0d 00 00 00 00 	mov    0x0(%rip),%rcx        # 43ac <update_td_cost+0x423>
    43ac:	8b 45 f4             	mov    -0xc(%rbp),%eax
    43af:	48 63 d0             	movslq %eax,%rdx
    43b2:	48 89 d0             	mov    %rdx,%rax
    43b5:	48 c1 e0 02          	shl    $0x2,%rax
    43b9:	48 01 d0             	add    %rdx,%rax
    43bc:	48 c1 e0 03          	shl    $0x3,%rax
    43c0:	48 01 c8             	add    %rcx,%rax
    43c3:	48 8b 40 10          	mov    0x10(%rax),%rax
    43c7:	8b 00                	mov    (%rax),%eax
    43c9:	3b 45 e8             	cmp    -0x18(%rbp),%eax
    43cc:	0f 84 72 02 00 00    	je     4644 <update_td_cost+0x6bb>
    43d2:	48 8b 0d 00 00 00 00 	mov    0x0(%rip),%rcx        # 43d9 <update_td_cost+0x450>
    43d9:	8b 45 f4             	mov    -0xc(%rbp),%eax
    43dc:	48 63 d0             	movslq %eax,%rdx
    43df:	48 89 d0             	mov    %rdx,%rax
    43e2:	48 c1 e0 02          	shl    $0x2,%rax
    43e6:	48 01 d0             	add    %rdx,%rax
    43e9:	48 c1 e0 03          	shl    $0x3,%rax
    43ed:	48 01 c8             	add    %rcx,%rax
    43f0:	48 8b 40 10          	mov    0x10(%rax),%rax
    43f4:	8b 00                	mov    (%rax),%eax
    43f6:	3b 45 ec             	cmp    -0x14(%rbp),%eax
    43f9:	0f 84 45 02 00 00    	je     4644 <update_td_cost+0x6bb>
    43ff:	48 8b 05 00 00 00 00 	mov    0x0(%rip),%rax        # 4406 <update_td_cost+0x47d>
    4406:	8b 55 f4             	mov    -0xc(%rbp),%edx
    4409:	48 63 d2             	movslq %edx,%rdx
    440c:	48 c1 e2 03          	shl    $0x3,%rdx
    4410:	48 01 d0             	add    %rdx,%rax
    4413:	48 8b 00             	mov    (%rax),%rax
    4416:	8b 55 f0             	mov    -0x10(%rbp),%edx
    4419:	48 63 d2             	movslq %edx,%rdx
    441c:	48 c1 e2 02          	shl    $0x2,%rdx
    4420:	48 01 d0             	add    %rdx,%rax
    4423:	48 8b 15 00 00 00 00 	mov    0x0(%rip),%rdx        # 442a <update_td_cost+0x4a1>
    442a:	8b 4d f4             	mov    -0xc(%rbp),%ecx
    442d:	48 63 c9             	movslq %ecx,%rcx
    4430:	48 c1 e1 03          	shl    $0x3,%rcx
    4434:	48 01 ca             	add    %rcx,%rdx
    4437:	48 8b 12             	mov    (%rdx),%rdx
    443a:	8b 4d f0             	mov    -0x10(%rbp),%ecx
    443d:	48 63 c9             	movslq %ecx,%rcx
    4440:	48 c1 e1 02          	shl    $0x2,%rcx
    4444:	48 01 ca             	add    %rcx,%rdx
    4447:	f3 0f 10 02          	movss  (%rdx),%xmm0
    444b:	f3 0f 11 00          	movss  %xmm0,(%rax)
    444f:	48 8b 05 00 00 00 00 	mov    0x0(%rip),%rax        # 4456 <update_td_cost+0x4cd>
    4456:	8b 55 f4             	mov    -0xc(%rbp),%edx
    4459:	48 63 d2             	movslq %edx,%rdx
    445c:	48 c1 e2 03          	shl    $0x3,%rdx
    4460:	48 01 d0             	add    %rdx,%rax
    4463:	48 8b 00             	mov    (%rax),%rax
    4466:	8b 55 f0             	mov    -0x10(%rbp),%edx
    4469:	48 63 d2             	movslq %edx,%rdx
    446c:	48 c1 e2 02          	shl    $0x2,%rdx
    4470:	48 01 d0             	add    %rdx,%rax
    4473:	f3 0f 10 05 00 00 00 	movss  0x0(%rip),%xmm0        # 447b <update_td_cost+0x4f2>
    447a:	00 
    447b:	f3 0f 11 00          	movss  %xmm0,(%rax)
    447f:	48 8b 05 00 00 00 00 	mov    0x0(%rip),%rax        # 4486 <update_td_cost+0x4fd>
    4486:	8b 55 f4             	mov    -0xc(%rbp),%edx
    4489:	48 63 d2             	movslq %edx,%rdx
    448c:	48 c1 e2 03          	shl    $0x3,%rdx
    4490:	48 01 d0             	add    %rdx,%rax
    4493:	48 8b 00             	mov    (%rax),%rax
    4496:	8b 55 f0             	mov    -0x10(%rbp),%edx
    4499:	48 63 d2             	movslq %edx,%rdx
    449c:	48 c1 e2 02          	shl    $0x2,%rdx
    44a0:	48 01 d0             	add    %rdx,%rax
    44a3:	48 8b 15 00 00 00 00 	mov    0x0(%rip),%rdx        # 44aa <update_td_cost+0x521>
    44aa:	8b 4d f4             	mov    -0xc(%rbp),%ecx
    44ad:	48 63 c9             	movslq %ecx,%rcx
    44b0:	48 c1 e1 03          	shl    $0x3,%rcx
    44b4:	48 01 ca             	add    %rcx,%rdx
    44b7:	48 8b 12             	mov    (%rdx),%rdx
    44ba:	8b 4d f0             	mov    -0x10(%rbp),%ecx
    44bd:	48 63 c9             	movslq %ecx,%rcx
    44c0:	48 c1 e1 02          	shl    $0x2,%rcx
    44c4:	48 01 ca             	add    %rcx,%rdx
    44c7:	f3 0f 10 02          	movss  (%rdx),%xmm0
    44cb:	f3 0f 11 00          	movss  %xmm0,(%rax)
    44cf:	48 8b 05 00 00 00 00 	mov    0x0(%rip),%rax        # 44d6 <update_td_cost+0x54d>
    44d6:	8b 55 f4             	mov    -0xc(%rbp),%edx
    44d9:	48 63 d2             	movslq %edx,%rdx
    44dc:	48 c1 e2 03          	shl    $0x3,%rdx
    44e0:	48 01 d0             	add    %rdx,%rax
    44e3:	48 8b 00             	mov    (%rax),%rax
    44e6:	8b 55 f0             	mov    -0x10(%rbp),%edx
    44e9:	48 63 d2             	movslq %edx,%rdx
    44ec:	48 c1 e2 02          	shl    $0x2,%rdx
    44f0:	48 01 d0             	add    %rdx,%rax
    44f3:	f3 0f 10 05 00 00 00 	movss  0x0(%rip),%xmm0        # 44fb <update_td_cost+0x572>
    44fa:	00 
    44fb:	f3 0f 11 00          	movss  %xmm0,(%rax)
    44ff:	e9 40 01 00 00       	jmpq   4644 <update_td_cost+0x6bb>
    4504:	c7 45 f8 01 00 00 00 	movl   $0x1,-0x8(%rbp)
    450b:	e9 04 01 00 00       	jmpq   4614 <update_td_cost+0x68b>
    4510:	48 8b 05 00 00 00 00 	mov    0x0(%rip),%rax        # 4517 <update_td_cost+0x58e>
    4517:	8b 55 f4             	mov    -0xc(%rbp),%edx
    451a:	48 63 d2             	movslq %edx,%rdx
    451d:	48 c1 e2 03          	shl    $0x3,%rdx
    4521:	48 01 d0             	add    %rdx,%rax
    4524:	48 8b 00             	mov    (%rax),%rax
    4527:	8b 55 f8             	mov    -0x8(%rbp),%edx
    452a:	48 63 d2             	movslq %edx,%rdx
    452d:	48 c1 e2 02          	shl    $0x2,%rdx
    4531:	48 01 d0             	add    %rdx,%rax
    4534:	48 8b 15 00 00 00 00 	mov    0x0(%rip),%rdx        # 453b <update_td_cost+0x5b2>
    453b:	8b 4d f4             	mov    -0xc(%rbp),%ecx
    453e:	48 63 c9             	movslq %ecx,%rcx
    4541:	48 c1 e1 03          	shl    $0x3,%rcx
    4545:	48 01 ca             	add    %rcx,%rdx
    4548:	48 8b 12             	mov    (%rdx),%rdx
    454b:	8b 4d f8             	mov    -0x8(%rbp),%ecx
    454e:	48 63 c9             	movslq %ecx,%rcx
    4551:	48 c1 e1 02          	shl    $0x2,%rcx
    4555:	48 01 ca             	add    %rcx,%rdx
    4558:	f3 0f 10 02          	movss  (%rdx),%xmm0
    455c:	f3 0f 11 00          	movss  %xmm0,(%rax)
    4560:	48 8b 05 00 00 00 00 	mov    0x0(%rip),%rax        # 4567 <update_td_cost+0x5de>
    4567:	8b 55 f4             	mov    -0xc(%rbp),%edx
    456a:	48 63 d2             	movslq %edx,%rdx
    456d:	48 c1 e2 03          	shl    $0x3,%rdx
    4571:	48 01 d0             	add    %rdx,%rax
    4574:	48 8b 00             	mov    (%rax),%rax
    4577:	8b 55 f8             	mov    -0x8(%rbp),%edx
    457a:	48 63 d2             	movslq %edx,%rdx
    457d:	48 c1 e2 02          	shl    $0x2,%rdx
    4581:	48 01 d0             	add    %rdx,%rax
    4584:	f3 0f 10 05 00 00 00 	movss  0x0(%rip),%xmm0        # 458c <update_td_cost+0x603>
    458b:	00 
    458c:	f3 0f 11 00          	movss  %xmm0,(%rax)
    4590:	48 8b 05 00 00 00 00 	mov    0x0(%rip),%rax        # 4597 <update_td_cost+0x60e>
    4597:	8b 55 f4             	mov    -0xc(%rbp),%edx
    459a:	48 63 d2             	movslq %edx,%rdx
    459d:	48 c1 e2 03          	shl    $0x3,%rdx
    45a1:	48 01 d0             	add    %rdx,%rax
    45a4:	48 8b 00             	mov    (%rax),%rax
    45a7:	8b 55 f8             	mov    -0x8(%rbp),%edx
    45aa:	48 63 d2             	movslq %edx,%rdx
    45ad:	48 c1 e2 02          	shl    $0x2,%rdx
    45b1:	48 01 d0             	add    %rdx,%rax
    45b4:	48 8b 15 00 00 00 00 	mov    0x0(%rip),%rdx        # 45bb <update_td_cost+0x632>
    45bb:	8b 4d f4             	mov    -0xc(%rbp),%ecx
    45be:	48 63 c9             	movslq %ecx,%rcx
    45c1:	48 c1 e1 03          	shl    $0x3,%rcx
    45c5:	48 01 ca             	add    %rcx,%rdx
    45c8:	48 8b 12             	mov    (%rdx),%rdx
    45cb:	8b 4d f8             	mov    -0x8(%rbp),%ecx
    45ce:	48 63 c9             	movslq %ecx,%rcx
    45d1:	48 c1 e1 02          	shl    $0x2,%rcx
    45d5:	48 01 ca             	add    %rcx,%rdx
    45d8:	f3 0f 10 02          	movss  (%rdx),%xmm0
    45dc:	f3 0f 11 00          	movss  %xmm0,(%rax)
    45e0:	48 8b 05 00 00 00 00 	mov    0x0(%rip),%rax        # 45e7 <update_td_cost+0x65e>
    45e7:	8b 55 f4             	mov    -0xc(%rbp),%edx
    45ea:	48 63 d2             	movslq %edx,%rdx
    45ed:	48 c1 e2 03          	shl    $0x3,%rdx
    45f1:	48 01 d0             	add    %rdx,%rax
    45f4:	48 8b 00             	mov    (%rax),%rax
    45f7:	8b 55 f8             	mov    -0x8(%rbp),%edx
    45fa:	48 63 d2             	movslq %edx,%rdx
    45fd:	48 c1 e2 02          	shl    $0x2,%rdx
    4601:	48 01 d0             	add    %rdx,%rax
    4604:	f3 0f 10 05 00 00 00 	movss  0x0(%rip),%xmm0        # 460c <update_td_cost+0x683>
    460b:	00 
    460c:	f3 0f 11 00          	movss  %xmm0,(%rax)
    4610:	83 45 f8 01          	addl   $0x1,-0x8(%rbp)
    4614:	48 8b 0d 00 00 00 00 	mov    0x0(%rip),%rcx        # 461b <update_td_cost+0x692>
    461b:	8b 45 f4             	mov    -0xc(%rbp),%eax
    461e:	48 63 d0             	movslq %eax,%rdx
    4621:	48 89 d0             	mov    %rdx,%rax
    4624:	48 c1 e0 02          	shl    $0x2,%rax
    4628:	48 01 d0             	add    %rdx,%rax
    462b:	48 c1 e0 03          	shl    $0x3,%rax
    462f:	48 01 c8             	add    %rcx,%rax
    4632:	8b 40 08             	mov    0x8(%rax),%eax
    4635:	3b 45 f8             	cmp    -0x8(%rbp),%eax
    4638:	0f 8d d2 fe ff ff    	jge    4510 <update_td_cost+0x587>
    463e:	eb 04                	jmp    4644 <update_td_cost+0x6bb>
    4640:	90                   	nop
    4641:	eb 01                	jmp    4644 <update_td_cost+0x6bb>
    4643:	90                   	nop
    4644:	83 45 fc 01          	addl   $0x1,-0x4(%rbp)
    4648:	8b 45 fc             	mov    -0x4(%rbp),%eax
    464b:	3b 45 e4             	cmp    -0x1c(%rbp),%eax
    464e:	0f 8c b7 fc ff ff    	jl     430b <update_td_cost+0x382>
    4654:	90                   	nop
    4655:	c9                   	leaveq 
    4656:	c3                   	retq   

0000000000004657 <comp_delta_td_cost>:
    4657:	55                   	push   %rbp
    4658:	48 89 e5             	mov    %rsp,%rbp
    465b:	48 83 ec 40          	sub    $0x40,%rsp
    465f:	ff 15 00 00 00 00    	callq  *0x0(%rip)        # 4665 <comp_delta_td_cost+0xe>
    4665:	89 7d dc             	mov    %edi,-0x24(%rbp)
    4668:	89 75 d8             	mov    %esi,-0x28(%rbp)
    466b:	89 55 d4             	mov    %edx,-0x2c(%rbp)
    466e:	48 89 4d c8          	mov    %rcx,-0x38(%rbp)
    4672:	4c 89 45 c0          	mov    %r8,-0x40(%rbp)
    4676:	66 0f ef c0          	pxor   %xmm0,%xmm0
    467a:	f3 0f 11 45 f4       	movss  %xmm0,-0xc(%rbp)
    467f:	66 0f ef c0          	pxor   %xmm0,%xmm0
    4683:	f3 0f 11 45 f0       	movss  %xmm0,-0x10(%rbp)
    4688:	c7 45 fc 00 00 00 00 	movl   $0x0,-0x4(%rbp)
    468f:	e9 f5 03 00 00       	jmpq   4a89 <comp_delta_td_cost+0x432>
    4694:	48 8b 0d 00 00 00 00 	mov    0x0(%rip),%rcx        # 469b <comp_delta_td_cost+0x44>
    469b:	8b 45 dc             	mov    -0x24(%rbp),%eax
    469e:	48 63 d0             	movslq %eax,%rdx
    46a1:	48 89 d0             	mov    %rdx,%rax
    46a4:	48 c1 e0 02          	shl    $0x2,%rax
    46a8:	48 01 d0             	add    %rdx,%rax
    46ab:	48 c1 e0 03          	shl    $0x3,%rax
    46af:	48 01 c8             	add    %rcx,%rax
    46b2:	48 8b 40 10          	mov    0x10(%rax),%rax
    46b6:	8b 55 fc             	mov    -0x4(%rbp),%edx
    46b9:	48 63 d2             	movslq %edx,%rdx
    46bc:	48 c1 e2 02          	shl    $0x2,%rdx
    46c0:	48 01 d0             	add    %rdx,%rax
    46c3:	8b 00                	mov    (%rax),%eax
    46c5:	89 45 ec             	mov    %eax,-0x14(%rbp)
    46c8:	83 7d ec ff          	cmpl   $0xffffffff,-0x14(%rbp)
    46cc:	0f 84 af 03 00 00    	je     4a81 <comp_delta_td_cost+0x42a>
    46d2:	48 8b 0d 00 00 00 00 	mov    0x0(%rip),%rcx        # 46d9 <comp_delta_td_cost+0x82>
    46d9:	8b 45 ec             	mov    -0x14(%rbp),%eax
    46dc:	48 63 d0             	movslq %eax,%rdx
    46df:	48 89 d0             	mov    %rdx,%rax
    46e2:	48 c1 e0 02          	shl    $0x2,%rax
    46e6:	48 01 d0             	add    %rdx,%rax
    46e9:	48 c1 e0 03          	shl    $0x3,%rax
    46ed:	48 01 c8             	add    %rcx,%rax
    46f0:	8b 40 20             	mov    0x20(%rax),%eax
    46f3:	85 c0                	test   %eax,%eax
    46f5:	0f 85 89 03 00 00    	jne    4a84 <comp_delta_td_cost+0x42d>
    46fb:	48 8b 05 00 00 00 00 	mov    0x0(%rip),%rax        # 4702 <comp_delta_td_cost+0xab>
    4702:	8b 55 dc             	mov    -0x24(%rbp),%edx
    4705:	48 63 d2             	movslq %edx,%rdx
    4708:	48 c1 e2 03          	shl    $0x3,%rdx
    470c:	48 01 d0             	add    %rdx,%rax
    470f:	48 8b 00             	mov    (%rax),%rax
    4712:	8b 55 fc             	mov    -0x4(%rbp),%edx
    4715:	48 63 d2             	movslq %edx,%rdx
    4718:	48 c1 e2 02          	shl    $0x2,%rdx
    471c:	48 01 d0             	add    %rdx,%rax
    471f:	8b 00                	mov    (%rax),%eax
    4721:	89 45 e8             	mov    %eax,-0x18(%rbp)
    4724:	83 7d e8 00          	cmpl   $0x0,-0x18(%rbp)
    4728:	0f 84 bb 01 00 00    	je     48e9 <comp_delta_td_cost+0x292>
    472e:	48 8b 0d 00 00 00 00 	mov    0x0(%rip),%rcx        # 4735 <comp_delta_td_cost+0xde>
    4735:	8b 45 ec             	mov    -0x14(%rbp),%eax
    4738:	48 63 d0             	movslq %eax,%rdx
    473b:	48 89 d0             	mov    %rdx,%rax
    473e:	48 c1 e0 02          	shl    $0x2,%rax
    4742:	48 01 d0             	add    %rdx,%rax
    4745:	48 c1 e0 03          	shl    $0x3,%rax
    4749:	48 01 c8             	add    %rcx,%rax
    474c:	48 8b 40 10          	mov    0x10(%rax),%rax
    4750:	8b 00                	mov    (%rax),%eax
    4752:	3b 45 d8             	cmp    -0x28(%rbp),%eax
    4755:	0f 84 2a 03 00 00    	je     4a85 <comp_delta_td_cost+0x42e>
    475b:	48 8b 0d 00 00 00 00 	mov    0x0(%rip),%rcx        # 4762 <comp_delta_td_cost+0x10b>
    4762:	8b 45 ec             	mov    -0x14(%rbp),%eax
    4765:	48 63 d0             	movslq %eax,%rdx
    4768:	48 89 d0             	mov    %rdx,%rax
    476b:	48 c1 e0 02          	shl    $0x2,%rax
    476f:	48 01 d0             	add    %rdx,%rax
    4772:	48 c1 e0 03          	shl    $0x3,%rax
    4776:	48 01 c8             	add    %rcx,%rax
    4779:	48 8b 40 10          	mov    0x10(%rax),%rax
    477d:	8b 00                	mov    (%rax),%eax
    477f:	3b 45 dc             	cmp    -0x24(%rbp),%eax
    4782:	0f 84 fd 02 00 00    	je     4a85 <comp_delta_td_cost+0x42e>
    4788:	8b 55 e8             	mov    -0x18(%rbp),%edx
    478b:	8b 45 ec             	mov    -0x14(%rbp),%eax
    478e:	89 d6                	mov    %edx,%esi
    4790:	89 c7                	mov    %eax,%edi
    4792:	e8 11 f5 ff ff       	callq  3ca8 <comp_td_point_to_point_delay>
    4797:	66 0f 7e c0          	movd   %xmm0,%eax
    479b:	89 45 e4             	mov    %eax,-0x1c(%rbp)
    479e:	48 8b 05 00 00 00 00 	mov    0x0(%rip),%rax        # 47a5 <comp_delta_td_cost+0x14e>
    47a5:	8b 55 ec             	mov    -0x14(%rbp),%edx
    47a8:	48 63 d2             	movslq %edx,%rdx
    47ab:	48 c1 e2 03          	shl    $0x3,%rdx
    47af:	48 01 d0             	add    %rdx,%rax
    47b2:	48 8b 00             	mov    (%rax),%rax
    47b5:	8b 55 e8             	mov    -0x18(%rbp),%edx
    47b8:	48 63 d2             	movslq %edx,%rdx
    47bb:	48 c1 e2 02          	shl    $0x2,%rdx
    47bf:	48 01 d0             	add    %rdx,%rax
    47c2:	f3 0f 10 45 e4       	movss  -0x1c(%rbp),%xmm0
    47c7:	f3 0f 11 00          	movss  %xmm0,(%rax)
    47cb:	48 8b 05 00 00 00 00 	mov    0x0(%rip),%rax        # 47d2 <comp_delta_td_cost+0x17b>
    47d2:	8b 55 ec             	mov    -0x14(%rbp),%edx
    47d5:	48 63 d2             	movslq %edx,%rdx
    47d8:	48 c1 e2 03          	shl    $0x3,%rdx
    47dc:	48 01 d0             	add    %rdx,%rax
    47df:	48 8b 00             	mov    (%rax),%rax
    47e2:	8b 55 e8             	mov    -0x18(%rbp),%edx
    47e5:	48 63 d2             	movslq %edx,%rdx
    47e8:	48 c1 e2 02          	shl    $0x2,%rdx
    47ec:	48 01 d0             	add    %rdx,%rax
    47ef:	48 8b 15 00 00 00 00 	mov    0x0(%rip),%rdx        # 47f6 <comp_delta_td_cost+0x19f>
    47f6:	8b 4d ec             	mov    -0x14(%rbp),%ecx
    47f9:	48 63 c9             	movslq %ecx,%rcx
    47fc:	48 c1 e1 03          	shl    $0x3,%rcx
    4800:	48 01 ca             	add    %rcx,%rdx
    4803:	48 8b 12             	mov    (%rdx),%rdx
    4806:	8b 4d e8             	mov    -0x18(%rbp),%ecx
    4809:	48 63 c9             	movslq %ecx,%rcx
    480c:	48 c1 e1 02          	shl    $0x2,%rcx
    4810:	48 01 ca             	add    %rcx,%rdx
    4813:	f3 0f 10 02          	movss  (%rdx),%xmm0
    4817:	f3 0f 59 45 e4       	mulss  -0x1c(%rbp),%xmm0
    481c:	f3 0f 11 00          	movss  %xmm0,(%rax)
    4820:	48 8b 05 00 00 00 00 	mov    0x0(%rip),%rax        # 4827 <comp_delta_td_cost+0x1d0>
    4827:	8b 55 ec             	mov    -0x14(%rbp),%edx
    482a:	48 63 d2             	movslq %edx,%rdx
    482d:	48 c1 e2 03          	shl    $0x3,%rdx
    4831:	48 01 d0             	add    %rdx,%rax
    4834:	48 8b 00             	mov    (%rax),%rax
    4837:	8b 55 e8             	mov    -0x18(%rbp),%edx
    483a:	48 63 d2             	movslq %edx,%rdx
    483d:	48 c1 e2 02          	shl    $0x2,%rdx
    4841:	48 01 d0             	add    %rdx,%rax
    4844:	f3 0f 10 00          	movss  (%rax),%xmm0
    4848:	48 8b 05 00 00 00 00 	mov    0x0(%rip),%rax        # 484f <comp_delta_td_cost+0x1f8>
    484f:	8b 55 ec             	mov    -0x14(%rbp),%edx
    4852:	48 63 d2             	movslq %edx,%rdx
    4855:	48 c1 e2 03          	shl    $0x3,%rdx
    4859:	48 01 d0             	add    %rdx,%rax
    485c:	48 8b 00             	mov    (%rax),%rax
    485f:	8b 55 e8             	mov    -0x18(%rbp),%edx
    4862:	48 63 d2             	movslq %edx,%rdx
    4865:	48 c1 e2 02          	shl    $0x2,%rdx
    4869:	48 01 d0             	add    %rdx,%rax
    486c:	f3 0f 10 08          	movss  (%rax),%xmm1
    4870:	f3 0f 5c c1          	subss  %xmm1,%xmm0
    4874:	f3 0f 10 4d f0       	movss  -0x10(%rbp),%xmm1
    4879:	f3 0f 58 c1          	addss  %xmm1,%xmm0
    487d:	f3 0f 11 45 f0       	movss  %xmm0,-0x10(%rbp)
    4882:	48 8b 05 00 00 00 00 	mov    0x0(%rip),%rax        # 4889 <comp_delta_td_cost+0x232>
    4889:	8b 55 ec             	mov    -0x14(%rbp),%edx
    488c:	48 63 d2             	movslq %edx,%rdx
    488f:	48 c1 e2 03          	shl    $0x3,%rdx
    4893:	48 01 d0             	add    %rdx,%rax
    4896:	48 8b 00             	mov    (%rax),%rax
    4899:	8b 55 e8             	mov    -0x18(%rbp),%edx
    489c:	48 63 d2             	movslq %edx,%rdx
    489f:	48 c1 e2 02          	shl    $0x2,%rdx
    48a3:	48 01 d0             	add    %rdx,%rax
    48a6:	f3 0f 10 00          	movss  (%rax),%xmm0
    48aa:	48 8b 05 00 00 00 00 	mov    0x0(%rip),%rax        # 48b1 <comp_delta_td_cost+0x25a>
    48b1:	8b 55 ec             	mov    -0x14(%rbp),%edx
    48b4:	48 63 d2             	movslq %edx,%rdx
    48b7:	48 c1 e2 03          	shl    $0x3,%rdx
    48bb:	48 01 d0             	add    %rdx,%rax
    48be:	48 8b 00             	mov    (%rax),%rax
    48c1:	8b 55 e8             	mov    -0x18(%rbp),%edx
    48c4:	48 63 d2             	movslq %edx,%rdx
    48c7:	48 c1 e2 02          	shl    $0x2,%rdx
    48cb:	48 01 d0             	add    %rdx,%rax
    48ce:	f3 0f 10 08          	movss  (%rax),%xmm1
    48d2:	f3 0f 5c c1          	subss  %xmm1,%xmm0
    48d6:	f3 0f 10 4d f4       	movss  -0xc(%rbp),%xmm1
    48db:	f3 0f 58 c1          	addss  %xmm1,%xmm0
    48df:	f3 0f 11 45 f4       	movss  %xmm0,-0xc(%rbp)
    48e4:	e9 9c 01 00 00       	jmpq   4a85 <comp_delta_td_cost+0x42e>
    48e9:	c7 45 f8 01 00 00 00 	movl   $0x1,-0x8(%rbp)
    48f0:	e9 60 01 00 00       	jmpq   4a55 <comp_delta_td_cost+0x3fe>
    48f5:	8b 55 f8             	mov    -0x8(%rbp),%edx
    48f8:	8b 45 ec             	mov    -0x14(%rbp),%eax
    48fb:	89 d6                	mov    %edx,%esi
    48fd:	89 c7                	mov    %eax,%edi
    48ff:	e8 a4 f3 ff ff       	callq  3ca8 <comp_td_point_to_point_delay>
    4904:	66 0f 7e c0          	movd   %xmm0,%eax
    4908:	89 45 e4             	mov    %eax,-0x1c(%rbp)
    490b:	48 8b 05 00 00 00 00 	mov    0x0(%rip),%rax        # 4912 <comp_delta_td_cost+0x2bb>
    4912:	8b 55 ec             	mov    -0x14(%rbp),%edx
    4915:	48 63 d2             	movslq %edx,%rdx
    4918:	48 c1 e2 03          	shl    $0x3,%rdx
    491c:	48 01 d0             	add    %rdx,%rax
    491f:	48 8b 00             	mov    (%rax),%rax
    4922:	8b 55 f8             	mov    -0x8(%rbp),%edx
    4925:	48 63 d2             	movslq %edx,%rdx
    4928:	48 c1 e2 02          	shl    $0x2,%rdx
    492c:	48 01 d0             	add    %rdx,%rax
    492f:	f3 0f 10 45 e4       	movss  -0x1c(%rbp),%xmm0
    4934:	f3 0f 11 00          	movss  %xmm0,(%rax)
    4938:	48 8b 05 00 00 00 00 	mov    0x0(%rip),%rax        # 493f <comp_delta_td_cost+0x2e8>
    493f:	8b 55 ec             	mov    -0x14(%rbp),%edx
    4942:	48 63 d2             	movslq %edx,%rdx
    4945:	48 c1 e2 03          	shl    $0x3,%rdx
    4949:	48 01 d0             	add    %rdx,%rax
    494c:	48 8b 00             	mov    (%rax),%rax
    494f:	8b 55 f8             	mov    -0x8(%rbp),%edx
    4952:	48 63 d2             	movslq %edx,%rdx
    4955:	48 c1 e2 02          	shl    $0x2,%rdx
    4959:	48 01 d0             	add    %rdx,%rax
    495c:	48 8b 15 00 00 00 00 	mov    0x0(%rip),%rdx        # 4963 <comp_delta_td_cost+0x30c>
    4963:	8b 4d ec             	mov    -0x14(%rbp),%ecx
    4966:	48 63 c9             	movslq %ecx,%rcx
    4969:	48 c1 e1 03          	shl    $0x3,%rcx
    496d:	48 01 ca             	add    %rcx,%rdx
    4970:	48 8b 12             	mov    (%rdx),%rdx
    4973:	8b 4d f8             	mov    -0x8(%rbp),%ecx
    4976:	48 63 c9             	movslq %ecx,%rcx
    4979:	48 c1 e1 02          	shl    $0x2,%rcx
    497d:	48 01 ca             	add    %rcx,%rdx
    4980:	f3 0f 10 02          	movss  (%rdx),%xmm0
    4984:	f3 0f 59 45 e4       	mulss  -0x1c(%rbp),%xmm0
    4989:	f3 0f 11 00          	movss  %xmm0,(%rax)
    498d:	48 8b 05 00 00 00 00 	mov    0x0(%rip),%rax        # 4994 <comp_delta_td_cost+0x33d>
    4994:	8b 55 ec             	mov    -0x14(%rbp),%edx
    4997:	48 63 d2             	movslq %edx,%rdx
    499a:	48 c1 e2 03          	shl    $0x3,%rdx
    499e:	48 01 d0             	add    %rdx,%rax
    49a1:	48 8b 00             	mov    (%rax),%rax
    49a4:	8b 55 f8             	mov    -0x8(%rbp),%edx
    49a7:	48 63 d2             	movslq %edx,%rdx
    49aa:	48 c1 e2 02          	shl    $0x2,%rdx
    49ae:	48 01 d0             	add    %rdx,%rax
    49b1:	f3 0f 10 00          	movss  (%rax),%xmm0
    49b5:	48 8b 05 00 00 00 00 	mov    0x0(%rip),%rax        # 49bc <comp_delta_td_cost+0x365>
    49bc:	8b 55 ec             	mov    -0x14(%rbp),%edx
    49bf:	48 63 d2             	movslq %edx,%rdx
    49c2:	48 c1 e2 03          	shl    $0x3,%rdx
    49c6:	48 01 d0             	add    %rdx,%rax
    49c9:	48 8b 00             	mov    (%rax),%rax
    49cc:	8b 55 f8             	mov    -0x8(%rbp),%edx
    49cf:	48 63 d2             	movslq %edx,%rdx
    49d2:	48 c1 e2 02          	shl    $0x2,%rdx
    49d6:	48 01 d0             	add    %rdx,%rax
    49d9:	f3 0f 10 08          	movss  (%rax),%xmm1
    49dd:	f3 0f 5c c1          	subss  %xmm1,%xmm0
    49e1:	f3 0f 10 4d f0       	movss  -0x10(%rbp),%xmm1
    49e6:	f3 0f 58 c1          	addss  %xmm1,%xmm0
    49ea:	f3 0f 11 45 f0       	movss  %xmm0,-0x10(%rbp)
    49ef:	48 8b 05 00 00 00 00 	mov    0x0(%rip),%rax        # 49f6 <comp_delta_td_cost+0x39f>
    49f6:	8b 55 ec             	mov    -0x14(%rbp),%edx
    49f9:	48 63 d2             	movslq %edx,%rdx
    49fc:	48 c1 e2 03          	shl    $0x3,%rdx
    4a00:	48 01 d0             	add    %rdx,%rax
    4a03:	48 8b 00             	mov    (%rax),%rax
    4a06:	8b 55 f8             	mov    -0x8(%rbp),%edx
    4a09:	48 63 d2             	movslq %edx,%rdx
    4a0c:	48 c1 e2 02          	shl    $0x2,%rdx
    4a10:	48 01 d0             	add    %rdx,%rax
    4a13:	f3 0f 10 00          	movss  (%rax),%xmm0
    4a17:	48 8b 05 00 00 00 00 	mov    0x0(%rip),%rax        # 4a1e <comp_delta_td_cost+0x3c7>
    4a1e:	8b 55 ec             	mov    -0x14(%rbp),%edx
    4a21:	48 63 d2             	movslq %edx,%rdx
    4a24:	48 c1 e2 03          	shl    $0x3,%rdx
    4a28:	48 01 d0             	add    %rdx,%rax
    4a2b:	48 8b 00             	mov    (%rax),%rax
    4a2e:	8b 55 f8             	mov    -0x8(%rbp),%edx
    4a31:	48 63 d2             	movslq %edx,%rdx
    4a34:	48 c1 e2 02          	shl    $0x2,%rdx
    4a38:	48 01 d0             	add    %rdx,%rax
    4a3b:	f3 0f 10 08          	movss  (%rax),%xmm1
    4a3f:	f3 0f 5c c1          	subss  %xmm1,%xmm0
    4a43:	f3 0f 10 4d f4       	movss  -0xc(%rbp),%xmm1
    4a48:	f3 0f 58 c1          	addss  %xmm1,%xmm0
    4a4c:	f3 0f 11 45 f4       	movss  %xmm0,-0xc(%rbp)
    4a51:	83 45 f8 01          	addl   $0x1,-0x8(%rbp)
    4a55:	48 8b 0d 00 00 00 00 	mov    0x0(%rip),%rcx        # 4a5c <comp_delta_td_cost+0x405>
    4a5c:	8b 45 ec             	mov    -0x14(%rbp),%eax
    4a5f:	48 63 d0             	movslq %eax,%rdx
    4a62:	48 89 d0             	mov    %rdx,%rax
    4a65:	48 c1 e0 02          	shl    $0x2,%rax
    4a69:	48 01 d0             	add    %rdx,%rax
    4a6c:	48 c1 e0 03          	shl    $0x3,%rax
    4a70:	48 01 c8             	add    %rcx,%rax
    4a73:	8b 40 08             	mov    0x8(%rax),%eax
    4a76:	3b 45 f8             	cmp    -0x8(%rbp),%eax
    4a79:	0f 8d 76 fe ff ff    	jge    48f5 <comp_delta_td_cost+0x29e>
    4a7f:	eb 04                	jmp    4a85 <comp_delta_td_cost+0x42e>
    4a81:	90                   	nop
    4a82:	eb 01                	jmp    4a85 <comp_delta_td_cost+0x42e>
    4a84:	90                   	nop
    4a85:	83 45 fc 01          	addl   $0x1,-0x4(%rbp)
    4a89:	8b 45 fc             	mov    -0x4(%rbp),%eax
    4a8c:	3b 45 d4             	cmp    -0x2c(%rbp),%eax
    4a8f:	0f 8c ff fb ff ff    	jl     4694 <comp_delta_td_cost+0x3d>
    4a95:	83 7d d8 ff          	cmpl   $0xffffffff,-0x28(%rbp)
    4a99:	0f 84 0d 04 00 00    	je     4eac <comp_delta_td_cost+0x855>
    4a9f:	c7 45 fc 00 00 00 00 	movl   $0x0,-0x4(%rbp)
    4aa6:	e9 f5 03 00 00       	jmpq   4ea0 <comp_delta_td_cost+0x849>
    4aab:	48 8b 0d 00 00 00 00 	mov    0x0(%rip),%rcx        # 4ab2 <comp_delta_td_cost+0x45b>
    4ab2:	8b 45 d8             	mov    -0x28(%rbp),%eax
    4ab5:	48 63 d0             	movslq %eax,%rdx
    4ab8:	48 89 d0             	mov    %rdx,%rax
    4abb:	48 c1 e0 02          	shl    $0x2,%rax
    4abf:	48 01 d0             	add    %rdx,%rax
    4ac2:	48 c1 e0 03          	shl    $0x3,%rax
    4ac6:	48 01 c8             	add    %rcx,%rax
    4ac9:	48 8b 40 10          	mov    0x10(%rax),%rax
    4acd:	8b 55 fc             	mov    -0x4(%rbp),%edx
    4ad0:	48 63 d2             	movslq %edx,%rdx
    4ad3:	48 c1 e2 02          	shl    $0x2,%rdx
    4ad7:	48 01 d0             	add    %rdx,%rax
    4ada:	8b 00                	mov    (%rax),%eax
    4adc:	89 45 ec             	mov    %eax,-0x14(%rbp)
    4adf:	83 7d ec ff          	cmpl   $0xffffffff,-0x14(%rbp)
    4ae3:	0f 84 af 03 00 00    	je     4e98 <comp_delta_td_cost+0x841>
    4ae9:	48 8b 0d 00 00 00 00 	mov    0x0(%rip),%rcx        # 4af0 <comp_delta_td_cost+0x499>
    4af0:	8b 45 ec             	mov    -0x14(%rbp),%eax
    4af3:	48 63 d0             	movslq %eax,%rdx
    4af6:	48 89 d0             	mov    %rdx,%rax
    4af9:	48 c1 e0 02          	shl    $0x2,%rax
    4afd:	48 01 d0             	add    %rdx,%rax
    4b00:	48 c1 e0 03          	shl    $0x3,%rax
    4b04:	48 01 c8             	add    %rcx,%rax
    4b07:	8b 40 20             	mov    0x20(%rax),%eax
    4b0a:	85 c0                	test   %eax,%eax
    4b0c:	0f 85 89 03 00 00    	jne    4e9b <comp_delta_td_cost+0x844>
    4b12:	48 8b 05 00 00 00 00 	mov    0x0(%rip),%rax        # 4b19 <comp_delta_td_cost+0x4c2>
    4b19:	8b 55 d8             	mov    -0x28(%rbp),%edx
    4b1c:	48 63 d2             	movslq %edx,%rdx
    4b1f:	48 c1 e2 03          	shl    $0x3,%rdx
    4b23:	48 01 d0             	add    %rdx,%rax
    4b26:	48 8b 00             	mov    (%rax),%rax
    4b29:	8b 55 fc             	mov    -0x4(%rbp),%edx
    4b2c:	48 63 d2             	movslq %edx,%rdx
    4b2f:	48 c1 e2 02          	shl    $0x2,%rdx
    4b33:	48 01 d0             	add    %rdx,%rax
    4b36:	8b 00                	mov    (%rax),%eax
    4b38:	89 45 e8             	mov    %eax,-0x18(%rbp)
    4b3b:	83 7d e8 00          	cmpl   $0x0,-0x18(%rbp)
    4b3f:	0f 84 bb 01 00 00    	je     4d00 <comp_delta_td_cost+0x6a9>
    4b45:	48 8b 0d 00 00 00 00 	mov    0x0(%rip),%rcx        # 4b4c <comp_delta_td_cost+0x4f5>
    4b4c:	8b 45 ec             	mov    -0x14(%rbp),%eax
    4b4f:	48 63 d0             	movslq %eax,%rdx
    4b52:	48 89 d0             	mov    %rdx,%rax
    4b55:	48 c1 e0 02          	shl    $0x2,%rax
    4b59:	48 01 d0             	add    %rdx,%rax
    4b5c:	48 c1 e0 03          	shl    $0x3,%rax
    4b60:	48 01 c8             	add    %rcx,%rax
    4b63:	48 8b 40 10          	mov    0x10(%rax),%rax
    4b67:	8b 00                	mov    (%rax),%eax
    4b69:	3b 45 d8             	cmp    -0x28(%rbp),%eax
    4b6c:	0f 84 2a 03 00 00    	je     4e9c <comp_delta_td_cost+0x845>
    4b72:	48 8b 0d 00 00 00 00 	mov    0x0(%rip),%rcx        # 4b79 <comp_delta_td_cost+0x522>
    4b79:	8b 45 ec             	mov    -0x14(%rbp),%eax
    4b7c:	48 63 d0             	movslq %eax,%rdx
    4b7f:	48 89 d0             	mov    %rdx,%rax
    4b82:	48 c1 e0 02          	shl    $0x2,%rax
    4b86:	48 01 d0             	add    %rdx,%rax
    4b89:	48 c1 e0 03          	shl    $0x3,%rax
    4b8d:	48 01 c8             	add    %rcx,%rax
    4b90:	48 8b 40 10          	mov    0x10(%rax),%rax
    4b94:	8b 00                	mov    (%rax),%eax
    4b96:	3b 45 dc             	cmp    -0x24(%rbp),%eax
    4b99:	0f 84 fd 02 00 00    	je     4e9c <comp_delta_td_cost+0x845>
    4b9f:	8b 55 e8             	mov    -0x18(%rbp),%edx
    4ba2:	8b 45 ec             	mov    -0x14(%rbp),%eax
    4ba5:	89 d6                	mov    %edx,%esi
    4ba7:	89 c7                	mov    %eax,%edi
    4ba9:	e8 fa f0 ff ff       	callq  3ca8 <comp_td_point_to_point_delay>
    4bae:	66 0f 7e c0          	movd   %xmm0,%eax
    4bb2:	89 45 e4             	mov    %eax,-0x1c(%rbp)
    4bb5:	48 8b 05 00 00 00 00 	mov    0x0(%rip),%rax        # 4bbc <comp_delta_td_cost+0x565>
    4bbc:	8b 55 ec             	mov    -0x14(%rbp),%edx
    4bbf:	48 63 d2             	movslq %edx,%rdx
    4bc2:	48 c1 e2 03          	shl    $0x3,%rdx
    4bc6:	48 01 d0             	add    %rdx,%rax
    4bc9:	48 8b 00             	mov    (%rax),%rax
    4bcc:	8b 55 e8             	mov    -0x18(%rbp),%edx
    4bcf:	48 63 d2             	movslq %edx,%rdx
    4bd2:	48 c1 e2 02          	shl    $0x2,%rdx
    4bd6:	48 01 d0             	add    %rdx,%rax
    4bd9:	f3 0f 10 45 e4       	movss  -0x1c(%rbp),%xmm0
    4bde:	f3 0f 11 00          	movss  %xmm0,(%rax)
    4be2:	48 8b 05 00 00 00 00 	mov    0x0(%rip),%rax        # 4be9 <comp_delta_td_cost+0x592>
    4be9:	8b 55 ec             	mov    -0x14(%rbp),%edx
    4bec:	48 63 d2             	movslq %edx,%rdx
    4bef:	48 c1 e2 03          	shl    $0x3,%rdx
    4bf3:	48 01 d0             	add    %rdx,%rax
    4bf6:	48 8b 00             	mov    (%rax),%rax
    4bf9:	8b 55 e8             	mov    -0x18(%rbp),%edx
    4bfc:	48 63 d2             	movslq %edx,%rdx
    4bff:	48 c1 e2 02          	shl    $0x2,%rdx
    4c03:	48 01 d0             	add    %rdx,%rax
    4c06:	48 8b 15 00 00 00 00 	mov    0x0(%rip),%rdx        # 4c0d <comp_delta_td_cost+0x5b6>
    4c0d:	8b 4d ec             	mov    -0x14(%rbp),%ecx
    4c10:	48 63 c9             	movslq %ecx,%rcx
    4c13:	48 c1 e1 03          	shl    $0x3,%rcx
    4c17:	48 01 ca             	add    %rcx,%rdx
    4c1a:	48 8b 12             	mov    (%rdx),%rdx
    4c1d:	8b 4d e8             	mov    -0x18(%rbp),%ecx
    4c20:	48 63 c9             	movslq %ecx,%rcx
    4c23:	48 c1 e1 02          	shl    $0x2,%rcx
    4c27:	48 01 ca             	add    %rcx,%rdx
    4c2a:	f3 0f 10 02          	movss  (%rdx),%xmm0
    4c2e:	f3 0f 59 45 e4       	mulss  -0x1c(%rbp),%xmm0
    4c33:	f3 0f 11 00          	movss  %xmm0,(%rax)
    4c37:	48 8b 05 00 00 00 00 	mov    0x0(%rip),%rax        # 4c3e <comp_delta_td_cost+0x5e7>
    4c3e:	8b 55 ec             	mov    -0x14(%rbp),%edx
    4c41:	48 63 d2             	movslq %edx,%rdx
    4c44:	48 c1 e2 03          	shl    $0x3,%rdx
    4c48:	48 01 d0             	add    %rdx,%rax
    4c4b:	48 8b 00             	mov    (%rax),%rax
    4c4e:	8b 55 e8             	mov    -0x18(%rbp),%edx
    4c51:	48 63 d2             	movslq %edx,%rdx
    4c54:	48 c1 e2 02          	shl    $0x2,%rdx
    4c58:	48 01 d0             	add    %rdx,%rax
    4c5b:	f3 0f 10 00          	movss  (%rax),%xmm0
    4c5f:	48 8b 05 00 00 00 00 	mov    0x0(%rip),%rax        # 4c66 <comp_delta_td_cost+0x60f>
    4c66:	8b 55 ec             	mov    -0x14(%rbp),%edx
    4c69:	48 63 d2             	movslq %edx,%rdx
    4c6c:	48 c1 e2 03          	shl    $0x3,%rdx
    4c70:	48 01 d0             	add    %rdx,%rax
    4c73:	48 8b 00             	mov    (%rax),%rax
    4c76:	8b 55 e8             	mov    -0x18(%rbp),%edx
    4c79:	48 63 d2             	movslq %edx,%rdx
    4c7c:	48 c1 e2 02          	shl    $0x2,%rdx
    4c80:	48 01 d0             	add    %rdx,%rax
    4c83:	f3 0f 10 08          	movss  (%rax),%xmm1
    4c87:	f3 0f 5c c1          	subss  %xmm1,%xmm0
    4c8b:	f3 0f 10 4d f0       	movss  -0x10(%rbp),%xmm1
    4c90:	f3 0f 58 c1          	addss  %xmm1,%xmm0
    4c94:	f3 0f 11 45 f0       	movss  %xmm0,-0x10(%rbp)
    4c99:	48 8b 05 00 00 00 00 	mov    0x0(%rip),%rax        # 4ca0 <comp_delta_td_cost+0x649>
    4ca0:	8b 55 ec             	mov    -0x14(%rbp),%edx
    4ca3:	48 63 d2             	movslq %edx,%rdx
    4ca6:	48 c1 e2 03          	shl    $0x3,%rdx
    4caa:	48 01 d0             	add    %rdx,%rax
    4cad:	48 8b 00             	mov    (%rax),%rax
    4cb0:	8b 55 e8             	mov    -0x18(%rbp),%edx
    4cb3:	48 63 d2             	movslq %edx,%rdx
    4cb6:	48 c1 e2 02          	shl    $0x2,%rdx
    4cba:	48 01 d0             	add    %rdx,%rax
    4cbd:	f3 0f 10 00          	movss  (%rax),%xmm0
    4cc1:	48 8b 05 00 00 00 00 	mov    0x0(%rip),%rax        # 4cc8 <comp_delta_td_cost+0x671>
    4cc8:	8b 55 ec             	mov    -0x14(%rbp),%edx
    4ccb:	48 63 d2             	movslq %edx,%rdx
    4cce:	48 c1 e2 03          	shl    $0x3,%rdx
    4cd2:	48 01 d0             	add    %rdx,%rax
    4cd5:	48 8b 00             	mov    (%rax),%rax
    4cd8:	8b 55 e8             	mov    -0x18(%rbp),%edx
    4cdb:	48 63 d2             	movslq %edx,%rdx
    4cde:	48 c1 e2 02          	shl    $0x2,%rdx
    4ce2:	48 01 d0             	add    %rdx,%rax
    4ce5:	f3 0f 10 08          	movss  (%rax),%xmm1
    4ce9:	f3 0f 5c c1          	subss  %xmm1,%xmm0
    4ced:	f3 0f 10 4d f4       	movss  -0xc(%rbp),%xmm1
    4cf2:	f3 0f 58 c1          	addss  %xmm1,%xmm0
    4cf6:	f3 0f 11 45 f4       	movss  %xmm0,-0xc(%rbp)
    4cfb:	e9 9c 01 00 00       	jmpq   4e9c <comp_delta_td_cost+0x845>
    4d00:	c7 45 f8 01 00 00 00 	movl   $0x1,-0x8(%rbp)
    4d07:	e9 60 01 00 00       	jmpq   4e6c <comp_delta_td_cost+0x815>
    4d0c:	8b 55 f8             	mov    -0x8(%rbp),%edx
    4d0f:	8b 45 ec             	mov    -0x14(%rbp),%eax
    4d12:	89 d6                	mov    %edx,%esi
    4d14:	89 c7                	mov    %eax,%edi
    4d16:	e8 8d ef ff ff       	callq  3ca8 <comp_td_point_to_point_delay>
    4d1b:	66 0f 7e c0          	movd   %xmm0,%eax
    4d1f:	89 45 e4             	mov    %eax,-0x1c(%rbp)
    4d22:	48 8b 05 00 00 00 00 	mov    0x0(%rip),%rax        # 4d29 <comp_delta_td_cost+0x6d2>
    4d29:	8b 55 ec             	mov    -0x14(%rbp),%edx
    4d2c:	48 63 d2             	movslq %edx,%rdx
    4d2f:	48 c1 e2 03          	shl    $0x3,%rdx
    4d33:	48 01 d0             	add    %rdx,%rax
    4d36:	48 8b 00             	mov    (%rax),%rax
    4d39:	8b 55 f8             	mov    -0x8(%rbp),%edx
    4d3c:	48 63 d2             	movslq %edx,%rdx
    4d3f:	48 c1 e2 02          	shl    $0x2,%rdx
    4d43:	48 01 d0             	add    %rdx,%rax
    4d46:	f3 0f 10 45 e4       	movss  -0x1c(%rbp),%xmm0
    4d4b:	f3 0f 11 00          	movss  %xmm0,(%rax)
    4d4f:	48 8b 05 00 00 00 00 	mov    0x0(%rip),%rax        # 4d56 <comp_delta_td_cost+0x6ff>
    4d56:	8b 55 ec             	mov    -0x14(%rbp),%edx
    4d59:	48 63 d2             	movslq %edx,%rdx
    4d5c:	48 c1 e2 03          	shl    $0x3,%rdx
    4d60:	48 01 d0             	add    %rdx,%rax
    4d63:	48 8b 00             	mov    (%rax),%rax
    4d66:	8b 55 f8             	mov    -0x8(%rbp),%edx
    4d69:	48 63 d2             	movslq %edx,%rdx
    4d6c:	48 c1 e2 02          	shl    $0x2,%rdx
    4d70:	48 01 d0             	add    %rdx,%rax
    4d73:	48 8b 15 00 00 00 00 	mov    0x0(%rip),%rdx        # 4d7a <comp_delta_td_cost+0x723>
    4d7a:	8b 4d ec             	mov    -0x14(%rbp),%ecx
    4d7d:	48 63 c9             	movslq %ecx,%rcx
    4d80:	48 c1 e1 03          	shl    $0x3,%rcx
    4d84:	48 01 ca             	add    %rcx,%rdx
    4d87:	48 8b 12             	mov    (%rdx),%rdx
    4d8a:	8b 4d f8             	mov    -0x8(%rbp),%ecx
    4d8d:	48 63 c9             	movslq %ecx,%rcx
    4d90:	48 c1 e1 02          	shl    $0x2,%rcx
    4d94:	48 01 ca             	add    %rcx,%rdx
    4d97:	f3 0f 10 02          	movss  (%rdx),%xmm0
    4d9b:	f3 0f 59 45 e4       	mulss  -0x1c(%rbp),%xmm0
    4da0:	f3 0f 11 00          	movss  %xmm0,(%rax)
    4da4:	48 8b 05 00 00 00 00 	mov    0x0(%rip),%rax        # 4dab <comp_delta_td_cost+0x754>
    4dab:	8b 55 ec             	mov    -0x14(%rbp),%edx
    4dae:	48 63 d2             	movslq %edx,%rdx
    4db1:	48 c1 e2 03          	shl    $0x3,%rdx
    4db5:	48 01 d0             	add    %rdx,%rax
    4db8:	48 8b 00             	mov    (%rax),%rax
    4dbb:	8b 55 f8             	mov    -0x8(%rbp),%edx
    4dbe:	48 63 d2             	movslq %edx,%rdx
    4dc1:	48 c1 e2 02          	shl    $0x2,%rdx
    4dc5:	48 01 d0             	add    %rdx,%rax
    4dc8:	f3 0f 10 00          	movss  (%rax),%xmm0
    4dcc:	48 8b 05 00 00 00 00 	mov    0x0(%rip),%rax        # 4dd3 <comp_delta_td_cost+0x77c>
    4dd3:	8b 55 ec             	mov    -0x14(%rbp),%edx
    4dd6:	48 63 d2             	movslq %edx,%rdx
    4dd9:	48 c1 e2 03          	shl    $0x3,%rdx
    4ddd:	48 01 d0             	add    %rdx,%rax
    4de0:	48 8b 00             	mov    (%rax),%rax
    4de3:	8b 55 f8             	mov    -0x8(%rbp),%edx
    4de6:	48 63 d2             	movslq %edx,%rdx
    4de9:	48 c1 e2 02          	shl    $0x2,%rdx
    4ded:	48 01 d0             	add    %rdx,%rax
    4df0:	f3 0f 10 08          	movss  (%rax),%xmm1
    4df4:	f3 0f 5c c1          	subss  %xmm1,%xmm0
    4df8:	f3 0f 10 4d f0       	movss  -0x10(%rbp),%xmm1
    4dfd:	f3 0f 58 c1          	addss  %xmm1,%xmm0
    4e01:	f3 0f 11 45 f0       	movss  %xmm0,-0x10(%rbp)
    4e06:	48 8b 05 00 00 00 00 	mov    0x0(%rip),%rax        # 4e0d <comp_delta_td_cost+0x7b6>
    4e0d:	8b 55 ec             	mov    -0x14(%rbp),%edx
    4e10:	48 63 d2             	movslq %edx,%rdx
    4e13:	48 c1 e2 03          	shl    $0x3,%rdx
    4e17:	48 01 d0             	add    %rdx,%rax
    4e1a:	48 8b 00             	mov    (%rax),%rax
    4e1d:	8b 55 f8             	mov    -0x8(%rbp),%edx
    4e20:	48 63 d2             	movslq %edx,%rdx
    4e23:	48 c1 e2 02          	shl    $0x2,%rdx
    4e27:	48 01 d0             	add    %rdx,%rax
    4e2a:	f3 0f 10 00          	movss  (%rax),%xmm0
    4e2e:	48 8b 05 00 00 00 00 	mov    0x0(%rip),%rax        # 4e35 <comp_delta_td_cost+0x7de>
    4e35:	8b 55 ec             	mov    -0x14(%rbp),%edx
    4e38:	48 63 d2             	movslq %edx,%rdx
    4e3b:	48 c1 e2 03          	shl    $0x3,%rdx
    4e3f:	48 01 d0             	add    %rdx,%rax
    4e42:	48 8b 00             	mov    (%rax),%rax
    4e45:	8b 55 f8             	mov    -0x8(%rbp),%edx
    4e48:	48 63 d2             	movslq %edx,%rdx
    4e4b:	48 c1 e2 02          	shl    $0x2,%rdx
    4e4f:	48 01 d0             	add    %rdx,%rax
    4e52:	f3 0f 10 08          	movss  (%rax),%xmm1
    4e56:	f3 0f 5c c1          	subss  %xmm1,%xmm0
    4e5a:	f3 0f 10 4d f4       	movss  -0xc(%rbp),%xmm1
    4e5f:	f3 0f 58 c1          	addss  %xmm1,%xmm0
    4e63:	f3 0f 11 45 f4       	movss  %xmm0,-0xc(%rbp)
    4e68:	83 45 f8 01          	addl   $0x1,-0x8(%rbp)
    4e6c:	48 8b 0d 00 00 00 00 	mov    0x0(%rip),%rcx        # 4e73 <comp_delta_td_cost+0x81c>
    4e73:	8b 45 ec             	mov    -0x14(%rbp),%eax
    4e76:	48 63 d0             	movslq %eax,%rdx
    4e79:	48 89 d0             	mov    %rdx,%rax
    4e7c:	48 c1 e0 02          	shl    $0x2,%rax
    4e80:	48 01 d0             	add    %rdx,%rax
    4e83:	48 c1 e0 03          	shl    $0x3,%rax
    4e87:	48 01 c8             	add    %rcx,%rax
    4e8a:	8b 40 08             	mov    0x8(%rax),%eax
    4e8d:	3b 45 f8             	cmp    -0x8(%rbp),%eax
    4e90:	0f 8d 76 fe ff ff    	jge    4d0c <comp_delta_td_cost+0x6b5>
    4e96:	eb 04                	jmp    4e9c <comp_delta_td_cost+0x845>
    4e98:	90                   	nop
    4e99:	eb 01                	jmp    4e9c <comp_delta_td_cost+0x845>
    4e9b:	90                   	nop
    4e9c:	83 45 fc 01          	addl   $0x1,-0x4(%rbp)
    4ea0:	8b 45 fc             	mov    -0x4(%rbp),%eax
    4ea3:	3b 45 d4             	cmp    -0x2c(%rbp),%eax
    4ea6:	0f 8c ff fb ff ff    	jl     4aab <comp_delta_td_cost+0x454>
    4eac:	48 8b 45 c8          	mov    -0x38(%rbp),%rax
    4eb0:	f3 0f 10 45 f4       	movss  -0xc(%rbp),%xmm0
    4eb5:	f3 0f 11 00          	movss  %xmm0,(%rax)
    4eb9:	48 8b 45 c0          	mov    -0x40(%rbp),%rax
    4ebd:	f3 0f 10 45 f0       	movss  -0x10(%rbp),%xmm0
    4ec2:	f3 0f 11 00          	movss  %xmm0,(%rax)
    4ec6:	90                   	nop
    4ec7:	c9                   	leaveq 
    4ec8:	c3                   	retq   

0000000000004ec9 <comp_td_costs>:
    4ec9:	55                   	push   %rbp
    4eca:	48 89 e5             	mov    %rsp,%rbp
    4ecd:	48 83 ec 30          	sub    $0x30,%rsp
    4ed1:	ff 15 00 00 00 00    	callq  *0x0(%rip)        # 4ed7 <comp_td_costs+0xe>
    4ed7:	48 89 7d d8          	mov    %rdi,-0x28(%rbp)
    4edb:	48 89 75 d0          	mov    %rsi,-0x30(%rbp)
    4edf:	66 0f ef c0          	pxor   %xmm0,%xmm0
    4ee3:	f3 0f 11 45 f4       	movss  %xmm0,-0xc(%rbp)
    4ee8:	66 0f ef c0          	pxor   %xmm0,%xmm0
    4eec:	f3 0f 11 45 f0       	movss  %xmm0,-0x10(%rbp)
    4ef1:	c7 45 fc 00 00 00 00 	movl   $0x0,-0x4(%rbp)
    4ef8:	e9 87 01 00 00       	jmpq   5084 <comp_td_costs+0x1bb>
    4efd:	48 8b 0d 00 00 00 00 	mov    0x0(%rip),%rcx        # 4f04 <comp_td_costs+0x3b>
    4f04:	8b 45 fc             	mov    -0x4(%rbp),%eax
    4f07:	48 63 d0             	movslq %eax,%rdx
    4f0a:	48 89 d0             	mov    %rdx,%rax
    4f0d:	48 c1 e0 02          	shl    $0x2,%rax
    4f11:	48 01 d0             	add    %rdx,%rax
    4f14:	48 c1 e0 03          	shl    $0x3,%rax
    4f18:	48 01 c8             	add    %rcx,%rax
    4f1b:	8b 40 20             	mov    0x20(%rax),%eax
    4f1e:	85 c0                	test   %eax,%eax
    4f20:	0f 85 5a 01 00 00    	jne    5080 <comp_td_costs+0x1b7>
    4f26:	c7 45 f8 01 00 00 00 	movl   $0x1,-0x8(%rbp)
    4f2d:	e9 24 01 00 00       	jmpq   5056 <comp_td_costs+0x18d>
    4f32:	8b 55 f8             	mov    -0x8(%rbp),%edx
    4f35:	8b 45 fc             	mov    -0x4(%rbp),%eax
    4f38:	89 d6                	mov    %edx,%esi
    4f3a:	89 c7                	mov    %eax,%edi
    4f3c:	e8 67 ed ff ff       	callq  3ca8 <comp_td_point_to_point_delay>
    4f41:	66 0f 7e c0          	movd   %xmm0,%eax
    4f45:	89 45 ec             	mov    %eax,-0x14(%rbp)
    4f48:	48 8b 05 00 00 00 00 	mov    0x0(%rip),%rax        # 4f4f <comp_td_costs+0x86>
    4f4f:	8b 55 fc             	mov    -0x4(%rbp),%edx
    4f52:	48 63 d2             	movslq %edx,%rdx
    4f55:	48 c1 e2 03          	shl    $0x3,%rdx
    4f59:	48 01 d0             	add    %rdx,%rax
    4f5c:	48 8b 00             	mov    (%rax),%rax
    4f5f:	8b 55 f8             	mov    -0x8(%rbp),%edx
    4f62:	48 63 d2             	movslq %edx,%rdx
    4f65:	48 c1 e2 02          	shl    $0x2,%rdx
    4f69:	48 01 d0             	add    %rdx,%rax
    4f6c:	f3 0f 10 00          	movss  (%rax),%xmm0
    4f70:	f3 0f 59 45 ec       	mulss  -0x14(%rbp),%xmm0
    4f75:	f3 0f 11 45 e8       	movss  %xmm0,-0x18(%rbp)
    4f7a:	f3 0f 10 45 f0       	movss  -0x10(%rbp),%xmm0
    4f7f:	f3 0f 58 45 ec       	addss  -0x14(%rbp),%xmm0
    4f84:	f3 0f 11 45 f0       	movss  %xmm0,-0x10(%rbp)
    4f89:	48 8b 05 00 00 00 00 	mov    0x0(%rip),%rax        # 4f90 <comp_td_costs+0xc7>
    4f90:	8b 55 fc             	mov    -0x4(%rbp),%edx
    4f93:	48 63 d2             	movslq %edx,%rdx
    4f96:	48 c1 e2 03          	shl    $0x3,%rdx
    4f9a:	48 01 d0             	add    %rdx,%rax
    4f9d:	48 8b 00             	mov    (%rax),%rax
    4fa0:	8b 55 f8             	mov    -0x8(%rbp),%edx
    4fa3:	48 63 d2             	movslq %edx,%rdx
    4fa6:	48 c1 e2 02          	shl    $0x2,%rdx
    4faa:	48 01 d0             	add    %rdx,%rax
    4fad:	f3 0f 10 45 ec       	movss  -0x14(%rbp),%xmm0
    4fb2:	f3 0f 11 00          	movss  %xmm0,(%rax)
    4fb6:	48 8b 05 00 00 00 00 	mov    0x0(%rip),%rax        # 4fbd <comp_td_costs+0xf4>
    4fbd:	8b 55 fc             	mov    -0x4(%rbp),%edx
    4fc0:	48 63 d2             	movslq %edx,%rdx
    4fc3:	48 c1 e2 03          	shl    $0x3,%rdx
    4fc7:	48 01 d0             	add    %rdx,%rax
    4fca:	48 8b 00             	mov    (%rax),%rax
    4fcd:	8b 55 f8             	mov    -0x8(%rbp),%edx
    4fd0:	48 63 d2             	movslq %edx,%rdx
    4fd3:	48 c1 e2 02          	shl    $0x2,%rdx
    4fd7:	48 01 d0             	add    %rdx,%rax
    4fda:	f3 0f 10 05 00 00 00 	movss  0x0(%rip),%xmm0        # 4fe2 <comp_td_costs+0x119>
    4fe1:	00 
    4fe2:	f3 0f 11 00          	movss  %xmm0,(%rax)
    4fe6:	48 8b 05 00 00 00 00 	mov    0x0(%rip),%rax        # 4fed <comp_td_costs+0x124>
    4fed:	8b 55 fc             	mov    -0x4(%rbp),%edx
    4ff0:	48 63 d2             	movslq %edx,%rdx
    4ff3:	48 c1 e2 03          	shl    $0x3,%rdx
    4ff7:	48 01 d0             	add    %rdx,%rax
    4ffa:	48 8b 00             	mov    (%rax),%rax
    4ffd:	8b 55 f8             	mov    -0x8(%rbp),%edx
    5000:	48 63 d2             	movslq %edx,%rdx
    5003:	48 c1 e2 02          	shl    $0x2,%rdx
    5007:	48 01 d0             	add    %rdx,%rax
    500a:	f3 0f 10 45 e8       	movss  -0x18(%rbp),%xmm0
    500f:	f3 0f 11 00          	movss  %xmm0,(%rax)
    5013:	48 8b 05 00 00 00 00 	mov    0x0(%rip),%rax        # 501a <comp_td_costs+0x151>
    501a:	8b 55 fc             	mov    -0x4(%rbp),%edx
    501d:	48 63 d2             	movslq %edx,%rdx
    5020:	48 c1 e2 03          	shl    $0x3,%rdx
    5024:	48 01 d0             	add    %rdx,%rax
    5027:	48 8b 00             	mov    (%rax),%rax
    502a:	8b 55 f8             	mov    -0x8(%rbp),%edx
    502d:	48 63 d2             	movslq %edx,%rdx
    5030:	48 c1 e2 02          	shl    $0x2,%rdx
    5034:	48 01 d0             	add    %rdx,%rax
    5037:	f3 0f 10 05 00 00 00 	movss  0x0(%rip),%xmm0        # 503f <comp_td_costs+0x176>
    503e:	00 
    503f:	f3 0f 11 00          	movss  %xmm0,(%rax)
    5043:	f3 0f 10 45 f4       	movss  -0xc(%rbp),%xmm0
    5048:	f3 0f 58 45 e8       	addss  -0x18(%rbp),%xmm0
    504d:	f3 0f 11 45 f4       	movss  %xmm0,-0xc(%rbp)
    5052:	83 45 f8 01          	addl   $0x1,-0x8(%rbp)
    5056:	48 8b 0d 00 00 00 00 	mov    0x0(%rip),%rcx        # 505d <comp_td_costs+0x194>
    505d:	8b 45 fc             	mov    -0x4(%rbp),%eax
    5060:	48 63 d0             	movslq %eax,%rdx
    5063:	48 89 d0             	mov    %rdx,%rax
    5066:	48 c1 e0 02          	shl    $0x2,%rax
    506a:	48 01 d0             	add    %rdx,%rax
    506d:	48 c1 e0 03          	shl    $0x3,%rax
    5071:	48 01 c8             	add    %rcx,%rax
    5074:	8b 40 08             	mov    0x8(%rax),%eax
    5077:	3b 45 f8             	cmp    -0x8(%rbp),%eax
    507a:	0f 8d b2 fe ff ff    	jge    4f32 <comp_td_costs+0x69>
    5080:	83 45 fc 01          	addl   $0x1,-0x4(%rbp)
    5084:	8b 05 00 00 00 00    	mov    0x0(%rip),%eax        # 508a <comp_td_costs+0x1c1>
    508a:	39 45 fc             	cmp    %eax,-0x4(%rbp)
    508d:	0f 8c 6a fe ff ff    	jl     4efd <comp_td_costs+0x34>
    5093:	48 8b 45 d8          	mov    -0x28(%rbp),%rax
    5097:	f3 0f 10 45 f4       	movss  -0xc(%rbp),%xmm0
    509c:	f3 0f 11 00          	movss  %xmm0,(%rax)
    50a0:	48 8b 45 d0          	mov    -0x30(%rbp),%rax
    50a4:	f3 0f 10 45 f0       	movss  -0x10(%rbp),%xmm0
    50a9:	f3 0f 11 00          	movss  %xmm0,(%rax)
    50ad:	90                   	nop
    50ae:	c9                   	leaveq 
    50af:	c3                   	retq   

00000000000050b0 <comp_bb_cost>:
    50b0:	55                   	push   %rbp
    50b1:	48 89 e5             	mov    %rsp,%rbp
    50b4:	53                   	push   %rbx
    50b5:	48 83 ec 48          	sub    $0x48,%rsp
    50b9:	ff 15 00 00 00 00    	callq  *0x0(%rip)        # 50bf <comp_bb_cost+0xf>
    50bf:	89 7d cc             	mov    %edi,-0x34(%rbp)
    50c2:	89 75 c8             	mov    %esi,-0x38(%rbp)
    50c5:	89 55 c4             	mov    %edx,-0x3c(%rbp)
    50c8:	66 0f ef c0          	pxor   %xmm0,%xmm0
    50cc:	f3 0f 11 45 e0       	movss  %xmm0,-0x20(%rbp)
    50d1:	66 0f ef c0          	pxor   %xmm0,%xmm0
    50d5:	f2 0f 11 45 d8       	movsd  %xmm0,-0x28(%rbp)
    50da:	83 7d c8 01          	cmpl   $0x1,-0x38(%rbp)
    50de:	0f 85 84 00 00 00    	jne    5168 <comp_bb_cost+0xb8>
    50e4:	c7 45 ec 00 00 00 00 	movl   $0x0,-0x14(%rbp)
    50eb:	eb 73                	jmp    5160 <comp_bb_cost+0xb0>
    50ed:	c7 45 e8 00 00 00 00 	movl   $0x0,-0x18(%rbp)
    50f4:	eb 5e                	jmp    5154 <comp_bb_cost+0xa4>
    50f6:	48 8b 05 00 00 00 00 	mov    0x0(%rip),%rax        # 50fd <comp_bb_cost+0x4d>
    50fd:	8b 55 ec             	mov    -0x14(%rbp),%edx
    5100:	48 63 d2             	movslq %edx,%rdx
    5103:	48 c1 e2 03          	shl    $0x3,%rdx
    5107:	48 01 d0             	add    %rdx,%rax
    510a:	48 8b 00             	mov    (%rax),%rax
    510d:	8b 55 e8             	mov    -0x18(%rbp),%edx
    5110:	48 63 d2             	movslq %edx,%rdx
    5113:	48 c1 e2 04          	shl    $0x4,%rdx
    5117:	48 01 d0             	add    %rdx,%rax
    511a:	66 0f ef c0          	pxor   %xmm0,%xmm0
    511e:	f3 0f 11 40 08       	movss  %xmm0,0x8(%rax)
    5123:	48 8b 05 00 00 00 00 	mov    0x0(%rip),%rax        # 512a <comp_bb_cost+0x7a>
    512a:	8b 55 ec             	mov    -0x14(%rbp),%edx
    512d:	48 63 d2             	movslq %edx,%rdx
    5130:	48 c1 e2 03          	shl    $0x3,%rdx
    5134:	48 01 d0             	add    %rdx,%rax
    5137:	48 8b 00             	mov    (%rax),%rax
    513a:	8b 55 e8             	mov    -0x18(%rbp),%edx
    513d:	48 63 d2             	movslq %edx,%rdx
    5140:	48 c1 e2 04          	shl    $0x4,%rdx
    5144:	48 01 d0             	add    %rdx,%rax
    5147:	66 0f ef c0          	pxor   %xmm0,%xmm0
    514b:	f3 0f 11 40 08       	movss  %xmm0,0x8(%rax)
    5150:	83 45 e8 01          	addl   $0x1,-0x18(%rbp)
    5154:	8b 45 e8             	mov    -0x18(%rbp),%eax
    5157:	3b 45 c4             	cmp    -0x3c(%rbp),%eax
    515a:	7c 9a                	jl     50f6 <comp_bb_cost+0x46>
    515c:	83 45 ec 01          	addl   $0x1,-0x14(%rbp)
    5160:	8b 45 ec             	mov    -0x14(%rbp),%eax
    5163:	3b 45 c4             	cmp    -0x3c(%rbp),%eax
    5166:	7c 85                	jl     50ed <comp_bb_cost+0x3d>
    5168:	c7 45 e4 00 00 00 00 	movl   $0x0,-0x1c(%rbp)
    516f:	e9 81 01 00 00       	jmpq   52f5 <comp_bb_cost+0x245>
    5174:	48 8b 0d 00 00 00 00 	mov    0x0(%rip),%rcx        # 517b <comp_bb_cost+0xcb>
    517b:	8b 45 e4             	mov    -0x1c(%rbp),%eax
    517e:	48 63 d0             	movslq %eax,%rdx
    5181:	48 89 d0             	mov    %rdx,%rax
    5184:	48 c1 e0 02          	shl    $0x2,%rax
    5188:	48 01 d0             	add    %rdx,%rax
    518b:	48 c1 e0 03          	shl    $0x3,%rax
    518f:	48 01 c8             	add    %rcx,%rax
    5192:	8b 40 20             	mov    0x20(%rax),%eax
    5195:	85 c0                	test   %eax,%eax
    5197:	0f 85 54 01 00 00    	jne    52f1 <comp_bb_cost+0x241>
    519d:	48 8b 0d 00 00 00 00 	mov    0x0(%rip),%rcx        # 51a4 <comp_bb_cost+0xf4>
    51a4:	8b 45 e4             	mov    -0x1c(%rbp),%eax
    51a7:	48 63 d0             	movslq %eax,%rdx
    51aa:	48 89 d0             	mov    %rdx,%rax
    51ad:	48 c1 e0 02          	shl    $0x2,%rax
    51b1:	48 01 d0             	add    %rdx,%rax
    51b4:	48 c1 e0 03          	shl    $0x3,%rax
    51b8:	48 01 c8             	add    %rcx,%rax
    51bb:	8b 40 08             	mov    0x8(%rax),%eax
    51be:	83 f8 03             	cmp    $0x3,%eax
    51c1:	7e 3d                	jle    5200 <comp_bb_cost+0x150>
    51c3:	83 7d cc 00          	cmpl   $0x0,-0x34(%rbp)
    51c7:	75 37                	jne    5200 <comp_bb_cost+0x150>
    51c9:	48 8b 05 00 00 00 00 	mov    0x0(%rip),%rax        # 51d0 <comp_bb_cost+0x120>
    51d0:	8b 55 e4             	mov    -0x1c(%rbp),%edx
    51d3:	48 63 d2             	movslq %edx,%rdx
    51d6:	48 c1 e2 04          	shl    $0x4,%rdx
    51da:	48 01 c2             	add    %rax,%rdx
    51dd:	48 8b 05 00 00 00 00 	mov    0x0(%rip),%rax        # 51e4 <comp_bb_cost+0x134>
    51e4:	8b 4d e4             	mov    -0x1c(%rbp),%ecx
    51e7:	48 63 c9             	movslq %ecx,%rcx
    51ea:	48 c1 e1 04          	shl    $0x4,%rcx
    51ee:	48 01 c1             	add    %rax,%rcx
    51f1:	8b 45 e4             	mov    -0x1c(%rbp),%eax
    51f4:	48 89 ce             	mov    %rcx,%rsi
    51f7:	89 c7                	mov    %eax,%edi
    51f9:	e8 1e 1e 00 00       	callq  701c <get_bb_from_scratch>
    51fe:	eb 21                	jmp    5221 <comp_bb_cost+0x171>
    5200:	48 8b 05 00 00 00 00 	mov    0x0(%rip),%rax        # 5207 <comp_bb_cost+0x157>
    5207:	8b 55 e4             	mov    -0x1c(%rbp),%edx
    520a:	48 63 d2             	movslq %edx,%rdx
    520d:	48 c1 e2 04          	shl    $0x4,%rdx
    5211:	48 01 c2             	add    %rax,%rdx
    5214:	8b 45 e4             	mov    -0x1c(%rbp),%eax
    5217:	48 89 d6             	mov    %rdx,%rsi
    521a:	89 c7                	mov    %eax,%edi
    521c:	e8 e4 24 00 00       	callq  7705 <get_non_updateable_bb>
    5221:	83 7d c8 01          	cmpl   $0x1,-0x38(%rbp)
    5225:	0f 84 9d 00 00 00    	je     52c8 <comp_bb_cost+0x218>
    522b:	48 8b 05 00 00 00 00 	mov    0x0(%rip),%rax        # 5232 <comp_bb_cost+0x182>
    5232:	8b 55 e4             	mov    -0x1c(%rbp),%edx
    5235:	48 63 d2             	movslq %edx,%rdx
    5238:	48 c1 e2 02          	shl    $0x2,%rdx
    523c:	48 8d 1c 10          	lea    (%rax,%rdx,1),%rbx
    5240:	48 8b 05 00 00 00 00 	mov    0x0(%rip),%rax        # 5247 <comp_bb_cost+0x197>
    5247:	8b 55 e4             	mov    -0x1c(%rbp),%edx
    524a:	48 63 d2             	movslq %edx,%rdx
    524d:	48 c1 e2 04          	shl    $0x4,%rdx
    5251:	48 01 c2             	add    %rax,%rdx
    5254:	8b 45 e4             	mov    -0x1c(%rbp),%eax
    5257:	48 89 d6             	mov    %rdx,%rsi
    525a:	89 c7                	mov    %eax,%edi
    525c:	e8 13 23 00 00       	callq  7574 <get_net_cost>
    5261:	66 0f 7e c0          	movd   %xmm0,%eax
    5265:	89 03                	mov    %eax,(%rbx)
    5267:	48 8b 05 00 00 00 00 	mov    0x0(%rip),%rax        # 526e <comp_bb_cost+0x1be>
    526e:	8b 55 e4             	mov    -0x1c(%rbp),%edx
    5271:	48 63 d2             	movslq %edx,%rdx
    5274:	48 c1 e2 02          	shl    $0x2,%rdx
    5278:	48 01 d0             	add    %rdx,%rax
    527b:	f3 0f 10 00          	movss  (%rax),%xmm0
    527f:	f3 0f 10 4d e0       	movss  -0x20(%rbp),%xmm1
    5284:	f3 0f 58 c1          	addss  %xmm1,%xmm0
    5288:	f3 0f 11 45 e0       	movss  %xmm0,-0x20(%rbp)
    528d:	83 7d cc 01          	cmpl   $0x1,-0x34(%rbp)
    5291:	75 5e                	jne    52f1 <comp_bb_cost+0x241>
    5293:	48 8b 05 00 00 00 00 	mov    0x0(%rip),%rax        # 529a <comp_bb_cost+0x1ea>
    529a:	8b 55 e4             	mov    -0x1c(%rbp),%edx
    529d:	48 63 d2             	movslq %edx,%rdx
    52a0:	48 c1 e2 04          	shl    $0x4,%rdx
    52a4:	48 01 c2             	add    %rax,%rdx
    52a7:	8b 45 e4             	mov    -0x1c(%rbp),%eax
    52aa:	48 89 d6             	mov    %rdx,%rsi
    52ad:	89 c7                	mov    %eax,%edi
    52af:	e8 8a 20 00 00       	callq  733e <get_net_wirelength_estimate>
    52b4:	66 0f 28 c8          	movapd %xmm0,%xmm1
    52b8:	f2 0f 10 45 d8       	movsd  -0x28(%rbp),%xmm0
    52bd:	f2 0f 58 c1          	addsd  %xmm1,%xmm0
    52c1:	f2 0f 11 45 d8       	movsd  %xmm0,-0x28(%rbp)
    52c6:	eb 29                	jmp    52f1 <comp_bb_cost+0x241>
    52c8:	48 8b 05 00 00 00 00 	mov    0x0(%rip),%rax        # 52cf <comp_bb_cost+0x21f>
    52cf:	8b 55 e4             	mov    -0x1c(%rbp),%edx
    52d2:	48 63 d2             	movslq %edx,%rdx
    52d5:	48 c1 e2 04          	shl    $0x4,%rdx
    52d9:	48 8d 34 10          	lea    (%rax,%rdx,1),%rsi
    52dd:	8b 55 c4             	mov    -0x3c(%rbp),%edx
    52e0:	8b 45 e4             	mov    -0x1c(%rbp),%eax
    52e3:	89 d1                	mov    %edx,%ecx
    52e5:	ba 01 00 00 00       	mov    $0x1,%edx
    52ea:	89 c7                	mov    %eax,%edi
    52ec:	e8 11 03 00 00       	callq  5602 <update_region_occ>
    52f1:	83 45 e4 01          	addl   $0x1,-0x1c(%rbp)
    52f5:	8b 05 00 00 00 00    	mov    0x0(%rip),%eax        # 52fb <comp_bb_cost+0x24b>
    52fb:	39 45 e4             	cmp    %eax,-0x1c(%rbp)
    52fe:	0f 8c 70 fe ff ff    	jl     5174 <comp_bb_cost+0xc4>
    5304:	83 7d c8 01          	cmpl   $0x1,-0x38(%rbp)
    5308:	75 11                	jne    531b <comp_bb_cost+0x26b>
    530a:	8b 45 c4             	mov    -0x3c(%rbp),%eax
    530d:	89 c7                	mov    %eax,%edi
    530f:	e8 37 00 00 00       	callq  534b <nonlinear_cong_cost>
    5314:	66 0f 7e c0          	movd   %xmm0,%eax
    5318:	89 45 e0             	mov    %eax,-0x20(%rbp)
    531b:	83 7d cc 01          	cmpl   $0x1,-0x34(%rbp)
    531f:	75 1e                	jne    533f <comp_bb_cost+0x28f>
    5321:	48 8b 45 d8          	mov    -0x28(%rbp),%rax
    5325:	48 89 45 b8          	mov    %rax,-0x48(%rbp)
    5329:	f2 0f 10 45 b8       	movsd  -0x48(%rbp),%xmm0
    532e:	48 8d 3d 00 00 00 00 	lea    0x0(%rip),%rdi        # 5335 <comp_bb_cost+0x285>
    5335:	b8 01 00 00 00       	mov    $0x1,%eax
    533a:	e8 00 00 00 00       	callq  533f <comp_bb_cost+0x28f>
    533f:	f3 0f 10 45 e0       	movss  -0x20(%rbp),%xmm0
    5344:	48 83 c4 48          	add    $0x48,%rsp
    5348:	5b                   	pop    %rbx
    5349:	5d                   	pop    %rbp
    534a:	c3                   	retq   

000000000000534b <nonlinear_cong_cost>:
    534b:	55                   	push   %rbp
    534c:	48 89 e5             	mov    %rsp,%rbp
    534f:	48 83 ec 18          	sub    $0x18,%rsp
    5353:	ff 15 00 00 00 00    	callq  *0x0(%rip)        # 5359 <nonlinear_cong_cost+0xe>
    5359:	89 7d ec             	mov    %edi,-0x14(%rbp)
    535c:	66 0f ef c0          	pxor   %xmm0,%xmm0
    5360:	f3 0f 11 45 fc       	movss  %xmm0,-0x4(%rbp)
    5365:	c7 45 f8 00 00 00 00 	movl   $0x0,-0x8(%rbp)
    536c:	e9 7e 02 00 00       	jmpq   55ef <nonlinear_cong_cost+0x2a4>
    5371:	c7 45 f4 00 00 00 00 	movl   $0x0,-0xc(%rbp)
    5378:	e9 62 02 00 00       	jmpq   55df <nonlinear_cong_cost+0x294>
    537d:	48 8b 05 00 00 00 00 	mov    0x0(%rip),%rax        # 5384 <nonlinear_cong_cost+0x39>
    5384:	8b 55 f8             	mov    -0x8(%rbp),%edx
    5387:	48 63 d2             	movslq %edx,%rdx
    538a:	48 c1 e2 03          	shl    $0x3,%rdx
    538e:	48 01 d0             	add    %rdx,%rax
    5391:	48 8b 00             	mov    (%rax),%rax
    5394:	8b 55 f4             	mov    -0xc(%rbp),%edx
    5397:	48 63 d2             	movslq %edx,%rdx
    539a:	48 c1 e2 04          	shl    $0x4,%rdx
    539e:	48 01 d0             	add    %rdx,%rax
    53a1:	f3 0f 10 48 08       	movss  0x8(%rax),%xmm1
    53a6:	48 8b 05 00 00 00 00 	mov    0x0(%rip),%rax        # 53ad <nonlinear_cong_cost+0x62>
    53ad:	8b 55 f8             	mov    -0x8(%rbp),%edx
    53b0:	48 63 d2             	movslq %edx,%rdx
    53b3:	48 c1 e2 03          	shl    $0x3,%rdx
    53b7:	48 01 d0             	add    %rdx,%rax
    53ba:	48 8b 00             	mov    (%rax),%rax
    53bd:	8b 55 f4             	mov    -0xc(%rbp),%edx
    53c0:	48 63 d2             	movslq %edx,%rdx
    53c3:	48 c1 e2 04          	shl    $0x4,%rdx
    53c7:	48 01 d0             	add    %rdx,%rax
    53ca:	f3 0f 10 00          	movss  (%rax),%xmm0
    53ce:	0f 2e c1             	ucomiss %xmm1,%xmm0
    53d1:	76 66                	jbe    5439 <nonlinear_cong_cost+0xee>
    53d3:	48 8b 05 00 00 00 00 	mov    0x0(%rip),%rax        # 53da <nonlinear_cong_cost+0x8f>
    53da:	8b 55 f8             	mov    -0x8(%rbp),%edx
    53dd:	48 63 d2             	movslq %edx,%rdx
    53e0:	48 c1 e2 03          	shl    $0x3,%rdx
    53e4:	48 01 d0             	add    %rdx,%rax
    53e7:	48 8b 00             	mov    (%rax),%rax
    53ea:	8b 55 f4             	mov    -0xc(%rbp),%edx
    53ed:	48 63 d2             	movslq %edx,%rdx
    53f0:	48 c1 e2 04          	shl    $0x4,%rdx
    53f4:	48 01 d0             	add    %rdx,%rax
    53f7:	f3 0f 10 48 08       	movss  0x8(%rax),%xmm1
    53fc:	48 8b 05 00 00 00 00 	mov    0x0(%rip),%rax        # 5403 <nonlinear_cong_cost+0xb8>
    5403:	8b 55 f8             	mov    -0x8(%rbp),%edx
    5406:	48 63 d2             	movslq %edx,%rdx
    5409:	48 c1 e2 03          	shl    $0x3,%rdx
    540d:	48 01 d0             	add    %rdx,%rax
    5410:	48 8b 00             	mov    (%rax),%rax
    5413:	8b 55 f4             	mov    -0xc(%rbp),%edx
    5416:	48 63 d2             	movslq %edx,%rdx
    5419:	48 c1 e2 04          	shl    $0x4,%rdx
    541d:	48 01 d0             	add    %rdx,%rax
    5420:	f3 0f 10 40 04       	movss  0x4(%rax),%xmm0
    5425:	f3 0f 59 c1          	mulss  %xmm1,%xmm0
    5429:	f3 0f 10 4d fc       	movss  -0x4(%rbp),%xmm1
    542e:	f3 0f 58 c1          	addss  %xmm1,%xmm0
    5432:	f3 0f 11 45 fc       	movss  %xmm0,-0x4(%rbp)
    5437:	eb 73                	jmp    54ac <nonlinear_cong_cost+0x161>
    5439:	48 8b 05 00 00 00 00 	mov    0x0(%rip),%rax        # 5440 <nonlinear_cong_cost+0xf5>
    5440:	8b 55 f8             	mov    -0x8(%rbp),%edx
    5443:	48 63 d2             	movslq %edx,%rdx
    5446:	48 c1 e2 03          	shl    $0x3,%rdx
    544a:	48 01 d0             	add    %rdx,%rax
    544d:	48 8b 00             	mov    (%rax),%rax
    5450:	8b 55 f4             	mov    -0xc(%rbp),%edx
    5453:	48 63 d2             	movslq %edx,%rdx
    5456:	48 c1 e2 04          	shl    $0x4,%rdx
    545a:	48 01 d0             	add    %rdx,%rax
    545d:	f3 0f 10 48 08       	movss  0x8(%rax),%xmm1
    5462:	48 8b 05 00 00 00 00 	mov    0x0(%rip),%rax        # 5469 <nonlinear_cong_cost+0x11e>
    5469:	8b 55 f8             	mov    -0x8(%rbp),%edx
    546c:	48 63 d2             	movslq %edx,%rdx
    546f:	48 c1 e2 03          	shl    $0x3,%rdx
    5473:	48 01 d0             	add    %rdx,%rax
    5476:	48 8b 00             	mov    (%rax),%rax
    5479:	8b 55 f4             	mov    -0xc(%rbp),%edx
    547c:	48 63 d2             	movslq %edx,%rdx
    547f:	48 c1 e2 04          	shl    $0x4,%rdx
    5483:	48 01 d0             	add    %rdx,%rax
    5486:	f3 0f 10 40 04       	movss  0x4(%rax),%xmm0
    548b:	f3 0f 59 c1          	mulss  %xmm1,%xmm0
    548f:	f3 0f 11 45 f0       	movss  %xmm0,-0x10(%rbp)
    5494:	f3 0f 10 45 f0       	movss  -0x10(%rbp),%xmm0
    5499:	f3 0f 59 45 f0       	mulss  -0x10(%rbp),%xmm0
    549e:	f3 0f 10 4d fc       	movss  -0x4(%rbp),%xmm1
    54a3:	f3 0f 58 c1          	addss  %xmm1,%xmm0
    54a7:	f3 0f 11 45 fc       	movss  %xmm0,-0x4(%rbp)
    54ac:	48 8b 05 00 00 00 00 	mov    0x0(%rip),%rax        # 54b3 <nonlinear_cong_cost+0x168>
    54b3:	8b 55 f8             	mov    -0x8(%rbp),%edx
    54b6:	48 63 d2             	movslq %edx,%rdx
    54b9:	48 c1 e2 03          	shl    $0x3,%rdx
    54bd:	48 01 d0             	add    %rdx,%rax
    54c0:	48 8b 00             	mov    (%rax),%rax
    54c3:	8b 55 f4             	mov    -0xc(%rbp),%edx
    54c6:	48 63 d2             	movslq %edx,%rdx
    54c9:	48 c1 e2 04          	shl    $0x4,%rdx
    54cd:	48 01 d0             	add    %rdx,%rax
    54d0:	f3 0f 10 48 08       	movss  0x8(%rax),%xmm1
    54d5:	48 8b 05 00 00 00 00 	mov    0x0(%rip),%rax        # 54dc <nonlinear_cong_cost+0x191>
    54dc:	8b 55 f8             	mov    -0x8(%rbp),%edx
    54df:	48 63 d2             	movslq %edx,%rdx
    54e2:	48 c1 e2 03          	shl    $0x3,%rdx
    54e6:	48 01 d0             	add    %rdx,%rax
    54e9:	48 8b 00             	mov    (%rax),%rax
    54ec:	8b 55 f4             	mov    -0xc(%rbp),%edx
    54ef:	48 63 d2             	movslq %edx,%rdx
    54f2:	48 c1 e2 04          	shl    $0x4,%rdx
    54f6:	48 01 d0             	add    %rdx,%rax
    54f9:	f3 0f 10 00          	movss  (%rax),%xmm0
    54fd:	0f 2e c1             	ucomiss %xmm1,%xmm0
    5500:	76 66                	jbe    5568 <nonlinear_cong_cost+0x21d>
    5502:	48 8b 05 00 00 00 00 	mov    0x0(%rip),%rax        # 5509 <nonlinear_cong_cost+0x1be>
    5509:	8b 55 f8             	mov    -0x8(%rbp),%edx
    550c:	48 63 d2             	movslq %edx,%rdx
    550f:	48 c1 e2 03          	shl    $0x3,%rdx
    5513:	48 01 d0             	add    %rdx,%rax
    5516:	48 8b 00             	mov    (%rax),%rax
    5519:	8b 55 f4             	mov    -0xc(%rbp),%edx
    551c:	48 63 d2             	movslq %edx,%rdx
    551f:	48 c1 e2 04          	shl    $0x4,%rdx
    5523:	48 01 d0             	add    %rdx,%rax
    5526:	f3 0f 10 48 08       	movss  0x8(%rax),%xmm1
    552b:	48 8b 05 00 00 00 00 	mov    0x0(%rip),%rax        # 5532 <nonlinear_cong_cost+0x1e7>
    5532:	8b 55 f8             	mov    -0x8(%rbp),%edx
    5535:	48 63 d2             	movslq %edx,%rdx
    5538:	48 c1 e2 03          	shl    $0x3,%rdx
    553c:	48 01 d0             	add    %rdx,%rax
    553f:	48 8b 00             	mov    (%rax),%rax
    5542:	8b 55 f4             	mov    -0xc(%rbp),%edx
    5545:	48 63 d2             	movslq %edx,%rdx
    5548:	48 c1 e2 04          	shl    $0x4,%rdx
    554c:	48 01 d0             	add    %rdx,%rax
    554f:	f3 0f 10 40 04       	movss  0x4(%rax),%xmm0
    5554:	f3 0f 59 c1          	mulss  %xmm1,%xmm0
    5558:	f3 0f 10 4d fc       	movss  -0x4(%rbp),%xmm1
    555d:	f3 0f 58 c1          	addss  %xmm1,%xmm0
    5561:	f3 0f 11 45 fc       	movss  %xmm0,-0x4(%rbp)
    5566:	eb 73                	jmp    55db <nonlinear_cong_cost+0x290>
    5568:	48 8b 05 00 00 00 00 	mov    0x0(%rip),%rax        # 556f <nonlinear_cong_cost+0x224>
    556f:	8b 55 f8             	mov    -0x8(%rbp),%edx
    5572:	48 63 d2             	movslq %edx,%rdx
    5575:	48 c1 e2 03          	shl    $0x3,%rdx
    5579:	48 01 d0             	add    %rdx,%rax
    557c:	48 8b 00             	mov    (%rax),%rax
    557f:	8b 55 f4             	mov    -0xc(%rbp),%edx
    5582:	48 63 d2             	movslq %edx,%rdx
    5585:	48 c1 e2 04          	shl    $0x4,%rdx
    5589:	48 01 d0             	add    %rdx,%rax
    558c:	f3 0f 10 48 08       	movss  0x8(%rax),%xmm1
    5591:	48 8b 05 00 00 00 00 	mov    0x0(%rip),%rax        # 5598 <nonlinear_cong_cost+0x24d>
    5598:	8b 55 f8             	mov    -0x8(%rbp),%edx
    559b:	48 63 d2             	movslq %edx,%rdx
    559e:	48 c1 e2 03          	shl    $0x3,%rdx
    55a2:	48 01 d0             	add    %rdx,%rax
    55a5:	48 8b 00             	mov    (%rax),%rax
    55a8:	8b 55 f4             	mov    -0xc(%rbp),%edx
    55ab:	48 63 d2             	movslq %edx,%rdx
    55ae:	48 c1 e2 04          	shl    $0x4,%rdx
    55b2:	48 01 d0             	add    %rdx,%rax
    55b5:	f3 0f 10 40 04       	movss  0x4(%rax),%xmm0
    55ba:	f3 0f 59 c1          	mulss  %xmm1,%xmm0
    55be:	f3 0f 11 45 f0       	movss  %xmm0,-0x10(%rbp)
    55c3:	f3 0f 10 45 f0       	movss  -0x10(%rbp),%xmm0
    55c8:	f3 0f 59 45 f0       	mulss  -0x10(%rbp),%xmm0
    55cd:	f3 0f 10 4d fc       	movss  -0x4(%rbp),%xmm1
    55d2:	f3 0f 58 c1          	addss  %xmm1,%xmm0
    55d6:	f3 0f 11 45 fc       	movss  %xmm0,-0x4(%rbp)
    55db:	83 45 f4 01          	addl   $0x1,-0xc(%rbp)
    55df:	8b 45 f4             	mov    -0xc(%rbp),%eax
    55e2:	3b 45 ec             	cmp    -0x14(%rbp),%eax
    55e5:	0f 8c 92 fd ff ff    	jl     537d <nonlinear_cong_cost+0x32>
    55eb:	83 45 f8 01          	addl   $0x1,-0x8(%rbp)
    55ef:	8b 45 f8             	mov    -0x8(%rbp),%eax
    55f2:	3b 45 ec             	cmp    -0x14(%rbp),%eax
    55f5:	0f 8c 76 fd ff ff    	jl     5371 <nonlinear_cong_cost+0x26>
    55fb:	f3 0f 10 45 fc       	movss  -0x4(%rbp),%xmm0
    5600:	c9                   	leaveq 
    5601:	c3                   	retq   

0000000000005602 <update_region_occ>:
    5602:	55                   	push   %rbp
    5603:	48 89 e5             	mov    %rsp,%rbp
    5606:	48 83 c4 80          	add    $0xffffffffffffff80,%rsp
    560a:	ff 15 00 00 00 00    	callq  *0x0(%rip)        # 5610 <update_region_occ+0xe>
    5610:	89 7d 9c             	mov    %edi,-0x64(%rbp)
    5613:	48 89 75 90          	mov    %rsi,-0x70(%rbp)
    5617:	89 55 98             	mov    %edx,-0x68(%rbp)
    561a:	89 4d 8c             	mov    %ecx,-0x74(%rbp)
    561d:	48 8b 0d 00 00 00 00 	mov    0x0(%rip),%rcx        # 5624 <update_region_occ+0x22>
    5624:	8b 45 9c             	mov    -0x64(%rbp),%eax
    5627:	48 63 d0             	movslq %eax,%rdx
    562a:	48 89 d0             	mov    %rdx,%rax
    562d:	48 c1 e0 02          	shl    $0x2,%rax
    5631:	48 01 d0             	add    %rdx,%rax
    5634:	48 c1 e0 03          	shl    $0x3,%rax
    5638:	48 01 c8             	add    %rcx,%rax
    563b:	8b 40 08             	mov    0x8(%rax),%eax
    563e:	83 f8 31             	cmp    $0x31,%eax
    5641:	7e 4f                	jle    5692 <update_region_occ+0x90>
    5643:	48 8b 0d 00 00 00 00 	mov    0x0(%rip),%rcx        # 564a <update_region_occ+0x48>
    564a:	8b 45 9c             	mov    -0x64(%rbp),%eax
    564d:	48 63 d0             	movslq %eax,%rdx
    5650:	48 89 d0             	mov    %rdx,%rax
    5653:	48 c1 e0 02          	shl    $0x2,%rax
    5657:	48 01 d0             	add    %rdx,%rax
    565a:	48 c1 e0 03          	shl    $0x3,%rax
    565e:	48 01 c8             	add    %rcx,%rax
    5661:	8b 40 08             	mov    0x8(%rax),%eax
    5664:	83 e8 31             	sub    $0x31,%eax
    5667:	66 0f ef c0          	pxor   %xmm0,%xmm0
    566b:	f2 0f 2a c0          	cvtsi2sd %eax,%xmm0
    566f:	f2 0f 10 0d 00 00 00 	movsd  0x0(%rip),%xmm1        # 5677 <update_region_occ+0x75>
    5676:	00 
    5677:	f2 0f 59 c1          	mulsd  %xmm1,%xmm0
    567b:	f2 0f 10 0d 00 00 00 	movsd  0x0(%rip),%xmm1        # 5683 <update_region_occ+0x81>
    5682:	00 
    5683:	f2 0f 58 c1          	addsd  %xmm1,%xmm0
    5687:	f2 0f 5a d0          	cvtsd2ss %xmm0,%xmm2
    568b:	f3 0f 11 55 fc       	movss  %xmm2,-0x4(%rbp)
    5690:	eb 3c                	jmp    56ce <update_region_occ+0xcc>
    5692:	48 8b 0d 00 00 00 00 	mov    0x0(%rip),%rcx        # 5699 <update_region_occ+0x97>
    5699:	8b 45 9c             	mov    -0x64(%rbp),%eax
    569c:	48 63 d0             	movslq %eax,%rdx
    569f:	48 89 d0             	mov    %rdx,%rax
    56a2:	48 c1 e0 02          	shl    $0x2,%rax
    56a6:	48 01 d0             	add    %rdx,%rax
    56a9:	48 c1 e0 03          	shl    $0x3,%rax
    56ad:	48 01 c8             	add    %rcx,%rax
    56b0:	8b 40 08             	mov    0x8(%rax),%eax
    56b3:	48 98                	cltq   
    56b5:	48 8d 14 85 00 00 00 	lea    0x0(,%rax,4),%rdx
    56bc:	00 
    56bd:	48 8d 05 00 00 00 00 	lea    0x0(%rip),%rax        # 56c4 <update_region_occ+0xc2>
    56c4:	f3 0f 10 04 02       	movss  (%rdx,%rax,1),%xmm0
    56c9:	f3 0f 11 45 fc       	movss  %xmm0,-0x4(%rbp)
    56ce:	48 8b 45 90          	mov    -0x70(%rbp),%rax
    56d2:	8b 00                	mov    (%rax),%eax
    56d4:	66 0f ef c0          	pxor   %xmm0,%xmm0
    56d8:	f2 0f 2a c0          	cvtsi2sd %eax,%xmm0
    56dc:	f2 0f 10 0d 00 00 00 	movsd  0x0(%rip),%xmm1        # 56e4 <update_region_occ+0xe2>
    56e3:	00 
    56e4:	f2 0f 5c c1          	subsd  %xmm1,%xmm0
    56e8:	f2 0f 5a d8          	cvtsd2ss %xmm0,%xmm3
    56ec:	f3 0f 11 5d f0       	movss  %xmm3,-0x10(%rbp)
    56f1:	48 8b 45 90          	mov    -0x70(%rbp),%rax
    56f5:	8b 40 04             	mov    0x4(%rax),%eax
    56f8:	66 0f ef c0          	pxor   %xmm0,%xmm0
    56fc:	f2 0f 2a c0          	cvtsi2sd %eax,%xmm0
    5700:	f2 0f 10 0d 00 00 00 	movsd  0x0(%rip),%xmm1        # 5708 <update_region_occ+0x106>
    5707:	00 
    5708:	f2 0f 58 c1          	addsd  %xmm1,%xmm0
    570c:	f2 0f 5a e0          	cvtsd2ss %xmm0,%xmm4
    5710:	f3 0f 11 65 ec       	movss  %xmm4,-0x14(%rbp)
    5715:	48 8b 45 90          	mov    -0x70(%rbp),%rax
    5719:	8b 40 08             	mov    0x8(%rax),%eax
    571c:	66 0f ef c0          	pxor   %xmm0,%xmm0
    5720:	f2 0f 2a c0          	cvtsi2sd %eax,%xmm0
    5724:	f2 0f 10 0d 00 00 00 	movsd  0x0(%rip),%xmm1        # 572c <update_region_occ+0x12a>
    572b:	00 
    572c:	f2 0f 5c c1          	subsd  %xmm1,%xmm0
    5730:	f2 0f 5a e8          	cvtsd2ss %xmm0,%xmm5
    5734:	f3 0f 11 6d e8       	movss  %xmm5,-0x18(%rbp)
    5739:	48 8b 45 90          	mov    -0x70(%rbp),%rax
    573d:	8b 40 0c             	mov    0xc(%rax),%eax
    5740:	66 0f ef c0          	pxor   %xmm0,%xmm0
    5744:	f2 0f 2a c0          	cvtsi2sd %eax,%xmm0
    5748:	f2 0f 10 0d 00 00 00 	movsd  0x0(%rip),%xmm1        # 5750 <update_region_occ+0x14e>
    574f:	00 
    5750:	f2 0f 58 c1          	addsd  %xmm1,%xmm0
    5754:	f2 0f 5a f0          	cvtsd2ss %xmm0,%xmm6
    5758:	f3 0f 11 75 e4       	movss  %xmm6,-0x1c(%rbp)
    575d:	66 0f ef c0          	pxor   %xmm0,%xmm0
    5761:	f3 0f 2a 45 8c       	cvtsi2ssl -0x74(%rbp),%xmm0
    5766:	8b 05 00 00 00 00    	mov    0x0(%rip),%eax        # 576c <update_region_occ+0x16a>
    576c:	66 0f ef c9          	pxor   %xmm1,%xmm1
    5770:	f3 0f 2a c8          	cvtsi2ss %eax,%xmm1
    5774:	f3 0f 5e c1          	divss  %xmm1,%xmm0
    5778:	f3 0f 11 45 e0       	movss  %xmm0,-0x20(%rbp)
    577d:	66 0f ef c0          	pxor   %xmm0,%xmm0
    5781:	f3 0f 2a 45 8c       	cvtsi2ssl -0x74(%rbp),%xmm0
    5786:	8b 05 00 00 00 00    	mov    0x0(%rip),%eax        # 578c <update_region_occ+0x18a>
    578c:	66 0f ef c9          	pxor   %xmm1,%xmm1
    5790:	f3 0f 2a c8          	cvtsi2ss %eax,%xmm1
    5794:	f3 0f 5e c1          	divss  %xmm1,%xmm0
    5798:	f3 0f 11 45 dc       	movss  %xmm0,-0x24(%rbp)
    579d:	f3 0f 5a 45 f0       	cvtss2sd -0x10(%rbp),%xmm0
    57a2:	f2 0f 10 0d 00 00 00 	movsd  0x0(%rip),%xmm1        # 57aa <update_region_occ+0x1a8>
    57a9:	00 
    57aa:	f2 0f 5c c1          	subsd  %xmm1,%xmm0
    57ae:	f2 0f 2c c0          	cvttsd2si %xmm0,%eax
    57b2:	66 0f ef c0          	pxor   %xmm0,%xmm0
    57b6:	f3 0f 2a c0          	cvtsi2ss %eax,%xmm0
    57ba:	f3 0f 59 45 e0       	mulss  -0x20(%rbp),%xmm0
    57bf:	f3 0f 2c c0          	cvttss2si %xmm0,%eax
    57c3:	89 45 d8             	mov    %eax,-0x28(%rbp)
    57c6:	f3 0f 5a 45 ec       	cvtss2sd -0x14(%rbp),%xmm0
    57cb:	f2 0f 10 0d 00 00 00 	movsd  0x0(%rip),%xmm1        # 57d3 <update_region_occ+0x1d1>
    57d2:	00 
    57d3:	f2 0f 5c c1          	subsd  %xmm1,%xmm0
    57d7:	f2 0f 2c c0          	cvttsd2si %xmm0,%eax
    57db:	66 0f ef c0          	pxor   %xmm0,%xmm0
    57df:	f3 0f 2a c0          	cvtsi2ss %eax,%xmm0
    57e3:	f3 0f 59 45 e0       	mulss  -0x20(%rbp),%xmm0
    57e8:	f3 0f 2c c0          	cvttss2si %xmm0,%eax
    57ec:	89 45 d4             	mov    %eax,-0x2c(%rbp)
    57ef:	8b 45 8c             	mov    -0x74(%rbp),%eax
    57f2:	8d 50 ff             	lea    -0x1(%rax),%edx
    57f5:	8b 45 d4             	mov    -0x2c(%rbp),%eax
    57f8:	39 c2                	cmp    %eax,%edx
    57fa:	0f 4e c2             	cmovle %edx,%eax
    57fd:	89 45 d4             	mov    %eax,-0x2c(%rbp)
    5800:	f3 0f 5a 45 e8       	cvtss2sd -0x18(%rbp),%xmm0
    5805:	f2 0f 10 0d 00 00 00 	movsd  0x0(%rip),%xmm1        # 580d <update_region_occ+0x20b>
    580c:	00 
    580d:	f2 0f 5c c1          	subsd  %xmm1,%xmm0
    5811:	f2 0f 2c c0          	cvttsd2si %xmm0,%eax
    5815:	66 0f ef c0          	pxor   %xmm0,%xmm0
    5819:	f3 0f 2a c0          	cvtsi2ss %eax,%xmm0
    581d:	f3 0f 59 45 dc       	mulss  -0x24(%rbp),%xmm0
    5822:	f3 0f 2c c0          	cvttss2si %xmm0,%eax
    5826:	89 45 d0             	mov    %eax,-0x30(%rbp)
    5829:	f3 0f 5a 45 e4       	cvtss2sd -0x1c(%rbp),%xmm0
    582e:	f2 0f 10 0d 00 00 00 	movsd  0x0(%rip),%xmm1        # 5836 <update_region_occ+0x234>
    5835:	00 
    5836:	f2 0f 5c c1          	subsd  %xmm1,%xmm0
    583a:	f2 0f 2c c0          	cvttsd2si %xmm0,%eax
    583e:	66 0f ef c0          	pxor   %xmm0,%xmm0
    5842:	f3 0f 2a c0          	cvtsi2ss %eax,%xmm0
    5846:	f3 0f 59 45 dc       	mulss  -0x24(%rbp),%xmm0
    584b:	f3 0f 2c c0          	cvttss2si %xmm0,%eax
    584f:	89 45 cc             	mov    %eax,-0x34(%rbp)
    5852:	8b 45 8c             	mov    -0x74(%rbp),%eax
    5855:	8d 50 ff             	lea    -0x1(%rax),%edx
    5858:	8b 45 cc             	mov    -0x34(%rbp),%eax
    585b:	39 c2                	cmp    %eax,%edx
    585d:	0f 4e c2             	cmovle %edx,%eax
    5860:	89 45 cc             	mov    %eax,-0x34(%rbp)
    5863:	f3 0f 10 45 ec       	movss  -0x14(%rbp),%xmm0
    5868:	f3 0f 5c 45 f0       	subss  -0x10(%rbp),%xmm0
    586d:	f3 0f 10 0d 00 00 00 	movss  0x0(%rip),%xmm1        # 5875 <update_region_occ+0x273>
    5874:	00 
    5875:	f3 0f 5e c8          	divss  %xmm0,%xmm1
    5879:	0f 28 c1             	movaps %xmm1,%xmm0
    587c:	f3 0f 11 45 c8       	movss  %xmm0,-0x38(%rbp)
    5881:	f3 0f 10 45 e4       	movss  -0x1c(%rbp),%xmm0
    5886:	f3 0f 5c 45 e8       	subss  -0x18(%rbp),%xmm0
    588b:	f3 0f 10 0d 00 00 00 	movss  0x0(%rip),%xmm1        # 5893 <update_region_occ+0x291>
    5892:	00 
    5893:	f3 0f 5e c8          	divss  %xmm0,%xmm1
    5897:	0f 28 c1             	movaps %xmm1,%xmm0
    589a:	f3 0f 11 45 c4       	movss  %xmm0,-0x3c(%rbp)
    589f:	8b 45 d8             	mov    -0x28(%rbp),%eax
    58a2:	89 45 f8             	mov    %eax,-0x8(%rbp)
    58a5:	e9 b5 02 00 00       	jmpq   5b5f <update_region_occ+0x55d>
    58aa:	8b 45 d0             	mov    -0x30(%rbp),%eax
    58ad:	89 45 f4             	mov    %eax,-0xc(%rbp)
    58b0:	e9 9a 02 00 00       	jmpq   5b4f <update_region_occ+0x54d>
    58b5:	48 8b 05 00 00 00 00 	mov    0x0(%rip),%rax        # 58bc <update_region_occ+0x2ba>
    58bc:	8b 55 f8             	mov    -0x8(%rbp),%edx
    58bf:	48 63 d2             	movslq %edx,%rdx
    58c2:	48 c1 e2 02          	shl    $0x2,%rdx
    58c6:	48 01 d0             	add    %rdx,%rax
    58c9:	f3 0f 10 00          	movss  (%rax),%xmm0
    58cd:	0f 2e 45 f0          	ucomiss -0x10(%rbp),%xmm0
    58d1:	76 1a                	jbe    58ed <update_region_occ+0x2eb>
    58d3:	48 8b 05 00 00 00 00 	mov    0x0(%rip),%rax        # 58da <update_region_occ+0x2d8>
    58da:	8b 55 f8             	mov    -0x8(%rbp),%edx
    58dd:	48 63 d2             	movslq %edx,%rdx
    58e0:	48 c1 e2 02          	shl    $0x2,%rdx
    58e4:	48 01 d0             	add    %rdx,%rax
    58e7:	f3 0f 10 00          	movss  (%rax),%xmm0
    58eb:	eb 05                	jmp    58f2 <update_region_occ+0x2f0>
    58ed:	f3 0f 10 45 f0       	movss  -0x10(%rbp),%xmm0
    58f2:	f3 0f 11 45 c0       	movss  %xmm0,-0x40(%rbp)
    58f7:	48 8b 05 00 00 00 00 	mov    0x0(%rip),%rax        # 58fe <update_region_occ+0x2fc>
    58fe:	8b 55 f8             	mov    -0x8(%rbp),%edx
    5901:	48 63 d2             	movslq %edx,%rdx
    5904:	48 83 c2 01          	add    $0x1,%rdx
    5908:	48 c1 e2 02          	shl    $0x2,%rdx
    590c:	48 01 d0             	add    %rdx,%rax
    590f:	f3 0f 10 00          	movss  (%rax),%xmm0
    5913:	0f 2e 45 ec          	ucomiss -0x14(%rbp),%xmm0
    5917:	76 07                	jbe    5920 <update_region_occ+0x31e>
    5919:	f3 0f 10 45 ec       	movss  -0x14(%rbp),%xmm0
    591e:	eb 1c                	jmp    593c <update_region_occ+0x33a>
    5920:	48 8b 05 00 00 00 00 	mov    0x0(%rip),%rax        # 5927 <update_region_occ+0x325>
    5927:	8b 55 f8             	mov    -0x8(%rbp),%edx
    592a:	48 63 d2             	movslq %edx,%rdx
    592d:	48 83 c2 01          	add    $0x1,%rdx
    5931:	48 c1 e2 02          	shl    $0x2,%rdx
    5935:	48 01 d0             	add    %rdx,%rax
    5938:	f3 0f 10 00          	movss  (%rax),%xmm0
    593c:	f3 0f 11 45 bc       	movss  %xmm0,-0x44(%rbp)
    5941:	48 8b 05 00 00 00 00 	mov    0x0(%rip),%rax        # 5948 <update_region_occ+0x346>
    5948:	8b 55 f4             	mov    -0xc(%rbp),%edx
    594b:	48 63 d2             	movslq %edx,%rdx
    594e:	48 c1 e2 02          	shl    $0x2,%rdx
    5952:	48 01 d0             	add    %rdx,%rax
    5955:	f3 0f 10 00          	movss  (%rax),%xmm0
    5959:	0f 2e 45 e8          	ucomiss -0x18(%rbp),%xmm0
    595d:	76 1a                	jbe    5979 <update_region_occ+0x377>
    595f:	48 8b 05 00 00 00 00 	mov    0x0(%rip),%rax        # 5966 <update_region_occ+0x364>
    5966:	8b 55 f4             	mov    -0xc(%rbp),%edx
    5969:	48 63 d2             	movslq %edx,%rdx
    596c:	48 c1 e2 02          	shl    $0x2,%rdx
    5970:	48 01 d0             	add    %rdx,%rax
    5973:	f3 0f 10 00          	movss  (%rax),%xmm0
    5977:	eb 05                	jmp    597e <update_region_occ+0x37c>
    5979:	f3 0f 10 45 e8       	movss  -0x18(%rbp),%xmm0
    597e:	f3 0f 11 45 b8       	movss  %xmm0,-0x48(%rbp)
    5983:	48 8b 05 00 00 00 00 	mov    0x0(%rip),%rax        # 598a <update_region_occ+0x388>
    598a:	8b 55 f4             	mov    -0xc(%rbp),%edx
    598d:	48 63 d2             	movslq %edx,%rdx
    5990:	48 83 c2 01          	add    $0x1,%rdx
    5994:	48 c1 e2 02          	shl    $0x2,%rdx
    5998:	48 01 d0             	add    %rdx,%rax
    599b:	f3 0f 10 00          	movss  (%rax),%xmm0
    599f:	0f 2e 45 e4          	ucomiss -0x1c(%rbp),%xmm0
    59a3:	76 07                	jbe    59ac <update_region_occ+0x3aa>
    59a5:	f3 0f 10 45 e4       	movss  -0x1c(%rbp),%xmm0
    59aa:	eb 1c                	jmp    59c8 <update_region_occ+0x3c6>
    59ac:	48 8b 05 00 00 00 00 	mov    0x0(%rip),%rax        # 59b3 <update_region_occ+0x3b1>
    59b3:	8b 55 f4             	mov    -0xc(%rbp),%edx
    59b6:	48 63 d2             	movslq %edx,%rdx
    59b9:	48 83 c2 01          	add    $0x1,%rdx
    59bd:	48 c1 e2 02          	shl    $0x2,%rdx
    59c1:	48 01 d0             	add    %rdx,%rax
    59c4:	f3 0f 10 00          	movss  (%rax),%xmm0
    59c8:	f3 0f 11 45 b4       	movss  %xmm0,-0x4c(%rbp)
    59cd:	f3 0f 10 45 bc       	movss  -0x44(%rbp),%xmm0
    59d2:	f3 0f 5c 45 c0       	subss  -0x40(%rbp),%xmm0
    59d7:	f3 0f 11 45 b0       	movss  %xmm0,-0x50(%rbp)
    59dc:	f3 0f 10 45 b4       	movss  -0x4c(%rbp),%xmm0
    59e1:	f3 0f 5c 45 b8       	subss  -0x48(%rbp),%xmm0
    59e6:	f3 0f 11 45 ac       	movss  %xmm0,-0x54(%rbp)
    59eb:	f3 0f 5a 45 b0       	cvtss2sd -0x50(%rbp),%xmm0
    59f0:	f2 0f 10 0d 00 00 00 	movsd  0x0(%rip),%xmm1        # 59f8 <update_region_occ+0x3f6>
    59f7:	00 
    59f8:	66 0f 2e c8          	ucomisd %xmm0,%xmm1
    59fc:	76 1b                	jbe    5a19 <update_region_occ+0x417>
    59fe:	f3 0f 5a 45 b0       	cvtss2sd -0x50(%rbp),%xmm0
    5a03:	8b 45 9c             	mov    -0x64(%rbp),%eax
    5a06:	89 c6                	mov    %eax,%esi
    5a08:	48 8d 3d 00 00 00 00 	lea    0x0(%rip),%rdi        # 5a0f <update_region_occ+0x40d>
    5a0f:	b8 01 00 00 00       	mov    $0x1,%eax
    5a14:	e8 00 00 00 00       	callq  5a19 <update_region_occ+0x417>
    5a19:	f3 0f 5a 45 ac       	cvtss2sd -0x54(%rbp),%xmm0
    5a1e:	f2 0f 10 0d 00 00 00 	movsd  0x0(%rip),%xmm1        # 5a26 <update_region_occ+0x424>
    5a25:	00 
    5a26:	66 0f 2e c8          	ucomisd %xmm0,%xmm1
    5a2a:	76 1b                	jbe    5a47 <update_region_occ+0x445>
    5a2c:	f3 0f 5a 45 ac       	cvtss2sd -0x54(%rbp),%xmm0
    5a31:	8b 45 9c             	mov    -0x64(%rbp),%eax
    5a34:	89 c6                	mov    %eax,%esi
    5a36:	48 8d 3d 00 00 00 00 	lea    0x0(%rip),%rdi        # 5a3d <update_region_occ+0x43b>
    5a3d:	b8 01 00 00 00       	mov    $0x1,%eax
    5a42:	e8 00 00 00 00       	callq  5a47 <update_region_occ+0x445>
    5a47:	f3 0f 10 45 fc       	movss  -0x4(%rbp),%xmm0
    5a4c:	f3 0f 59 45 ac       	mulss  -0x54(%rbp),%xmm0
    5a51:	f3 0f 59 45 b0       	mulss  -0x50(%rbp),%xmm0
    5a56:	f3 0f 59 45 c4       	mulss  -0x3c(%rbp),%xmm0
    5a5b:	f3 0f 59 45 e0       	mulss  -0x20(%rbp),%xmm0
    5a60:	f3 0f 11 45 a8       	movss  %xmm0,-0x58(%rbp)
    5a65:	f3 0f 10 45 fc       	movss  -0x4(%rbp),%xmm0
    5a6a:	f3 0f 59 45 b0       	mulss  -0x50(%rbp),%xmm0
    5a6f:	f3 0f 59 45 ac       	mulss  -0x54(%rbp),%xmm0
    5a74:	f3 0f 59 45 c8       	mulss  -0x38(%rbp),%xmm0
    5a79:	f3 0f 59 45 dc       	mulss  -0x24(%rbp),%xmm0
    5a7e:	f3 0f 11 45 a4       	movss  %xmm0,-0x5c(%rbp)
    5a83:	48 8b 05 00 00 00 00 	mov    0x0(%rip),%rax        # 5a8a <update_region_occ+0x488>
    5a8a:	8b 55 f8             	mov    -0x8(%rbp),%edx
    5a8d:	48 63 d2             	movslq %edx,%rdx
    5a90:	48 c1 e2 03          	shl    $0x3,%rdx
    5a94:	48 01 d0             	add    %rdx,%rax
    5a97:	48 8b 00             	mov    (%rax),%rax
    5a9a:	8b 55 f4             	mov    -0xc(%rbp),%edx
    5a9d:	48 63 d2             	movslq %edx,%rdx
    5aa0:	48 c1 e2 04          	shl    $0x4,%rdx
    5aa4:	48 01 d0             	add    %rdx,%rax
    5aa7:	48 8b 15 00 00 00 00 	mov    0x0(%rip),%rdx        # 5aae <update_region_occ+0x4ac>
    5aae:	8b 4d f8             	mov    -0x8(%rbp),%ecx
    5ab1:	48 63 c9             	movslq %ecx,%rcx
    5ab4:	48 c1 e1 03          	shl    $0x3,%rcx
    5ab8:	48 01 ca             	add    %rcx,%rdx
    5abb:	48 8b 12             	mov    (%rdx),%rdx
    5abe:	8b 4d f4             	mov    -0xc(%rbp),%ecx
    5ac1:	48 63 c9             	movslq %ecx,%rcx
    5ac4:	48 c1 e1 04          	shl    $0x4,%rcx
    5ac8:	48 01 ca             	add    %rcx,%rdx
    5acb:	f3 0f 10 4a 08       	movss  0x8(%rdx),%xmm1
    5ad0:	66 0f ef c0          	pxor   %xmm0,%xmm0
    5ad4:	f3 0f 2a 45 98       	cvtsi2ssl -0x68(%rbp),%xmm0
    5ad9:	f3 0f 59 45 a8       	mulss  -0x58(%rbp),%xmm0
    5ade:	f3 0f 58 c1          	addss  %xmm1,%xmm0
    5ae2:	f3 0f 11 40 08       	movss  %xmm0,0x8(%rax)
    5ae7:	48 8b 05 00 00 00 00 	mov    0x0(%rip),%rax        # 5aee <update_region_occ+0x4ec>
    5aee:	8b 55 f8             	mov    -0x8(%rbp),%edx
    5af1:	48 63 d2             	movslq %edx,%rdx
    5af4:	48 c1 e2 03          	shl    $0x3,%rdx
    5af8:	48 01 d0             	add    %rdx,%rax
    5afb:	48 8b 00             	mov    (%rax),%rax
    5afe:	8b 55 f4             	mov    -0xc(%rbp),%edx
    5b01:	48 63 d2             	movslq %edx,%rdx
    5b04:	48 c1 e2 04          	shl    $0x4,%rdx
    5b08:	48 01 d0             	add    %rdx,%rax
    5b0b:	48 8b 15 00 00 00 00 	mov    0x0(%rip),%rdx        # 5b12 <update_region_occ+0x510>
    5b12:	8b 4d f8             	mov    -0x8(%rbp),%ecx
    5b15:	48 63 c9             	movslq %ecx,%rcx
    5b18:	48 c1 e1 03          	shl    $0x3,%rcx
    5b1c:	48 01 ca             	add    %rcx,%rdx
    5b1f:	48 8b 12             	mov    (%rdx),%rdx
    5b22:	8b 4d f4             	mov    -0xc(%rbp),%ecx
    5b25:	48 63 c9             	movslq %ecx,%rcx
    5b28:	48 c1 e1 04          	shl    $0x4,%rcx
    5b2c:	48 01 ca             	add    %rcx,%rdx
    5b2f:	f3 0f 10 4a 08       	movss  0x8(%rdx),%xmm1
    5b34:	66 0f ef c0          	pxor   %xmm0,%xmm0
    5b38:	f3 0f 2a 45 98       	cvtsi2ssl -0x68(%rbp),%xmm0
    5b3d:	f3 0f 59 45 a4       	mulss  -0x5c(%rbp),%xmm0
    5b42:	f3 0f 58 c1          	addss  %xmm1,%xmm0
    5b46:	f3 0f 11 40 08       	movss  %xmm0,0x8(%rax)
    5b4b:	83 45 f4 01          	addl   $0x1,-0xc(%rbp)
    5b4f:	8b 45 f4             	mov    -0xc(%rbp),%eax
    5b52:	3b 45 cc             	cmp    -0x34(%rbp),%eax
    5b55:	0f 8e 5a fd ff ff    	jle    58b5 <update_region_occ+0x2b3>
    5b5b:	83 45 f8 01          	addl   $0x1,-0x8(%rbp)
    5b5f:	8b 45 f8             	mov    -0x8(%rbp),%eax
    5b62:	3b 45 d4             	cmp    -0x2c(%rbp),%eax
    5b65:	0f 8e 3f fd ff ff    	jle    58aa <update_region_occ+0x2a8>
    5b6b:	90                   	nop
    5b6c:	c9                   	leaveq 
    5b6d:	c3                   	retq   

0000000000005b6e <free_place_regions>:
    5b6e:	55                   	push   %rbp
    5b6f:	48 89 e5             	mov    %rsp,%rbp
    5b72:	48 83 ec 10          	sub    $0x10,%rsp
    5b76:	ff 15 00 00 00 00    	callq  *0x0(%rip)        # 5b7c <free_place_regions+0xe>
    5b7c:	89 7d fc             	mov    %edi,-0x4(%rbp)
    5b7f:	8b 45 fc             	mov    -0x4(%rbp),%eax
    5b82:	8d 50 ff             	lea    -0x1(%rax),%edx
    5b85:	48 8b 05 00 00 00 00 	mov    0x0(%rip),%rax        # 5b8c <free_place_regions+0x1e>
    5b8c:	41 b8 10 00 00 00    	mov    $0x10,%r8d
    5b92:	b9 00 00 00 00       	mov    $0x0,%ecx
    5b97:	be 00 00 00 00       	mov    $0x0,%esi
    5b9c:	48 89 c7             	mov    %rax,%rdi
    5b9f:	e8 00 00 00 00       	callq  5ba4 <free_place_regions+0x36>
    5ba4:	8b 45 fc             	mov    -0x4(%rbp),%eax
    5ba7:	8d 50 ff             	lea    -0x1(%rax),%edx
    5baa:	48 8b 05 00 00 00 00 	mov    0x0(%rip),%rax        # 5bb1 <free_place_regions+0x43>
    5bb1:	41 b8 10 00 00 00    	mov    $0x10,%r8d
    5bb7:	b9 00 00 00 00       	mov    $0x0,%ecx
    5bbc:	be 00 00 00 00       	mov    $0x0,%esi
    5bc1:	48 89 c7             	mov    %rax,%rdi
    5bc4:	e8 00 00 00 00       	callq  5bc9 <free_place_regions+0x5b>
    5bc9:	48 8b 05 00 00 00 00 	mov    0x0(%rip),%rax        # 5bd0 <free_place_regions+0x62>
    5bd0:	48 89 c7             	mov    %rax,%rdi
    5bd3:	e8 00 00 00 00       	callq  5bd8 <free_place_regions+0x6a>
    5bd8:	48 8b 05 00 00 00 00 	mov    0x0(%rip),%rax        # 5bdf <free_place_regions+0x71>
    5bdf:	48 89 c7             	mov    %rax,%rdi
    5be2:	e8 00 00 00 00       	callq  5be7 <free_place_regions+0x79>
    5be7:	90                   	nop
    5be8:	c9                   	leaveq 
    5be9:	c3                   	retq   

0000000000005bea <free_placement_structs>:
    5bea:	55                   	push   %rbp
    5beb:	48 89 e5             	mov    %rsp,%rbp
    5bee:	48 83 ec 30          	sub    $0x30,%rsp
    5bf2:	ff 15 00 00 00 00    	callq  *0x0(%rip)        # 5bf8 <free_placement_structs+0xe>
    5bf8:	89 7d ec             	mov    %edi,-0x14(%rbp)
    5bfb:	89 75 e8             	mov    %esi,-0x18(%rbp)
    5bfe:	48 89 55 e0          	mov    %rdx,-0x20(%rbp)
    5c02:	48 89 4d d8          	mov    %rcx,-0x28(%rbp)
    5c06:	8b 45 10             	mov    0x10(%rbp),%eax
    5c09:	83 f8 01             	cmp    $0x1,%eax
    5c0c:	74 13                	je     5c21 <free_placement_structs+0x37>
    5c0e:	8b 45 10             	mov    0x10(%rbp),%eax
    5c11:	83 f8 02             	cmp    $0x2,%eax
    5c14:	74 0b                	je     5c21 <free_placement_structs+0x37>
    5c16:	8b 45 44             	mov    0x44(%rbp),%eax
    5c19:	85 c0                	test   %eax,%eax
    5c1b:	0f 84 77 01 00 00    	je     5d98 <free_placement_structs+0x1ae>
    5c21:	c7 45 fc 00 00 00 00 	movl   $0x0,-0x4(%rbp)
    5c28:	e9 f8 00 00 00       	jmpq   5d25 <free_placement_structs+0x13b>
    5c2d:	48 8b 05 00 00 00 00 	mov    0x0(%rip),%rax        # 5c34 <free_placement_structs+0x4a>
    5c34:	8b 55 fc             	mov    -0x4(%rbp),%edx
    5c37:	48 63 d2             	movslq %edx,%rdx
    5c3a:	48 c1 e2 03          	shl    $0x3,%rdx
    5c3e:	48 01 d0             	add    %rdx,%rax
    5c41:	48 8b 10             	mov    (%rax),%rdx
    5c44:	48 83 c2 04          	add    $0x4,%rdx
    5c48:	48 89 10             	mov    %rdx,(%rax)
    5c4b:	48 8b 05 00 00 00 00 	mov    0x0(%rip),%rax        # 5c52 <free_placement_structs+0x68>
    5c52:	8b 55 fc             	mov    -0x4(%rbp),%edx
    5c55:	48 63 d2             	movslq %edx,%rdx
    5c58:	48 c1 e2 03          	shl    $0x3,%rdx
    5c5c:	48 01 d0             	add    %rdx,%rax
    5c5f:	48 8b 00             	mov    (%rax),%rax
    5c62:	48 89 c7             	mov    %rax,%rdi
    5c65:	e8 00 00 00 00       	callq  5c6a <free_placement_structs+0x80>
    5c6a:	48 8b 05 00 00 00 00 	mov    0x0(%rip),%rax        # 5c71 <free_placement_structs+0x87>
    5c71:	8b 55 fc             	mov    -0x4(%rbp),%edx
    5c74:	48 63 d2             	movslq %edx,%rdx
    5c77:	48 c1 e2 03          	shl    $0x3,%rdx
    5c7b:	48 01 d0             	add    %rdx,%rax
    5c7e:	48 8b 10             	mov    (%rax),%rdx
    5c81:	48 83 c2 04          	add    $0x4,%rdx
    5c85:	48 89 10             	mov    %rdx,(%rax)
    5c88:	48 8b 05 00 00 00 00 	mov    0x0(%rip),%rax        # 5c8f <free_placement_structs+0xa5>
    5c8f:	8b 55 fc             	mov    -0x4(%rbp),%edx
    5c92:	48 63 d2             	movslq %edx,%rdx
    5c95:	48 c1 e2 03          	shl    $0x3,%rdx
    5c99:	48 01 d0             	add    %rdx,%rax
    5c9c:	48 8b 00             	mov    (%rax),%rax
    5c9f:	48 89 c7             	mov    %rax,%rdi
    5ca2:	e8 00 00 00 00       	callq  5ca7 <free_placement_structs+0xbd>
    5ca7:	48 8b 05 00 00 00 00 	mov    0x0(%rip),%rax        # 5cae <free_placement_structs+0xc4>
    5cae:	8b 55 fc             	mov    -0x4(%rbp),%edx
    5cb1:	48 63 d2             	movslq %edx,%rdx
    5cb4:	48 c1 e2 03          	shl    $0x3,%rdx
    5cb8:	48 01 d0             	add    %rdx,%rax
    5cbb:	48 8b 10             	mov    (%rax),%rdx
    5cbe:	48 83 c2 04          	add    $0x4,%rdx
    5cc2:	48 89 10             	mov    %rdx,(%rax)
    5cc5:	48 8b 05 00 00 00 00 	mov    0x0(%rip),%rax        # 5ccc <free_placement_structs+0xe2>
    5ccc:	8b 55 fc             	mov    -0x4(%rbp),%edx
    5ccf:	48 63 d2             	movslq %edx,%rdx
    5cd2:	48 c1 e2 03          	shl    $0x3,%rdx
    5cd6:	48 01 d0             	add    %rdx,%rax
    5cd9:	48 8b 00             	mov    (%rax),%rax
    5cdc:	48 89 c7             	mov    %rax,%rdi
    5cdf:	e8 00 00 00 00       	callq  5ce4 <free_placement_structs+0xfa>
    5ce4:	48 8b 05 00 00 00 00 	mov    0x0(%rip),%rax        # 5ceb <free_placement_structs+0x101>
    5ceb:	8b 55 fc             	mov    -0x4(%rbp),%edx
    5cee:	48 63 d2             	movslq %edx,%rdx
    5cf1:	48 c1 e2 03          	shl    $0x3,%rdx
    5cf5:	48 01 d0             	add    %rdx,%rax
    5cf8:	48 8b 10             	mov    (%rax),%rdx
    5cfb:	48 83 c2 04          	add    $0x4,%rdx
    5cff:	48 89 10             	mov    %rdx,(%rax)
    5d02:	48 8b 05 00 00 00 00 	mov    0x0(%rip),%rax        # 5d09 <free_placement_structs+0x11f>
    5d09:	8b 55 fc             	mov    -0x4(%rbp),%edx
    5d0c:	48 63 d2             	movslq %edx,%rdx
    5d0f:	48 c1 e2 03          	shl    $0x3,%rdx
    5d13:	48 01 d0             	add    %rdx,%rax
    5d16:	48 8b 00             	mov    (%rax),%rax
    5d19:	48 89 c7             	mov    %rax,%rdi
    5d1c:	e8 00 00 00 00       	callq  5d21 <free_placement_structs+0x137>
    5d21:	83 45 fc 01          	addl   $0x1,-0x4(%rbp)
    5d25:	8b 05 00 00 00 00    	mov    0x0(%rip),%eax        # 5d2b <free_placement_structs+0x141>
    5d2b:	39 45 fc             	cmp    %eax,-0x4(%rbp)
    5d2e:	0f 8c f9 fe ff ff    	jl     5c2d <free_placement_structs+0x43>
    5d34:	48 8b 05 00 00 00 00 	mov    0x0(%rip),%rax        # 5d3b <free_placement_structs+0x151>
    5d3b:	48 89 c7             	mov    %rax,%rdi
    5d3e:	e8 00 00 00 00       	callq  5d43 <free_placement_structs+0x159>
    5d43:	48 8b 05 00 00 00 00 	mov    0x0(%rip),%rax        # 5d4a <free_placement_structs+0x160>
    5d4a:	48 89 c7             	mov    %rax,%rdi
    5d4d:	e8 00 00 00 00       	callq  5d52 <free_placement_structs+0x168>
    5d52:	48 8b 05 00 00 00 00 	mov    0x0(%rip),%rax        # 5d59 <free_placement_structs+0x16f>
    5d59:	48 89 c7             	mov    %rax,%rdi
    5d5c:	e8 00 00 00 00       	callq  5d61 <free_placement_structs+0x177>
    5d61:	48 8b 05 00 00 00 00 	mov    0x0(%rip),%rax        # 5d68 <free_placement_structs+0x17e>
    5d68:	48 89 c7             	mov    %rax,%rdi
    5d6b:	e8 00 00 00 00       	callq  5d70 <free_placement_structs+0x186>
    5d70:	8b 05 00 00 00 00    	mov    0x0(%rip),%eax        # 5d76 <free_placement_structs+0x18c>
    5d76:	8d 50 ff             	lea    -0x1(%rax),%edx
    5d79:	48 8b 05 00 00 00 00 	mov    0x0(%rip),%rax        # 5d80 <free_placement_structs+0x196>
    5d80:	41 b8 04 00 00 00    	mov    $0x4,%r8d
    5d86:	b9 00 00 00 00       	mov    $0x0,%ecx
    5d8b:	be 00 00 00 00       	mov    $0x0,%esi
    5d90:	48 89 c7             	mov    %rax,%rdi
    5d93:	e8 00 00 00 00       	callq  5d98 <free_placement_structs+0x1ae>
    5d98:	48 8b 05 00 00 00 00 	mov    0x0(%rip),%rax        # 5d9f <free_placement_structs+0x1b5>
    5d9f:	48 89 c7             	mov    %rax,%rdi
    5da2:	e8 00 00 00 00       	callq  5da7 <free_placement_structs+0x1bd>
    5da7:	48 8b 05 00 00 00 00 	mov    0x0(%rip),%rax        # 5dae <free_placement_structs+0x1c4>
    5dae:	48 89 c7             	mov    %rax,%rdi
    5db1:	e8 00 00 00 00       	callq  5db6 <free_placement_structs+0x1cc>
    5db6:	48 8b 05 00 00 00 00 	mov    0x0(%rip),%rax        # 5dbd <free_placement_structs+0x1d3>
    5dbd:	48 89 c7             	mov    %rax,%rdi
    5dc0:	e8 00 00 00 00       	callq  5dc5 <free_placement_structs+0x1db>
    5dc5:	48 8b 05 00 00 00 00 	mov    0x0(%rip),%rax        # 5dcc <free_placement_structs+0x1e2>
    5dcc:	48 89 c7             	mov    %rax,%rdi
    5dcf:	e8 00 00 00 00       	callq  5dd4 <free_placement_structs+0x1ea>
    5dd4:	48 c7 05 00 00 00 00 	movq   $0x0,0x0(%rip)        # 5ddf <free_placement_structs+0x1f5>
    5ddb:	00 00 00 00 
    5ddf:	48 c7 05 00 00 00 00 	movq   $0x0,0x0(%rip)        # 5dea <free_placement_structs+0x200>
    5de6:	00 00 00 00 
    5dea:	48 c7 05 00 00 00 00 	movq   $0x0,0x0(%rip)        # 5df5 <free_placement_structs+0x20b>
    5df1:	00 00 00 00 
    5df5:	48 c7 05 00 00 00 00 	movq   $0x0,0x0(%rip)        # 5e00 <free_placement_structs+0x216>
    5dfc:	00 00 00 00 
    5e00:	e8 64 0e 00 00       	callq  6c69 <free_unique_pin_list>
    5e05:	83 7d ec 01          	cmpl   $0x1,-0x14(%rbp)
    5e09:	75 50                	jne    5e5b <free_placement_structs+0x271>
    5e0b:	8b 45 e8             	mov    -0x18(%rbp),%eax
    5e0e:	89 c7                	mov    %eax,%edi
    5e10:	e8 59 fd ff ff       	callq  5b6e <free_place_regions>
    5e15:	8b 45 e8             	mov    -0x18(%rbp),%eax
    5e18:	8d 50 ff             	lea    -0x1(%rax),%edx
    5e1b:	48 8b 45 e0          	mov    -0x20(%rbp),%rax
    5e1f:	41 b8 04 00 00 00    	mov    $0x4,%r8d
    5e25:	b9 00 00 00 00       	mov    $0x0,%ecx
    5e2a:	be 00 00 00 00       	mov    $0x0,%esi
    5e2f:	48 89 c7             	mov    %rax,%rdi
    5e32:	e8 00 00 00 00       	callq  5e37 <free_placement_structs+0x24d>
    5e37:	8b 45 e8             	mov    -0x18(%rbp),%eax
    5e3a:	8d 50 ff             	lea    -0x1(%rax),%edx
    5e3d:	48 8b 45 d8          	mov    -0x28(%rbp),%rax
    5e41:	41 b8 04 00 00 00    	mov    $0x4,%r8d
    5e47:	b9 00 00 00 00       	mov    $0x0,%ecx
    5e4c:	be 00 00 00 00       	mov    $0x0,%esi
    5e51:	48 89 c7             	mov    %rax,%rdi
    5e54:	e8 00 00 00 00       	callq  5e59 <free_placement_structs+0x26f>
    5e59:	eb 0b                	jmp    5e66 <free_placement_structs+0x27c>
    5e5b:	83 7d ec 00          	cmpl   $0x0,-0x14(%rbp)
    5e5f:	75 05                	jne    5e66 <free_placement_structs+0x27c>
    5e61:	e8 96 2b 00 00       	callq  89fc <free_fast_cost_update_structs>
    5e66:	90                   	nop
    5e67:	c9                   	leaveq 
    5e68:	c3                   	retq   

0000000000005e69 <alloc_and_load_placement_structs>:
    5e69:	55                   	push   %rbp
    5e6a:	48 89 e5             	mov    %rsp,%rbp
    5e6d:	53                   	push   %rbx
    5e6e:	48 83 ec 38          	sub    $0x38,%rsp
    5e72:	ff 15 00 00 00 00    	callq  *0x0(%rip)        # 5e78 <alloc_and_load_placement_structs+0xf>
    5e78:	89 7d dc             	mov    %edi,-0x24(%rbp)
    5e7b:	89 75 d8             	mov    %esi,-0x28(%rbp)
    5e7e:	f3 0f 11 45 d4       	movss  %xmm0,-0x2c(%rbp)
    5e83:	48 89 55 c8          	mov    %rdx,-0x38(%rbp)
    5e87:	48 89 4d c0          	mov    %rcx,-0x40(%rbp)
    5e8b:	c7 45 e4 00 00 00 00 	movl   $0x0,-0x1c(%rbp)
    5e92:	c7 45 e0 00 00 00 00 	movl   $0x0,-0x20(%rbp)
    5e99:	eb 36                	jmp    5ed1 <alloc_and_load_placement_structs+0x68>
    5e9b:	48 8b 0d 00 00 00 00 	mov    0x0(%rip),%rcx        # 5ea2 <alloc_and_load_placement_structs+0x39>
    5ea2:	8b 45 e0             	mov    -0x20(%rbp),%eax
    5ea5:	48 63 d0             	movslq %eax,%rdx
    5ea8:	48 89 d0             	mov    %rdx,%rax
    5eab:	48 c1 e0 03          	shl    $0x3,%rax
    5eaf:	48 01 d0             	add    %rdx,%rax
    5eb2:	48 01 c0             	add    %rax,%rax
    5eb5:	48 01 d0             	add    %rdx,%rax
    5eb8:	48 c1 e0 03          	shl    $0x3,%rax
    5ebc:	48 01 c8             	add    %rcx,%rax
    5ebf:	8b 50 08             	mov    0x8(%rax),%edx
    5ec2:	8b 45 e4             	mov    -0x1c(%rbp),%eax
    5ec5:	39 c2                	cmp    %eax,%edx
    5ec7:	0f 4d c2             	cmovge %edx,%eax
    5eca:	89 45 e4             	mov    %eax,-0x1c(%rbp)
    5ecd:	83 45 e0 01          	addl   $0x1,-0x20(%rbp)
    5ed1:	8b 05 00 00 00 00    	mov    0x0(%rip),%eax        # 5ed7 <alloc_and_load_placement_structs+0x6e>
    5ed7:	39 45 e0             	cmp    %eax,-0x20(%rbp)
    5eda:	7c bf                	jl     5e9b <alloc_and_load_placement_structs+0x32>
    5edc:	8b 45 10             	mov    0x10(%rbp),%eax
    5edf:	83 f8 01             	cmp    $0x1,%eax
    5ee2:	74 13                	je     5ef7 <alloc_and_load_placement_structs+0x8e>
    5ee4:	8b 45 10             	mov    0x10(%rbp),%eax
    5ee7:	83 f8 02             	cmp    $0x2,%eax
    5eea:	74 0b                	je     5ef7 <alloc_and_load_placement_structs+0x8e>
    5eec:	8b 45 44             	mov    0x44(%rbp),%eax
    5eef:	85 c0                	test   %eax,%eax
    5ef1:	0f 84 fc 02 00 00    	je     61f3 <alloc_and_load_placement_structs+0x38a>
    5ef7:	8b 05 00 00 00 00    	mov    0x0(%rip),%eax        # 5efd <alloc_and_load_placement_structs+0x94>
    5efd:	48 98                	cltq   
    5eff:	48 c1 e0 03          	shl    $0x3,%rax
    5f03:	48 89 c7             	mov    %rax,%rdi
    5f06:	e8 00 00 00 00       	callq  5f0b <alloc_and_load_placement_structs+0xa2>
    5f0b:	48 89 05 00 00 00 00 	mov    %rax,0x0(%rip)        # 5f12 <alloc_and_load_placement_structs+0xa9>
    5f12:	8b 05 00 00 00 00    	mov    0x0(%rip),%eax        # 5f18 <alloc_and_load_placement_structs+0xaf>
    5f18:	48 98                	cltq   
    5f1a:	48 c1 e0 03          	shl    $0x3,%rax
    5f1e:	48 89 c7             	mov    %rax,%rdi
    5f21:	e8 00 00 00 00       	callq  5f26 <alloc_and_load_placement_structs+0xbd>
    5f26:	48 89 05 00 00 00 00 	mov    %rax,0x0(%rip)        # 5f2d <alloc_and_load_placement_structs+0xc4>
    5f2d:	8b 05 00 00 00 00    	mov    0x0(%rip),%eax        # 5f33 <alloc_and_load_placement_structs+0xca>
    5f33:	48 98                	cltq   
    5f35:	48 c1 e0 03          	shl    $0x3,%rax
    5f39:	48 89 c7             	mov    %rax,%rdi
    5f3c:	e8 00 00 00 00       	callq  5f41 <alloc_and_load_placement_structs+0xd8>
    5f41:	48 89 05 00 00 00 00 	mov    %rax,0x0(%rip)        # 5f48 <alloc_and_load_placement_structs+0xdf>
    5f48:	8b 05 00 00 00 00    	mov    0x0(%rip),%eax        # 5f4e <alloc_and_load_placement_structs+0xe5>
    5f4e:	48 98                	cltq   
    5f50:	48 c1 e0 03          	shl    $0x3,%rax
    5f54:	48 89 c7             	mov    %rax,%rdi
    5f57:	e8 00 00 00 00       	callq  5f5c <alloc_and_load_placement_structs+0xf3>
    5f5c:	48 89 05 00 00 00 00 	mov    %rax,0x0(%rip)        # 5f63 <alloc_and_load_placement_structs+0xfa>
    5f63:	8b 45 e4             	mov    -0x1c(%rbp),%eax
    5f66:	8d 50 ff             	lea    -0x1(%rax),%edx
    5f69:	8b 05 00 00 00 00    	mov    0x0(%rip),%eax        # 5f6f <alloc_and_load_placement_structs+0x106>
    5f6f:	83 e8 01             	sub    $0x1,%eax
    5f72:	41 b8 04 00 00 00    	mov    $0x4,%r8d
    5f78:	89 d1                	mov    %edx,%ecx
    5f7a:	ba 00 00 00 00       	mov    $0x0,%edx
    5f7f:	89 c6                	mov    %eax,%esi
    5f81:	bf 00 00 00 00       	mov    $0x0,%edi
    5f86:	e8 00 00 00 00       	callq  5f8b <alloc_and_load_placement_structs+0x122>
    5f8b:	48 89 05 00 00 00 00 	mov    %rax,0x0(%rip)        # 5f92 <alloc_and_load_placement_structs+0x129>
    5f92:	c7 45 ec 00 00 00 00 	movl   $0x0,-0x14(%rbp)
    5f99:	e9 98 01 00 00       	jmpq   6136 <alloc_and_load_placement_structs+0x2cd>
    5f9e:	48 8b 05 00 00 00 00 	mov    0x0(%rip),%rax        # 5fa5 <alloc_and_load_placement_structs+0x13c>
    5fa5:	8b 55 ec             	mov    -0x14(%rbp),%edx
    5fa8:	48 63 d2             	movslq %edx,%rdx
    5fab:	48 c1 e2 03          	shl    $0x3,%rdx
    5faf:	48 8d 1c 10          	lea    (%rax,%rdx,1),%rbx
    5fb3:	48 8b 0d 00 00 00 00 	mov    0x0(%rip),%rcx        # 5fba <alloc_and_load_placement_structs+0x151>
    5fba:	8b 45 ec             	mov    -0x14(%rbp),%eax
    5fbd:	48 63 d0             	movslq %eax,%rdx
    5fc0:	48 89 d0             	mov    %rdx,%rax
    5fc3:	48 c1 e0 02          	shl    $0x2,%rax
    5fc7:	48 01 d0             	add    %rdx,%rax
    5fca:	48 c1 e0 03          	shl    $0x3,%rax
    5fce:	48 01 c8             	add    %rcx,%rax
    5fd1:	8b 40 08             	mov    0x8(%rax),%eax
    5fd4:	48 98                	cltq   
    5fd6:	48 c1 e0 02          	shl    $0x2,%rax
    5fda:	48 89 c7             	mov    %rax,%rdi
    5fdd:	e8 00 00 00 00       	callq  5fe2 <alloc_and_load_placement_structs+0x179>
    5fe2:	48 89 03             	mov    %rax,(%rbx)
    5fe5:	48 8b 05 00 00 00 00 	mov    0x0(%rip),%rax        # 5fec <alloc_and_load_placement_structs+0x183>
    5fec:	8b 55 ec             	mov    -0x14(%rbp),%edx
    5fef:	48 63 d2             	movslq %edx,%rdx
    5ff2:	48 c1 e2 03          	shl    $0x3,%rdx
    5ff6:	48 01 d0             	add    %rdx,%rax
    5ff9:	48 8b 10             	mov    (%rax),%rdx
    5ffc:	48 83 ea 04          	sub    $0x4,%rdx
    6000:	48 89 10             	mov    %rdx,(%rax)
    6003:	48 8b 05 00 00 00 00 	mov    0x0(%rip),%rax        # 600a <alloc_and_load_placement_structs+0x1a1>
    600a:	8b 55 ec             	mov    -0x14(%rbp),%edx
    600d:	48 63 d2             	movslq %edx,%rdx
    6010:	48 c1 e2 03          	shl    $0x3,%rdx
    6014:	48 8d 1c 10          	lea    (%rax,%rdx,1),%rbx
    6018:	48 8b 0d 00 00 00 00 	mov    0x0(%rip),%rcx        # 601f <alloc_and_load_placement_structs+0x1b6>
    601f:	8b 45 ec             	mov    -0x14(%rbp),%eax
    6022:	48 63 d0             	movslq %eax,%rdx
    6025:	48 89 d0             	mov    %rdx,%rax
    6028:	48 c1 e0 02          	shl    $0x2,%rax
    602c:	48 01 d0             	add    %rdx,%rax
    602f:	48 c1 e0 03          	shl    $0x3,%rax
    6033:	48 01 c8             	add    %rcx,%rax
    6036:	8b 40 08             	mov    0x8(%rax),%eax
    6039:	48 98                	cltq   
    603b:	48 c1 e0 02          	shl    $0x2,%rax
    603f:	48 89 c7             	mov    %rax,%rdi
    6042:	e8 00 00 00 00       	callq  6047 <alloc_and_load_placement_structs+0x1de>
    6047:	48 89 03             	mov    %rax,(%rbx)
    604a:	48 8b 05 00 00 00 00 	mov    0x0(%rip),%rax        # 6051 <alloc_and_load_placement_structs+0x1e8>
    6051:	8b 55 ec             	mov    -0x14(%rbp),%edx
    6054:	48 63 d2             	movslq %edx,%rdx
    6057:	48 c1 e2 03          	shl    $0x3,%rdx
    605b:	48 01 d0             	add    %rdx,%rax
    605e:	48 8b 10             	mov    (%rax),%rdx
    6061:	48 83 ea 04          	sub    $0x4,%rdx
    6065:	48 89 10             	mov    %rdx,(%rax)
    6068:	48 8b 05 00 00 00 00 	mov    0x0(%rip),%rax        # 606f <alloc_and_load_placement_structs+0x206>
    606f:	8b 55 ec             	mov    -0x14(%rbp),%edx
    6072:	48 63 d2             	movslq %edx,%rdx
    6075:	48 c1 e2 03          	shl    $0x3,%rdx
    6079:	48 8d 1c 10          	lea    (%rax,%rdx,1),%rbx
    607d:	48 8b 0d 00 00 00 00 	mov    0x0(%rip),%rcx        # 6084 <alloc_and_load_placement_structs+0x21b>
    6084:	8b 45 ec             	mov    -0x14(%rbp),%eax
    6087:	48 63 d0             	movslq %eax,%rdx
    608a:	48 89 d0             	mov    %rdx,%rax
    608d:	48 c1 e0 02          	shl    $0x2,%rax
    6091:	48 01 d0             	add    %rdx,%rax
    6094:	48 c1 e0 03          	shl    $0x3,%rax
    6098:	48 01 c8             	add    %rcx,%rax
    609b:	8b 40 08             	mov    0x8(%rax),%eax
    609e:	48 98                	cltq   
    60a0:	48 c1 e0 02          	shl    $0x2,%rax
    60a4:	48 89 c7             	mov    %rax,%rdi
    60a7:	e8 00 00 00 00       	callq  60ac <alloc_and_load_placement_structs+0x243>
    60ac:	48 89 03             	mov    %rax,(%rbx)
    60af:	48 8b 05 00 00 00 00 	mov    0x0(%rip),%rax        # 60b6 <alloc_and_load_placement_structs+0x24d>
    60b6:	8b 55 ec             	mov    -0x14(%rbp),%edx
    60b9:	48 63 d2             	movslq %edx,%rdx
    60bc:	48 c1 e2 03          	shl    $0x3,%rdx
    60c0:	48 01 d0             	add    %rdx,%rax
    60c3:	48 8b 10             	mov    (%rax),%rdx
    60c6:	48 83 ea 04          	sub    $0x4,%rdx
    60ca:	48 89 10             	mov    %rdx,(%rax)
    60cd:	48 8b 05 00 00 00 00 	mov    0x0(%rip),%rax        # 60d4 <alloc_and_load_placement_structs+0x26b>
    60d4:	8b 55 ec             	mov    -0x14(%rbp),%edx
    60d7:	48 63 d2             	movslq %edx,%rdx
    60da:	48 c1 e2 03          	shl    $0x3,%rdx
    60de:	48 8d 1c 10          	lea    (%rax,%rdx,1),%rbx
    60e2:	48 8b 0d 00 00 00 00 	mov    0x0(%rip),%rcx        # 60e9 <alloc_and_load_placement_structs+0x280>
    60e9:	8b 45 ec             	mov    -0x14(%rbp),%eax
    60ec:	48 63 d0             	movslq %eax,%rdx
    60ef:	48 89 d0             	mov    %rdx,%rax
    60f2:	48 c1 e0 02          	shl    $0x2,%rax
    60f6:	48 01 d0             	add    %rdx,%rax
    60f9:	48 c1 e0 03          	shl    $0x3,%rax
    60fd:	48 01 c8             	add    %rcx,%rax
    6100:	8b 40 08             	mov    0x8(%rax),%eax
    6103:	48 98                	cltq   
    6105:	48 c1 e0 02          	shl    $0x2,%rax
    6109:	48 89 c7             	mov    %rax,%rdi
    610c:	e8 00 00 00 00       	callq  6111 <alloc_and_load_placement_structs+0x2a8>
    6111:	48 89 03             	mov    %rax,(%rbx)
    6114:	48 8b 05 00 00 00 00 	mov    0x0(%rip),%rax        # 611b <alloc_and_load_placement_structs+0x2b2>
    611b:	8b 55 ec             	mov    -0x14(%rbp),%edx
    611e:	48 63 d2             	movslq %edx,%rdx
    6121:	48 c1 e2 03          	shl    $0x3,%rdx
    6125:	48 01 d0             	add    %rdx,%rax
    6128:	48 8b 10             	mov    (%rax),%rdx
    612b:	48 83 ea 04          	sub    $0x4,%rdx
    612f:	48 89 10             	mov    %rdx,(%rax)
    6132:	83 45 ec 01          	addl   $0x1,-0x14(%rbp)
    6136:	8b 05 00 00 00 00    	mov    0x0(%rip),%eax        # 613c <alloc_and_load_placement_structs+0x2d3>
    613c:	39 45 ec             	cmp    %eax,-0x14(%rbp)
    613f:	0f 8c 59 fe ff ff    	jl     5f9e <alloc_and_load_placement_structs+0x135>
    6145:	c7 45 ec 00 00 00 00 	movl   $0x0,-0x14(%rbp)
    614c:	e9 93 00 00 00       	jmpq   61e4 <alloc_and_load_placement_structs+0x37b>
    6151:	c7 45 e8 01 00 00 00 	movl   $0x1,-0x18(%rbp)
    6158:	eb 5c                	jmp    61b6 <alloc_and_load_placement_structs+0x34d>
    615a:	48 8b 05 00 00 00 00 	mov    0x0(%rip),%rax        # 6161 <alloc_and_load_placement_structs+0x2f8>
    6161:	8b 55 ec             	mov    -0x14(%rbp),%edx
    6164:	48 63 d2             	movslq %edx,%rdx
    6167:	48 c1 e2 03          	shl    $0x3,%rdx
    616b:	48 01 d0             	add    %rdx,%rax
    616e:	48 8b 00             	mov    (%rax),%rax
    6171:	8b 55 e8             	mov    -0x18(%rbp),%edx
    6174:	48 63 d2             	movslq %edx,%rdx
    6177:	48 c1 e2 02          	shl    $0x2,%rdx
    617b:	48 01 d0             	add    %rdx,%rax
    617e:	66 0f ef c0          	pxor   %xmm0,%xmm0
    6182:	f3 0f 11 00          	movss  %xmm0,(%rax)
    6186:	48 8b 05 00 00 00 00 	mov    0x0(%rip),%rax        # 618d <alloc_and_load_placement_structs+0x324>
    618d:	8b 55 ec             	mov    -0x14(%rbp),%edx
    6190:	48 63 d2             	movslq %edx,%rdx
    6193:	48 c1 e2 03          	shl    $0x3,%rdx
    6197:	48 01 d0             	add    %rdx,%rax
    619a:	48 8b 00             	mov    (%rax),%rax
    619d:	8b 55 e8             	mov    -0x18(%rbp),%edx
    61a0:	48 63 d2             	movslq %edx,%rdx
    61a3:	48 c1 e2 02          	shl    $0x2,%rdx
    61a7:	48 01 d0             	add    %rdx,%rax
    61aa:	66 0f ef c0          	pxor   %xmm0,%xmm0
    61ae:	f3 0f 11 00          	movss  %xmm0,(%rax)
    61b2:	83 45 e8 01          	addl   $0x1,-0x18(%rbp)
    61b6:	48 8b 0d 00 00 00 00 	mov    0x0(%rip),%rcx        # 61bd <alloc_and_load_placement_structs+0x354>
    61bd:	8b 45 ec             	mov    -0x14(%rbp),%eax
    61c0:	48 63 d0             	movslq %eax,%rdx
    61c3:	48 89 d0             	mov    %rdx,%rax
    61c6:	48 c1 e0 02          	shl    $0x2,%rax
    61ca:	48 01 d0             	add    %rdx,%rax
    61cd:	48 c1 e0 03          	shl    $0x3,%rax
    61d1:	48 01 c8             	add    %rcx,%rax
    61d4:	8b 40 08             	mov    0x8(%rax),%eax
    61d7:	3b 45 e8             	cmp    -0x18(%rbp),%eax
    61da:	0f 8d 7a ff ff ff    	jge    615a <alloc_and_load_placement_structs+0x2f1>
    61e0:	83 45 ec 01          	addl   $0x1,-0x14(%rbp)
    61e4:	8b 05 00 00 00 00    	mov    0x0(%rip),%eax        # 61ea <alloc_and_load_placement_structs+0x381>
    61ea:	39 45 ec             	cmp    %eax,-0x14(%rbp)
    61ed:	0f 8c 5e ff ff ff    	jl     6151 <alloc_and_load_placement_structs+0x2e8>
    61f3:	8b 05 00 00 00 00    	mov    0x0(%rip),%eax        # 61f9 <alloc_and_load_placement_structs+0x390>
    61f9:	48 98                	cltq   
    61fb:	48 c1 e0 02          	shl    $0x2,%rax
    61ff:	48 89 c7             	mov    %rax,%rdi
    6202:	e8 00 00 00 00       	callq  6207 <alloc_and_load_placement_structs+0x39e>
    6207:	48 89 05 00 00 00 00 	mov    %rax,0x0(%rip)        # 620e <alloc_and_load_placement_structs+0x3a5>
    620e:	8b 05 00 00 00 00    	mov    0x0(%rip),%eax        # 6214 <alloc_and_load_placement_structs+0x3ab>
    6214:	48 98                	cltq   
    6216:	48 c1 e0 02          	shl    $0x2,%rax
    621a:	48 89 c7             	mov    %rax,%rdi
    621d:	e8 00 00 00 00       	callq  6222 <alloc_and_load_placement_structs+0x3b9>
    6222:	48 89 05 00 00 00 00 	mov    %rax,0x0(%rip)        # 6229 <alloc_and_load_placement_structs+0x3c0>
    6229:	c7 45 ec 00 00 00 00 	movl   $0x0,-0x14(%rbp)
    6230:	eb 24                	jmp    6256 <alloc_and_load_placement_structs+0x3ed>
    6232:	48 8b 05 00 00 00 00 	mov    0x0(%rip),%rax        # 6239 <alloc_and_load_placement_structs+0x3d0>
    6239:	8b 55 ec             	mov    -0x14(%rbp),%edx
    623c:	48 63 d2             	movslq %edx,%rdx
    623f:	48 c1 e2 02          	shl    $0x2,%rdx
    6243:	48 01 d0             	add    %rdx,%rax
    6246:	f3 0f 10 05 00 00 00 	movss  0x0(%rip),%xmm0        # 624e <alloc_and_load_placement_structs+0x3e5>
    624d:	00 
    624e:	f3 0f 11 00          	movss  %xmm0,(%rax)
    6252:	83 45 ec 01          	addl   $0x1,-0x14(%rbp)
    6256:	8b 05 00 00 00 00    	mov    0x0(%rip),%eax        # 625c <alloc_and_load_placement_structs+0x3f3>
    625c:	39 45 ec             	cmp    %eax,-0x14(%rbp)
    625f:	7c d1                	jl     6232 <alloc_and_load_placement_structs+0x3c9>
    6261:	8b 05 00 00 00 00    	mov    0x0(%rip),%eax        # 6267 <alloc_and_load_placement_structs+0x3fe>
    6267:	48 98                	cltq   
    6269:	48 c1 e0 04          	shl    $0x4,%rax
    626d:	48 89 c7             	mov    %rax,%rdi
    6270:	e8 00 00 00 00       	callq  6275 <alloc_and_load_placement_structs+0x40c>
    6275:	48 89 05 00 00 00 00 	mov    %rax,0x0(%rip)        # 627c <alloc_and_load_placement_structs+0x413>
    627c:	8b 05 00 00 00 00    	mov    0x0(%rip),%eax        # 6282 <alloc_and_load_placement_structs+0x419>
    6282:	48 98                	cltq   
    6284:	48 c1 e0 04          	shl    $0x4,%rax
    6288:	48 89 c7             	mov    %rax,%rdi
    628b:	e8 00 00 00 00       	callq  6290 <alloc_and_load_placement_structs+0x427>
    6290:	48 89 05 00 00 00 00 	mov    %rax,0x0(%rip)        # 6297 <alloc_and_load_placement_structs+0x42e>
    6297:	e8 61 0a 00 00       	callq  6cfd <alloc_and_load_unique_pin_list>
    629c:	83 7d dc 01          	cmpl   $0x1,-0x24(%rbp)
    62a0:	75 74                	jne    6316 <alloc_and_load_placement_structs+0x4ad>
    62a2:	8b 45 d8             	mov    -0x28(%rbp),%eax
    62a5:	89 c7                	mov    %eax,%edi
    62a7:	e8 9e 00 00 00       	callq  634a <alloc_place_regions>
    62ac:	8b 45 d8             	mov    -0x28(%rbp),%eax
    62af:	89 c7                	mov    %eax,%edi
    62b1:	e8 36 01 00 00       	callq  63ec <load_place_regions>
    62b6:	8b 45 d8             	mov    -0x28(%rbp),%eax
    62b9:	8d 50 ff             	lea    -0x1(%rax),%edx
    62bc:	8b 45 d8             	mov    -0x28(%rbp),%eax
    62bf:	83 e8 01             	sub    $0x1,%eax
    62c2:	41 b8 04 00 00 00    	mov    $0x4,%r8d
    62c8:	89 d1                	mov    %edx,%ecx
    62ca:	ba 00 00 00 00       	mov    $0x0,%edx
    62cf:	89 c6                	mov    %eax,%esi
    62d1:	bf 00 00 00 00       	mov    $0x0,%edi
    62d6:	e8 00 00 00 00       	callq  62db <alloc_and_load_placement_structs+0x472>
    62db:	48 89 c2             	mov    %rax,%rdx
    62de:	48 8b 45 c8          	mov    -0x38(%rbp),%rax
    62e2:	48 89 10             	mov    %rdx,(%rax)
    62e5:	8b 45 d8             	mov    -0x28(%rbp),%eax
    62e8:	8d 50 ff             	lea    -0x1(%rax),%edx
    62eb:	8b 45 d8             	mov    -0x28(%rbp),%eax
    62ee:	83 e8 01             	sub    $0x1,%eax
    62f1:	41 b8 04 00 00 00    	mov    $0x4,%r8d
    62f7:	89 d1                	mov    %edx,%ecx
    62f9:	ba 00 00 00 00       	mov    $0x0,%edx
    62fe:	89 c6                	mov    %eax,%esi
    6300:	bf 00 00 00 00       	mov    $0x0,%edi
    6305:	e8 00 00 00 00       	callq  630a <alloc_and_load_placement_structs+0x4a1>
    630a:	48 89 c2             	mov    %rax,%rdx
    630d:	48 8b 45 c0          	mov    -0x40(%rbp),%rax
    6311:	48 89 10             	mov    %rdx,(%rax)
    6314:	eb 16                	jmp    632c <alloc_and_load_placement_structs+0x4c3>
    6316:	48 8b 45 c8          	mov    -0x38(%rbp),%rax
    631a:	48 c7 00 00 00 00 00 	movq   $0x0,(%rax)
    6321:	48 8b 45 c0          	mov    -0x40(%rbp),%rax
    6325:	48 c7 00 00 00 00 00 	movq   $0x0,(%rax)
    632c:	83 7d dc 00          	cmpl   $0x0,-0x24(%rbp)
    6330:	75 10                	jne    6342 <alloc_and_load_placement_structs+0x4d9>
    6332:	8b 45 d4             	mov    -0x2c(%rbp),%eax
    6335:	89 45 d0             	mov    %eax,-0x30(%rbp)
    6338:	f3 0f 10 45 d0       	movss  -0x30(%rbp),%xmm0
    633d:	e8 57 27 00 00       	callq  8a99 <alloc_and_load_for_fast_cost_update>
    6342:	90                   	nop
    6343:	48 83 c4 38          	add    $0x38,%rsp
    6347:	5b                   	pop    %rbx
    6348:	5d                   	pop    %rbp
    6349:	c3                   	retq   

000000000000634a <alloc_place_regions>:
    634a:	55                   	push   %rbp
    634b:	48 89 e5             	mov    %rsp,%rbp
    634e:	48 83 ec 10          	sub    $0x10,%rsp
    6352:	ff 15 00 00 00 00    	callq  *0x0(%rip)        # 6358 <alloc_place_regions+0xe>
    6358:	89 7d fc             	mov    %edi,-0x4(%rbp)
    635b:	8b 45 fc             	mov    -0x4(%rbp),%eax
    635e:	8d 50 ff             	lea    -0x1(%rax),%edx
    6361:	8b 45 fc             	mov    -0x4(%rbp),%eax
    6364:	83 e8 01             	sub    $0x1,%eax
    6367:	41 b8 10 00 00 00    	mov    $0x10,%r8d
    636d:	89 d1                	mov    %edx,%ecx
    636f:	ba 00 00 00 00       	mov    $0x0,%edx
    6374:	89 c6                	mov    %eax,%esi
    6376:	bf 00 00 00 00       	mov    $0x0,%edi
    637b:	e8 00 00 00 00       	callq  6380 <alloc_place_regions+0x36>
    6380:	48 89 05 00 00 00 00 	mov    %rax,0x0(%rip)        # 6387 <alloc_place_regions+0x3d>
    6387:	8b 45 fc             	mov    -0x4(%rbp),%eax
    638a:	8d 50 ff             	lea    -0x1(%rax),%edx
    638d:	8b 45 fc             	mov    -0x4(%rbp),%eax
    6390:	83 e8 01             	sub    $0x1,%eax
    6393:	41 b8 10 00 00 00    	mov    $0x10,%r8d
    6399:	89 d1                	mov    %edx,%ecx
    639b:	ba 00 00 00 00       	mov    $0x0,%edx
    63a0:	89 c6                	mov    %eax,%esi
    63a2:	bf 00 00 00 00       	mov    $0x0,%edi
    63a7:	e8 00 00 00 00       	callq  63ac <alloc_place_regions+0x62>
    63ac:	48 89 05 00 00 00 00 	mov    %rax,0x0(%rip)        # 63b3 <alloc_place_regions+0x69>
    63b3:	8b 45 fc             	mov    -0x4(%rbp),%eax
    63b6:	83 c0 01             	add    $0x1,%eax
    63b9:	48 98                	cltq   
    63bb:	48 c1 e0 02          	shl    $0x2,%rax
    63bf:	48 89 c7             	mov    %rax,%rdi
    63c2:	e8 00 00 00 00       	callq  63c7 <alloc_place_regions+0x7d>
    63c7:	48 89 05 00 00 00 00 	mov    %rax,0x0(%rip)        # 63ce <alloc_place_regions+0x84>
    63ce:	8b 45 fc             	mov    -0x4(%rbp),%eax
    63d1:	83 c0 01             	add    $0x1,%eax
    63d4:	48 98                	cltq   
    63d6:	48 c1 e0 02          	shl    $0x2,%rax
    63da:	48 89 c7             	mov    %rax,%rdi
    63dd:	e8 00 00 00 00       	callq  63e2 <alloc_place_regions+0x98>
    63e2:	48 89 05 00 00 00 00 	mov    %rax,0x0(%rip)        # 63e9 <alloc_place_regions+0x9f>
    63e9:	90                   	nop
    63ea:	c9                   	leaveq 
    63eb:	c3                   	retq   

00000000000063ec <load_place_regions>:
    63ec:	55                   	push   %rbp
    63ed:	48 89 e5             	mov    %rsp,%rbp
    63f0:	48 83 ec 40          	sub    $0x40,%rsp
    63f4:	ff 15 00 00 00 00    	callq  *0x0(%rip)        # 63fa <load_place_regions+0xe>
    63fa:	89 7d cc             	mov    %edi,-0x34(%rbp)
    63fd:	c7 45 f8 00 00 00 00 	movl   $0x0,-0x8(%rbp)
    6404:	e9 a6 03 00 00       	jmpq   67af <load_place_regions+0x3c3>
    6409:	66 0f ef c0          	pxor   %xmm0,%xmm0
    640d:	f3 0f 11 45 f0       	movss  %xmm0,-0x10(%rbp)
    6412:	66 0f ef c0          	pxor   %xmm0,%xmm0
    6416:	f3 0f 2a 45 f8       	cvtsi2ssl -0x8(%rbp),%xmm0
    641b:	66 0f ef c9          	pxor   %xmm1,%xmm1
    641f:	f3 0f 2a 4d cc       	cvtsi2ssl -0x34(%rbp),%xmm1
    6424:	f3 0f 5e c1          	divss  %xmm1,%xmm0
    6428:	0f 28 c8             	movaps %xmm0,%xmm1
    642b:	8b 05 00 00 00 00    	mov    0x0(%rip),%eax        # 6431 <load_place_regions+0x45>
    6431:	66 0f ef c0          	pxor   %xmm0,%xmm0
    6435:	f3 0f 2a c0          	cvtsi2ss %eax,%xmm0
    6439:	f3 0f 59 c1          	mulss  %xmm1,%xmm0
    643d:	f3 0f 10 0d 00 00 00 	movss  0x0(%rip),%xmm1        # 6445 <load_place_regions+0x59>
    6444:	00 
    6445:	f3 0f 58 c1          	addss  %xmm1,%xmm0
    6449:	f3 0f 11 45 e8       	movss  %xmm0,-0x18(%rbp)
    644e:	8b 45 f8             	mov    -0x8(%rbp),%eax
    6451:	83 c0 01             	add    $0x1,%eax
    6454:	66 0f ef c0          	pxor   %xmm0,%xmm0
    6458:	f3 0f 2a c0          	cvtsi2ss %eax,%xmm0
    645c:	66 0f ef c9          	pxor   %xmm1,%xmm1
    6460:	f3 0f 2a 4d cc       	cvtsi2ssl -0x34(%rbp),%xmm1
    6465:	f3 0f 5e c1          	divss  %xmm1,%xmm0
    6469:	0f 28 c8             	movaps %xmm0,%xmm1
    646c:	8b 05 00 00 00 00    	mov    0x0(%rip),%eax        # 6472 <load_place_regions+0x86>
    6472:	66 0f ef c0          	pxor   %xmm0,%xmm0
    6476:	f3 0f 2a c0          	cvtsi2ss %eax,%xmm0
    647a:	f3 0f 59 c1          	mulss  %xmm1,%xmm0
    647e:	f3 0f 11 45 e4       	movss  %xmm0,-0x1c(%rbp)
    6483:	f3 0f 5a 45 e8       	cvtss2sd -0x18(%rbp),%xmm0
    6488:	e8 00 00 00 00       	callq  648d <load_place_regions+0xa1>
    648d:	f2 0f 2c c0          	cvttsd2si %xmm0,%eax
    6491:	89 45 e0             	mov    %eax,-0x20(%rbp)
    6494:	b8 01 00 00 00       	mov    $0x1,%eax
    6499:	83 7d e0 00          	cmpl   $0x0,-0x20(%rbp)
    649d:	0f 4f 45 e0          	cmovg  -0x20(%rbp),%eax
    64a1:	89 45 e0             	mov    %eax,-0x20(%rbp)
    64a4:	f3 0f 5a 45 e4       	cvtss2sd -0x1c(%rbp),%xmm0
    64a9:	e8 00 00 00 00       	callq  64ae <load_place_regions+0xc2>
    64ae:	f2 0f 2c c0          	cvttsd2si %xmm0,%eax
    64b2:	89 45 dc             	mov    %eax,-0x24(%rbp)
    64b5:	8b 05 00 00 00 00    	mov    0x0(%rip),%eax        # 64bb <load_place_regions+0xcf>
    64bb:	39 45 dc             	cmp    %eax,-0x24(%rbp)
    64be:	0f 4e 45 dc          	cmovle -0x24(%rbp),%eax
    64c2:	89 45 dc             	mov    %eax,-0x24(%rbp)
    64c5:	48 8b 05 00 00 00 00 	mov    0x0(%rip),%rax        # 64cc <load_place_regions+0xe0>
    64cc:	8b 55 e0             	mov    -0x20(%rbp),%edx
    64cf:	48 63 d2             	movslq %edx,%rdx
    64d2:	48 c1 e2 02          	shl    $0x2,%rdx
    64d6:	48 83 ea 04          	sub    $0x4,%rdx
    64da:	48 01 d0             	add    %rdx,%rax
    64dd:	8b 10                	mov    (%rax),%edx
    64df:	48 8b 05 00 00 00 00 	mov    0x0(%rip),%rax        # 64e6 <load_place_regions+0xfa>
    64e6:	8b 4d e0             	mov    -0x20(%rbp),%ecx
    64e9:	48 63 c9             	movslq %ecx,%rcx
    64ec:	48 c1 e1 02          	shl    $0x2,%rcx
    64f0:	48 01 c8             	add    %rcx,%rax
    64f3:	8b 00                	mov    (%rax),%eax
    64f5:	01 d0                	add    %edx,%eax
    64f7:	66 0f ef c0          	pxor   %xmm0,%xmm0
    64fb:	f2 0f 2a c0          	cvtsi2sd %eax,%xmm0
    64ff:	f2 0f 10 0d 00 00 00 	movsd  0x0(%rip),%xmm1        # 6507 <load_place_regions+0x11b>
    6506:	00 
    6507:	f2 0f 5e c1          	divsd  %xmm1,%xmm0
    650b:	f2 0f 5a d8          	cvtsd2ss %xmm0,%xmm3
    650f:	f3 0f 11 5d ec       	movss  %xmm3,-0x14(%rbp)
    6514:	83 7d e0 01          	cmpl   $0x1,-0x20(%rbp)
    6518:	75 2f                	jne    6549 <load_place_regions+0x15d>
    651a:	f3 0f 5a 4d ec       	cvtss2sd -0x14(%rbp),%xmm1
    651f:	48 8b 05 00 00 00 00 	mov    0x0(%rip),%rax        # 6526 <load_place_regions+0x13a>
    6526:	8b 00                	mov    (%rax),%eax
    6528:	66 0f ef c0          	pxor   %xmm0,%xmm0
    652c:	f2 0f 2a c0          	cvtsi2sd %eax,%xmm0
    6530:	f2 0f 10 15 00 00 00 	movsd  0x0(%rip),%xmm2        # 6538 <load_place_regions+0x14c>
    6537:	00 
    6538:	f2 0f 5e c2          	divsd  %xmm2,%xmm0
    653c:	f2 0f 58 c1          	addsd  %xmm1,%xmm0
    6540:	f2 0f 5a e0          	cvtsd2ss %xmm0,%xmm4
    6544:	f3 0f 11 65 ec       	movss  %xmm4,-0x14(%rbp)
    6549:	66 0f ef c0          	pxor   %xmm0,%xmm0
    654d:	f3 0f 2a 45 e0       	cvtsi2ssl -0x20(%rbp),%xmm0
    6552:	f3 0f 10 4d e8       	movss  -0x18(%rbp),%xmm1
    6557:	f3 0f 5c c8          	subss  %xmm0,%xmm1
    655b:	0f 28 c1             	movaps %xmm1,%xmm0
    655e:	f3 0f 10 0d 00 00 00 	movss  0x0(%rip),%xmm1        # 6566 <load_place_regions+0x17a>
    6565:	00 
    6566:	f3 0f 5c c8          	subss  %xmm0,%xmm1
    656a:	0f 28 c1             	movaps %xmm1,%xmm0
    656d:	f3 0f 11 45 d8       	movss  %xmm0,-0x28(%rbp)
    6572:	f3 0f 10 45 d8       	movss  -0x28(%rbp),%xmm0
    6577:	f3 0f 59 45 ec       	mulss  -0x14(%rbp),%xmm0
    657c:	f3 0f 10 4d f0       	movss  -0x10(%rbp),%xmm1
    6581:	f3 0f 58 c1          	addss  %xmm1,%xmm0
    6585:	f3 0f 11 45 f0       	movss  %xmm0,-0x10(%rbp)
    658a:	8b 45 e0             	mov    -0x20(%rbp),%eax
    658d:	83 c0 01             	add    $0x1,%eax
    6590:	89 45 f4             	mov    %eax,-0xc(%rbp)
    6593:	eb 62                	jmp    65f7 <load_place_regions+0x20b>
    6595:	48 8b 05 00 00 00 00 	mov    0x0(%rip),%rax        # 659c <load_place_regions+0x1b0>
    659c:	8b 55 f4             	mov    -0xc(%rbp),%edx
    659f:	48 63 d2             	movslq %edx,%rdx
    65a2:	48 c1 e2 02          	shl    $0x2,%rdx
    65a6:	48 83 ea 04          	sub    $0x4,%rdx
    65aa:	48 01 d0             	add    %rdx,%rax
    65ad:	8b 10                	mov    (%rax),%edx
    65af:	48 8b 05 00 00 00 00 	mov    0x0(%rip),%rax        # 65b6 <load_place_regions+0x1ca>
    65b6:	8b 4d f4             	mov    -0xc(%rbp),%ecx
    65b9:	48 63 c9             	movslq %ecx,%rcx
    65bc:	48 c1 e1 02          	shl    $0x2,%rcx
    65c0:	48 01 c8             	add    %rcx,%rax
    65c3:	8b 00                	mov    (%rax),%eax
    65c5:	01 d0                	add    %edx,%eax
    65c7:	66 0f ef c0          	pxor   %xmm0,%xmm0
    65cb:	f2 0f 2a c0          	cvtsi2sd %eax,%xmm0
    65cf:	f2 0f 10 0d 00 00 00 	movsd  0x0(%rip),%xmm1        # 65d7 <load_place_regions+0x1eb>
    65d6:	00 
    65d7:	f2 0f 5e c1          	divsd  %xmm1,%xmm0
    65db:	f2 0f 5a e8          	cvtsd2ss %xmm0,%xmm5
    65df:	f3 0f 11 6d ec       	movss  %xmm5,-0x14(%rbp)
    65e4:	f3 0f 10 45 f0       	movss  -0x10(%rbp),%xmm0
    65e9:	f3 0f 58 45 ec       	addss  -0x14(%rbp),%xmm0
    65ee:	f3 0f 11 45 f0       	movss  %xmm0,-0x10(%rbp)
    65f3:	83 45 f4 01          	addl   $0x1,-0xc(%rbp)
    65f7:	8b 45 f4             	mov    -0xc(%rbp),%eax
    65fa:	3b 45 dc             	cmp    -0x24(%rbp),%eax
    65fd:	7c 96                	jl     6595 <load_place_regions+0x1a9>
    65ff:	48 8b 05 00 00 00 00 	mov    0x0(%rip),%rax        # 6606 <load_place_regions+0x21a>
    6606:	8b 55 dc             	mov    -0x24(%rbp),%edx
    6609:	48 63 d2             	movslq %edx,%rdx
    660c:	48 c1 e2 02          	shl    $0x2,%rdx
    6610:	48 83 ea 04          	sub    $0x4,%rdx
    6614:	48 01 d0             	add    %rdx,%rax
    6617:	8b 10                	mov    (%rax),%edx
    6619:	48 8b 05 00 00 00 00 	mov    0x0(%rip),%rax        # 6620 <load_place_regions+0x234>
    6620:	8b 4d dc             	mov    -0x24(%rbp),%ecx
    6623:	48 63 c9             	movslq %ecx,%rcx
    6626:	48 c1 e1 02          	shl    $0x2,%rcx
    662a:	48 01 c8             	add    %rcx,%rax
    662d:	8b 00                	mov    (%rax),%eax
    662f:	01 d0                	add    %edx,%eax
    6631:	66 0f ef c0          	pxor   %xmm0,%xmm0
    6635:	f2 0f 2a c0          	cvtsi2sd %eax,%xmm0
    6639:	f2 0f 10 0d 00 00 00 	movsd  0x0(%rip),%xmm1        # 6641 <load_place_regions+0x255>
    6640:	00 
    6641:	f2 0f 5e c1          	divsd  %xmm1,%xmm0
    6645:	f2 0f 5a f0          	cvtsd2ss %xmm0,%xmm6
    6649:	f3 0f 11 75 ec       	movss  %xmm6,-0x14(%rbp)
    664e:	8b 05 00 00 00 00    	mov    0x0(%rip),%eax        # 6654 <load_place_regions+0x268>
    6654:	39 45 dc             	cmp    %eax,-0x24(%rbp)
    6657:	75 3f                	jne    6698 <load_place_regions+0x2ac>
    6659:	f3 0f 5a 4d ec       	cvtss2sd -0x14(%rbp),%xmm1
    665e:	48 8b 05 00 00 00 00 	mov    0x0(%rip),%rax        # 6665 <load_place_regions+0x279>
    6665:	8b 15 00 00 00 00    	mov    0x0(%rip),%edx        # 666b <load_place_regions+0x27f>
    666b:	48 63 d2             	movslq %edx,%rdx
    666e:	48 c1 e2 02          	shl    $0x2,%rdx
    6672:	48 01 d0             	add    %rdx,%rax
    6675:	8b 00                	mov    (%rax),%eax
    6677:	66 0f ef c0          	pxor   %xmm0,%xmm0
    667b:	f2 0f 2a c0          	cvtsi2sd %eax,%xmm0
    667f:	f2 0f 10 15 00 00 00 	movsd  0x0(%rip),%xmm2        # 6687 <load_place_regions+0x29b>
    6686:	00 
    6687:	f2 0f 5e c2          	divsd  %xmm2,%xmm0
    668b:	f2 0f 58 c1          	addsd  %xmm1,%xmm0
    668f:	f2 0f 5a f8          	cvtsd2ss %xmm0,%xmm7
    6693:	f3 0f 11 7d ec       	movss  %xmm7,-0x14(%rbp)
    6698:	66 0f ef c0          	pxor   %xmm0,%xmm0
    669c:	f3 0f 2a 45 dc       	cvtsi2ssl -0x24(%rbp),%xmm0
    66a1:	f3 0f 5c 45 e4       	subss  -0x1c(%rbp),%xmm0
    66a6:	f3 0f 10 0d 00 00 00 	movss  0x0(%rip),%xmm1        # 66ae <load_place_regions+0x2c2>
    66ad:	00 
    66ae:	f3 0f 5c c8          	subss  %xmm0,%xmm1
    66b2:	0f 28 c1             	movaps %xmm1,%xmm0
    66b5:	f3 0f 11 45 d8       	movss  %xmm0,-0x28(%rbp)
    66ba:	f3 0f 10 45 d8       	movss  -0x28(%rbp),%xmm0
    66bf:	f3 0f 59 45 ec       	mulss  -0x14(%rbp),%xmm0
    66c4:	f3 0f 10 4d f0       	movss  -0x10(%rbp),%xmm1
    66c9:	f3 0f 58 c1          	addss  %xmm1,%xmm0
    66cd:	f3 0f 11 45 f0       	movss  %xmm0,-0x10(%rbp)
    66d2:	c7 45 fc 00 00 00 00 	movl   $0x0,-0x4(%rbp)
    66d9:	e9 c1 00 00 00       	jmpq   679f <load_place_regions+0x3b3>
    66de:	48 8b 05 00 00 00 00 	mov    0x0(%rip),%rax        # 66e5 <load_place_regions+0x2f9>
    66e5:	8b 55 fc             	mov    -0x4(%rbp),%edx
    66e8:	48 63 d2             	movslq %edx,%rdx
    66eb:	48 c1 e2 03          	shl    $0x3,%rdx
    66ef:	48 01 d0             	add    %rdx,%rax
    66f2:	48 8b 00             	mov    (%rax),%rax
    66f5:	8b 55 f8             	mov    -0x8(%rbp),%edx
    66f8:	48 63 d2             	movslq %edx,%rdx
    66fb:	48 c1 e2 04          	shl    $0x4,%rdx
    66ff:	48 01 d0             	add    %rdx,%rax
    6702:	f3 0f 10 45 f0       	movss  -0x10(%rbp),%xmm0
    6707:	f3 0f 11 00          	movss  %xmm0,(%rax)
    670b:	48 8b 05 00 00 00 00 	mov    0x0(%rip),%rax        # 6712 <load_place_regions+0x326>
    6712:	8b 55 fc             	mov    -0x4(%rbp),%edx
    6715:	48 63 d2             	movslq %edx,%rdx
    6718:	48 c1 e2 03          	shl    $0x3,%rdx
    671c:	48 01 d0             	add    %rdx,%rax
    671f:	48 8b 00             	mov    (%rax),%rax
    6722:	8b 55 f8             	mov    -0x8(%rbp),%edx
    6725:	48 63 d2             	movslq %edx,%rdx
    6728:	48 c1 e2 04          	shl    $0x4,%rdx
    672c:	48 01 d0             	add    %rdx,%rax
    672f:	f3 0f 10 05 00 00 00 	movss  0x0(%rip),%xmm0        # 6737 <load_place_regions+0x34b>
    6736:	00 
    6737:	f3 0f 5e 45 f0       	divss  -0x10(%rbp),%xmm0
    673c:	f3 0f 11 40 04       	movss  %xmm0,0x4(%rax)
    6741:	48 8b 05 00 00 00 00 	mov    0x0(%rip),%rax        # 6748 <load_place_regions+0x35c>
    6748:	8b 55 fc             	mov    -0x4(%rbp),%edx
    674b:	48 63 d2             	movslq %edx,%rdx
    674e:	48 c1 e2 03          	shl    $0x3,%rdx
    6752:	48 01 d0             	add    %rdx,%rax
    6755:	48 8b 00             	mov    (%rax),%rax
    6758:	8b 55 f8             	mov    -0x8(%rbp),%edx
    675b:	48 63 d2             	movslq %edx,%rdx
    675e:	48 c1 e2 04          	shl    $0x4,%rdx
    6762:	48 01 d0             	add    %rdx,%rax
    6765:	66 0f ef c0          	pxor   %xmm0,%xmm0
    6769:	f3 0f 11 40 08       	movss  %xmm0,0x8(%rax)
    676e:	48 8b 05 00 00 00 00 	mov    0x0(%rip),%rax        # 6775 <load_place_regions+0x389>
    6775:	8b 55 fc             	mov    -0x4(%rbp),%edx
    6778:	48 63 d2             	movslq %edx,%rdx
    677b:	48 c1 e2 03          	shl    $0x3,%rdx
    677f:	48 01 d0             	add    %rdx,%rax
    6782:	48 8b 00             	mov    (%rax),%rax
    6785:	8b 55 f8             	mov    -0x8(%rbp),%edx
    6788:	48 63 d2             	movslq %edx,%rdx
    678b:	48 c1 e2 04          	shl    $0x4,%rdx
    678f:	48 01 d0             	add    %rdx,%rax
    6792:	66 0f ef c0          	pxor   %xmm0,%xmm0
    6796:	f3 0f 11 40 0c       	movss  %xmm0,0xc(%rax)
    679b:	83 45 fc 01          	addl   $0x1,-0x4(%rbp)
    679f:	8b 45 fc             	mov    -0x4(%rbp),%eax
    67a2:	3b 45 cc             	cmp    -0x34(%rbp),%eax
    67a5:	0f 8c 33 ff ff ff    	jl     66de <load_place_regions+0x2f2>
    67ab:	83 45 f8 01          	addl   $0x1,-0x8(%rbp)
    67af:	8b 45 f8             	mov    -0x8(%rbp),%eax
    67b2:	3b 45 cc             	cmp    -0x34(%rbp),%eax
    67b5:	0f 8c 4e fc ff ff    	jl     6409 <load_place_regions+0x1d>
    67bb:	c7 45 fc 00 00 00 00 	movl   $0x0,-0x4(%rbp)
    67c2:	e9 a6 03 00 00       	jmpq   6b6d <load_place_regions+0x781>
    67c7:	66 0f ef c0          	pxor   %xmm0,%xmm0
    67cb:	f3 0f 11 45 f0       	movss  %xmm0,-0x10(%rbp)
    67d0:	66 0f ef c0          	pxor   %xmm0,%xmm0
    67d4:	f3 0f 2a 45 fc       	cvtsi2ssl -0x4(%rbp),%xmm0
    67d9:	66 0f ef c9          	pxor   %xmm1,%xmm1
    67dd:	f3 0f 2a 4d cc       	cvtsi2ssl -0x34(%rbp),%xmm1
    67e2:	f3 0f 5e c1          	divss  %xmm1,%xmm0
    67e6:	0f 28 c8             	movaps %xmm0,%xmm1
    67e9:	8b 05 00 00 00 00    	mov    0x0(%rip),%eax        # 67ef <load_place_regions+0x403>
    67ef:	66 0f ef c0          	pxor   %xmm0,%xmm0
    67f3:	f3 0f 2a c0          	cvtsi2ss %eax,%xmm0
    67f7:	f3 0f 59 c1          	mulss  %xmm1,%xmm0
    67fb:	f3 0f 10 0d 00 00 00 	movss  0x0(%rip),%xmm1        # 6803 <load_place_regions+0x417>
    6802:	00 
    6803:	f3 0f 58 c1          	addss  %xmm1,%xmm0
    6807:	f3 0f 11 45 e8       	movss  %xmm0,-0x18(%rbp)
    680c:	8b 45 fc             	mov    -0x4(%rbp),%eax
    680f:	83 c0 01             	add    $0x1,%eax
    6812:	66 0f ef c0          	pxor   %xmm0,%xmm0
    6816:	f3 0f 2a c0          	cvtsi2ss %eax,%xmm0
    681a:	66 0f ef c9          	pxor   %xmm1,%xmm1
    681e:	f3 0f 2a 4d cc       	cvtsi2ssl -0x34(%rbp),%xmm1
    6823:	f3 0f 5e c1          	divss  %xmm1,%xmm0
    6827:	0f 28 c8             	movaps %xmm0,%xmm1
    682a:	8b 05 00 00 00 00    	mov    0x0(%rip),%eax        # 6830 <load_place_regions+0x444>
    6830:	66 0f ef c0          	pxor   %xmm0,%xmm0
    6834:	f3 0f 2a c0          	cvtsi2ss %eax,%xmm0
    6838:	f3 0f 59 c1          	mulss  %xmm1,%xmm0
    683c:	f3 0f 11 45 e4       	movss  %xmm0,-0x1c(%rbp)
    6841:	f3 0f 5a 45 e8       	cvtss2sd -0x18(%rbp),%xmm0
    6846:	e8 00 00 00 00       	callq  684b <load_place_regions+0x45f>
    684b:	f2 0f 2c c0          	cvttsd2si %xmm0,%eax
    684f:	89 45 e0             	mov    %eax,-0x20(%rbp)
    6852:	b8 01 00 00 00       	mov    $0x1,%eax
    6857:	83 7d e0 00          	cmpl   $0x0,-0x20(%rbp)
    685b:	0f 4f 45 e0          	cmovg  -0x20(%rbp),%eax
    685f:	89 45 e0             	mov    %eax,-0x20(%rbp)
    6862:	f3 0f 5a 45 e4       	cvtss2sd -0x1c(%rbp),%xmm0
    6867:	e8 00 00 00 00       	callq  686c <load_place_regions+0x480>
    686c:	f2 0f 2c c0          	cvttsd2si %xmm0,%eax
    6870:	89 45 dc             	mov    %eax,-0x24(%rbp)
    6873:	8b 05 00 00 00 00    	mov    0x0(%rip),%eax        # 6879 <load_place_regions+0x48d>
    6879:	39 45 dc             	cmp    %eax,-0x24(%rbp)
    687c:	0f 4e 45 dc          	cmovle -0x24(%rbp),%eax
    6880:	89 45 dc             	mov    %eax,-0x24(%rbp)
    6883:	48 8b 05 00 00 00 00 	mov    0x0(%rip),%rax        # 688a <load_place_regions+0x49e>
    688a:	8b 55 e0             	mov    -0x20(%rbp),%edx
    688d:	48 63 d2             	movslq %edx,%rdx
    6890:	48 c1 e2 02          	shl    $0x2,%rdx
    6894:	48 83 ea 04          	sub    $0x4,%rdx
    6898:	48 01 d0             	add    %rdx,%rax
    689b:	8b 10                	mov    (%rax),%edx
    689d:	48 8b 05 00 00 00 00 	mov    0x0(%rip),%rax        # 68a4 <load_place_regions+0x4b8>
    68a4:	8b 4d e0             	mov    -0x20(%rbp),%ecx
    68a7:	48 63 c9             	movslq %ecx,%rcx
    68aa:	48 c1 e1 02          	shl    $0x2,%rcx
    68ae:	48 01 c8             	add    %rcx,%rax
    68b1:	8b 00                	mov    (%rax),%eax
    68b3:	01 d0                	add    %edx,%eax
    68b5:	66 0f ef c0          	pxor   %xmm0,%xmm0
    68b9:	f2 0f 2a c0          	cvtsi2sd %eax,%xmm0
    68bd:	f2 0f 10 0d 00 00 00 	movsd  0x0(%rip),%xmm1        # 68c5 <load_place_regions+0x4d9>
    68c4:	00 
    68c5:	f2 0f 5e c1          	divsd  %xmm1,%xmm0
    68c9:	f2 0f 5a d8          	cvtsd2ss %xmm0,%xmm3
    68cd:	f3 0f 11 5d ec       	movss  %xmm3,-0x14(%rbp)
    68d2:	83 7d e0 01          	cmpl   $0x1,-0x20(%rbp)
    68d6:	75 2f                	jne    6907 <load_place_regions+0x51b>
    68d8:	f3 0f 5a 4d ec       	cvtss2sd -0x14(%rbp),%xmm1
    68dd:	48 8b 05 00 00 00 00 	mov    0x0(%rip),%rax        # 68e4 <load_place_regions+0x4f8>
    68e4:	8b 00                	mov    (%rax),%eax
    68e6:	66 0f ef c0          	pxor   %xmm0,%xmm0
    68ea:	f2 0f 2a c0          	cvtsi2sd %eax,%xmm0
    68ee:	f2 0f 10 15 00 00 00 	movsd  0x0(%rip),%xmm2        # 68f6 <load_place_regions+0x50a>
    68f5:	00 
    68f6:	f2 0f 5e c2          	divsd  %xmm2,%xmm0
    68fa:	f2 0f 58 c1          	addsd  %xmm1,%xmm0
    68fe:	f2 0f 5a e0          	cvtsd2ss %xmm0,%xmm4
    6902:	f3 0f 11 65 ec       	movss  %xmm4,-0x14(%rbp)
    6907:	66 0f ef c0          	pxor   %xmm0,%xmm0
    690b:	f3 0f 2a 45 e0       	cvtsi2ssl -0x20(%rbp),%xmm0
    6910:	f3 0f 10 4d e8       	movss  -0x18(%rbp),%xmm1
    6915:	f3 0f 5c c8          	subss  %xmm0,%xmm1
    6919:	0f 28 c1             	movaps %xmm1,%xmm0
    691c:	f3 0f 10 0d 00 00 00 	movss  0x0(%rip),%xmm1        # 6924 <load_place_regions+0x538>
    6923:	00 
    6924:	f3 0f 5c c8          	subss  %xmm0,%xmm1
    6928:	0f 28 c1             	movaps %xmm1,%xmm0
    692b:	f3 0f 11 45 d8       	movss  %xmm0,-0x28(%rbp)
    6930:	f3 0f 10 45 d8       	movss  -0x28(%rbp),%xmm0
    6935:	f3 0f 59 45 ec       	mulss  -0x14(%rbp),%xmm0
    693a:	f3 0f 10 4d f0       	movss  -0x10(%rbp),%xmm1
    693f:	f3 0f 58 c1          	addss  %xmm1,%xmm0
    6943:	f3 0f 11 45 f0       	movss  %xmm0,-0x10(%rbp)
    6948:	8b 45 e0             	mov    -0x20(%rbp),%eax
    694b:	83 c0 01             	add    $0x1,%eax
    694e:	89 45 f4             	mov    %eax,-0xc(%rbp)
    6951:	eb 62                	jmp    69b5 <load_place_regions+0x5c9>
    6953:	48 8b 05 00 00 00 00 	mov    0x0(%rip),%rax        # 695a <load_place_regions+0x56e>
    695a:	8b 55 f4             	mov    -0xc(%rbp),%edx
    695d:	48 63 d2             	movslq %edx,%rdx
    6960:	48 c1 e2 02          	shl    $0x2,%rdx
    6964:	48 83 ea 04          	sub    $0x4,%rdx
    6968:	48 01 d0             	add    %rdx,%rax
    696b:	8b 10                	mov    (%rax),%edx
    696d:	48 8b 05 00 00 00 00 	mov    0x0(%rip),%rax        # 6974 <load_place_regions+0x588>
    6974:	8b 4d f4             	mov    -0xc(%rbp),%ecx
    6977:	48 63 c9             	movslq %ecx,%rcx
    697a:	48 c1 e1 02          	shl    $0x2,%rcx
    697e:	48 01 c8             	add    %rcx,%rax
    6981:	8b 00                	mov    (%rax),%eax
    6983:	01 d0                	add    %edx,%eax
    6985:	66 0f ef c0          	pxor   %xmm0,%xmm0
    6989:	f2 0f 2a c0          	cvtsi2sd %eax,%xmm0
    698d:	f2 0f 10 0d 00 00 00 	movsd  0x0(%rip),%xmm1        # 6995 <load_place_regions+0x5a9>
    6994:	00 
    6995:	f2 0f 5e c1          	divsd  %xmm1,%xmm0
    6999:	f2 0f 5a e8          	cvtsd2ss %xmm0,%xmm5
    699d:	f3 0f 11 6d ec       	movss  %xmm5,-0x14(%rbp)
    69a2:	f3 0f 10 45 f0       	movss  -0x10(%rbp),%xmm0
    69a7:	f3 0f 58 45 ec       	addss  -0x14(%rbp),%xmm0
    69ac:	f3 0f 11 45 f0       	movss  %xmm0,-0x10(%rbp)
    69b1:	83 45 f4 01          	addl   $0x1,-0xc(%rbp)
    69b5:	8b 45 f4             	mov    -0xc(%rbp),%eax
    69b8:	3b 45 dc             	cmp    -0x24(%rbp),%eax
    69bb:	7c 96                	jl     6953 <load_place_regions+0x567>
    69bd:	48 8b 05 00 00 00 00 	mov    0x0(%rip),%rax        # 69c4 <load_place_regions+0x5d8>
    69c4:	8b 55 dc             	mov    -0x24(%rbp),%edx
    69c7:	48 63 d2             	movslq %edx,%rdx
    69ca:	48 c1 e2 02          	shl    $0x2,%rdx
    69ce:	48 83 ea 04          	sub    $0x4,%rdx
    69d2:	48 01 d0             	add    %rdx,%rax
    69d5:	8b 10                	mov    (%rax),%edx
    69d7:	48 8b 05 00 00 00 00 	mov    0x0(%rip),%rax        # 69de <load_place_regions+0x5f2>
    69de:	8b 4d dc             	mov    -0x24(%rbp),%ecx
    69e1:	48 63 c9             	movslq %ecx,%rcx
    69e4:	48 c1 e1 02          	shl    $0x2,%rcx
    69e8:	48 01 c8             	add    %rcx,%rax
    69eb:	8b 00                	mov    (%rax),%eax
    69ed:	01 d0                	add    %edx,%eax
    69ef:	66 0f ef c0          	pxor   %xmm0,%xmm0
    69f3:	f2 0f 2a c0          	cvtsi2sd %eax,%xmm0
    69f7:	f2 0f 10 0d 00 00 00 	movsd  0x0(%rip),%xmm1        # 69ff <load_place_regions+0x613>
    69fe:	00 
    69ff:	f2 0f 5e c1          	divsd  %xmm1,%xmm0
    6a03:	f2 0f 5a f0          	cvtsd2ss %xmm0,%xmm6
    6a07:	f3 0f 11 75 ec       	movss  %xmm6,-0x14(%rbp)
    6a0c:	8b 05 00 00 00 00    	mov    0x0(%rip),%eax        # 6a12 <load_place_regions+0x626>
    6a12:	39 45 dc             	cmp    %eax,-0x24(%rbp)
    6a15:	75 3f                	jne    6a56 <load_place_regions+0x66a>
    6a17:	f3 0f 5a 4d ec       	cvtss2sd -0x14(%rbp),%xmm1
    6a1c:	48 8b 05 00 00 00 00 	mov    0x0(%rip),%rax        # 6a23 <load_place_regions+0x637>
    6a23:	8b 15 00 00 00 00    	mov    0x0(%rip),%edx        # 6a29 <load_place_regions+0x63d>
    6a29:	48 63 d2             	movslq %edx,%rdx
    6a2c:	48 c1 e2 02          	shl    $0x2,%rdx
    6a30:	48 01 d0             	add    %rdx,%rax
    6a33:	8b 00                	mov    (%rax),%eax
    6a35:	66 0f ef c0          	pxor   %xmm0,%xmm0
    6a39:	f2 0f 2a c0          	cvtsi2sd %eax,%xmm0
    6a3d:	f2 0f 10 15 00 00 00 	movsd  0x0(%rip),%xmm2        # 6a45 <load_place_regions+0x659>
    6a44:	00 
    6a45:	f2 0f 5e c2          	divsd  %xmm2,%xmm0
    6a49:	f2 0f 58 c1          	addsd  %xmm1,%xmm0
    6a4d:	f2 0f 5a f8          	cvtsd2ss %xmm0,%xmm7
    6a51:	f3 0f 11 7d ec       	movss  %xmm7,-0x14(%rbp)
    6a56:	66 0f ef c0          	pxor   %xmm0,%xmm0
    6a5a:	f3 0f 2a 45 dc       	cvtsi2ssl -0x24(%rbp),%xmm0
    6a5f:	f3 0f 5c 45 e4       	subss  -0x1c(%rbp),%xmm0
    6a64:	f3 0f 10 0d 00 00 00 	movss  0x0(%rip),%xmm1        # 6a6c <load_place_regions+0x680>
    6a6b:	00 
    6a6c:	f3 0f 5c c8          	subss  %xmm0,%xmm1
    6a70:	0f 28 c1             	movaps %xmm1,%xmm0
    6a73:	f3 0f 11 45 d8       	movss  %xmm0,-0x28(%rbp)
    6a78:	f3 0f 10 45 d8       	movss  -0x28(%rbp),%xmm0
    6a7d:	f3 0f 59 45 ec       	mulss  -0x14(%rbp),%xmm0
    6a82:	f3 0f 10 4d f0       	movss  -0x10(%rbp),%xmm1
    6a87:	f3 0f 58 c1          	addss  %xmm1,%xmm0
    6a8b:	f3 0f 11 45 f0       	movss  %xmm0,-0x10(%rbp)
    6a90:	c7 45 f8 00 00 00 00 	movl   $0x0,-0x8(%rbp)
    6a97:	e9 c1 00 00 00       	jmpq   6b5d <load_place_regions+0x771>
    6a9c:	48 8b 05 00 00 00 00 	mov    0x0(%rip),%rax        # 6aa3 <load_place_regions+0x6b7>
    6aa3:	8b 55 fc             	mov    -0x4(%rbp),%edx
    6aa6:	48 63 d2             	movslq %edx,%rdx
    6aa9:	48 c1 e2 03          	shl    $0x3,%rdx
    6aad:	48 01 d0             	add    %rdx,%rax
    6ab0:	48 8b 00             	mov    (%rax),%rax
    6ab3:	8b 55 f8             	mov    -0x8(%rbp),%edx
    6ab6:	48 63 d2             	movslq %edx,%rdx
    6ab9:	48 c1 e2 04          	shl    $0x4,%rdx
    6abd:	48 01 d0             	add    %rdx,%rax
    6ac0:	f3 0f 10 45 f0       	movss  -0x10(%rbp),%xmm0
    6ac5:	f3 0f 11 00          	movss  %xmm0,(%rax)
    6ac9:	48 8b 05 00 00 00 00 	mov    0x0(%rip),%rax        # 6ad0 <load_place_regions+0x6e4>
    6ad0:	8b 55 fc             	mov    -0x4(%rbp),%edx
    6ad3:	48 63 d2             	movslq %edx,%rdx
    6ad6:	48 c1 e2 03          	shl    $0x3,%rdx
    6ada:	48 01 d0             	add    %rdx,%rax
    6add:	48 8b 00             	mov    (%rax),%rax
    6ae0:	8b 55 f8             	mov    -0x8(%rbp),%edx
    6ae3:	48 63 d2             	movslq %edx,%rdx
    6ae6:	48 c1 e2 04          	shl    $0x4,%rdx
    6aea:	48 01 d0             	add    %rdx,%rax
    6aed:	f3 0f 10 05 00 00 00 	movss  0x0(%rip),%xmm0        # 6af5 <load_place_regions+0x709>
    6af4:	00 
    6af5:	f3 0f 5e 45 f0       	divss  -0x10(%rbp),%xmm0
    6afa:	f3 0f 11 40 04       	movss  %xmm0,0x4(%rax)
    6aff:	48 8b 05 00 00 00 00 	mov    0x0(%rip),%rax        # 6b06 <load_place_regions+0x71a>
    6b06:	8b 55 fc             	mov    -0x4(%rbp),%edx
    6b09:	48 63 d2             	movslq %edx,%rdx
    6b0c:	48 c1 e2 03          	shl    $0x3,%rdx
    6b10:	48 01 d0             	add    %rdx,%rax
    6b13:	48 8b 00             	mov    (%rax),%rax
    6b16:	8b 55 f8             	mov    -0x8(%rbp),%edx
    6b19:	48 63 d2             	movslq %edx,%rdx
    6b1c:	48 c1 e2 04          	shl    $0x4,%rdx
    6b20:	48 01 d0             	add    %rdx,%rax
    6b23:	66 0f ef c0          	pxor   %xmm0,%xmm0
    6b27:	f3 0f 11 40 08       	movss  %xmm0,0x8(%rax)
    6b2c:	48 8b 05 00 00 00 00 	mov    0x0(%rip),%rax        # 6b33 <load_place_regions+0x747>
    6b33:	8b 55 fc             	mov    -0x4(%rbp),%edx
    6b36:	48 63 d2             	movslq %edx,%rdx
    6b39:	48 c1 e2 03          	shl    $0x3,%rdx
    6b3d:	48 01 d0             	add    %rdx,%rax
    6b40:	48 8b 00             	mov    (%rax),%rax
    6b43:	8b 55 f8             	mov    -0x8(%rbp),%edx
    6b46:	48 63 d2             	movslq %edx,%rdx
    6b49:	48 c1 e2 04          	shl    $0x4,%rdx
    6b4d:	48 01 d0             	add    %rdx,%rax
    6b50:	66 0f ef c0          	pxor   %xmm0,%xmm0
    6b54:	f3 0f 11 40 0c       	movss  %xmm0,0xc(%rax)
    6b59:	83 45 f8 01          	addl   $0x1,-0x8(%rbp)
    6b5d:	8b 45 f8             	mov    -0x8(%rbp),%eax
    6b60:	3b 45 cc             	cmp    -0x34(%rbp),%eax
    6b63:	0f 8c 33 ff ff ff    	jl     6a9c <load_place_regions+0x6b0>
    6b69:	83 45 fc 01          	addl   $0x1,-0x4(%rbp)
    6b6d:	8b 45 fc             	mov    -0x4(%rbp),%eax
    6b70:	3b 45 cc             	cmp    -0x34(%rbp),%eax
    6b73:	0f 8c 4e fc ff ff    	jl     67c7 <load_place_regions+0x3db>
    6b79:	8b 05 00 00 00 00    	mov    0x0(%rip),%eax        # 6b7f <load_place_regions+0x793>
    6b7f:	66 0f ef c0          	pxor   %xmm0,%xmm0
    6b83:	f3 0f 2a c0          	cvtsi2ss %eax,%xmm0
    6b87:	66 0f ef c9          	pxor   %xmm1,%xmm1
    6b8b:	f3 0f 2a 4d cc       	cvtsi2ssl -0x34(%rbp),%xmm1
    6b90:	f3 0f 5e c1          	divss  %xmm1,%xmm0
    6b94:	f3 0f 11 45 d4       	movss  %xmm0,-0x2c(%rbp)
    6b99:	8b 05 00 00 00 00    	mov    0x0(%rip),%eax        # 6b9f <load_place_regions+0x7b3>
    6b9f:	66 0f ef c0          	pxor   %xmm0,%xmm0
    6ba3:	f3 0f 2a c0          	cvtsi2ss %eax,%xmm0
    6ba7:	66 0f ef c9          	pxor   %xmm1,%xmm1
    6bab:	f3 0f 2a 4d cc       	cvtsi2ssl -0x34(%rbp),%xmm1
    6bb0:	f3 0f 5e c1          	divss  %xmm1,%xmm0
    6bb4:	f3 0f 11 45 d0       	movss  %xmm0,-0x30(%rbp)
    6bb9:	48 8b 05 00 00 00 00 	mov    0x0(%rip),%rax        # 6bc0 <load_place_regions+0x7d4>
    6bc0:	f3 0f 10 05 00 00 00 	movss  0x0(%rip),%xmm0        # 6bc8 <load_place_regions+0x7dc>
    6bc7:	00 
    6bc8:	f3 0f 11 00          	movss  %xmm0,(%rax)
    6bcc:	48 8b 05 00 00 00 00 	mov    0x0(%rip),%rax        # 6bd3 <load_place_regions+0x7e7>
    6bd3:	f3 0f 10 05 00 00 00 	movss  0x0(%rip),%xmm0        # 6bdb <load_place_regions+0x7ef>
    6bda:	00 
    6bdb:	f3 0f 11 00          	movss  %xmm0,(%rax)
    6bdf:	c7 45 fc 01 00 00 00 	movl   $0x1,-0x4(%rbp)
    6be6:	eb 76                	jmp    6c5e <load_place_regions+0x872>
    6be8:	48 8b 05 00 00 00 00 	mov    0x0(%rip),%rax        # 6bef <load_place_regions+0x803>
    6bef:	8b 55 fc             	mov    -0x4(%rbp),%edx
    6bf2:	48 63 d2             	movslq %edx,%rdx
    6bf5:	48 c1 e2 02          	shl    $0x2,%rdx
    6bf9:	48 01 d0             	add    %rdx,%rax
    6bfc:	48 8b 15 00 00 00 00 	mov    0x0(%rip),%rdx        # 6c03 <load_place_regions+0x817>
    6c03:	8b 4d fc             	mov    -0x4(%rbp),%ecx
    6c06:	48 63 c9             	movslq %ecx,%rcx
    6c09:	48 c1 e1 02          	shl    $0x2,%rcx
    6c0d:	48 83 e9 04          	sub    $0x4,%rcx
    6c11:	48 01 ca             	add    %rcx,%rdx
    6c14:	f3 0f 10 02          	movss  (%rdx),%xmm0
    6c18:	f3 0f 58 45 d4       	addss  -0x2c(%rbp),%xmm0
    6c1d:	f3 0f 11 00          	movss  %xmm0,(%rax)
    6c21:	48 8b 05 00 00 00 00 	mov    0x0(%rip),%rax        # 6c28 <load_place_regions+0x83c>
    6c28:	8b 55 fc             	mov    -0x4(%rbp),%edx
    6c2b:	48 63 d2             	movslq %edx,%rdx
    6c2e:	48 c1 e2 02          	shl    $0x2,%rdx
    6c32:	48 01 d0             	add    %rdx,%rax
    6c35:	48 8b 15 00 00 00 00 	mov    0x0(%rip),%rdx        # 6c3c <load_place_regions+0x850>
    6c3c:	8b 4d fc             	mov    -0x4(%rbp),%ecx
    6c3f:	48 63 c9             	movslq %ecx,%rcx
    6c42:	48 c1 e1 02          	shl    $0x2,%rcx
    6c46:	48 83 e9 04          	sub    $0x4,%rcx
    6c4a:	48 01 ca             	add    %rcx,%rdx
    6c4d:	f3 0f 10 02          	movss  (%rdx),%xmm0
    6c51:	f3 0f 58 45 d0       	addss  -0x30(%rbp),%xmm0
    6c56:	f3 0f 11 00          	movss  %xmm0,(%rax)
    6c5a:	83 45 fc 01          	addl   $0x1,-0x4(%rbp)
    6c5e:	8b 45 fc             	mov    -0x4(%rbp),%eax
    6c61:	3b 45 cc             	cmp    -0x34(%rbp),%eax
    6c64:	7e 82                	jle    6be8 <load_place_regions+0x7fc>
    6c66:	90                   	nop
    6c67:	c9                   	leaveq 
    6c68:	c3                   	retq   

0000000000006c69 <free_unique_pin_list>:
    6c69:	55                   	push   %rbp
    6c6a:	48 89 e5             	mov    %rsp,%rbp
    6c6d:	48 83 ec 10          	sub    $0x10,%rsp
    6c71:	ff 15 00 00 00 00    	callq  *0x0(%rip)        # 6c77 <free_unique_pin_list+0xe>
    6c77:	c7 45 fc 00 00 00 00 	movl   $0x0,-0x4(%rbp)
    6c7e:	c7 45 f8 00 00 00 00 	movl   $0x0,-0x8(%rbp)
    6c85:	eb 44                	jmp    6ccb <free_unique_pin_list+0x62>
    6c87:	48 8b 05 00 00 00 00 	mov    0x0(%rip),%rax        # 6c8e <free_unique_pin_list+0x25>
    6c8e:	8b 55 f8             	mov    -0x8(%rbp),%edx
    6c91:	48 63 d2             	movslq %edx,%rdx
    6c94:	48 c1 e2 02          	shl    $0x2,%rdx
    6c98:	48 01 d0             	add    %rdx,%rax
    6c9b:	8b 00                	mov    (%rax),%eax
    6c9d:	85 c0                	test   %eax,%eax
    6c9f:	74 26                	je     6cc7 <free_unique_pin_list+0x5e>
    6ca1:	48 8b 05 00 00 00 00 	mov    0x0(%rip),%rax        # 6ca8 <free_unique_pin_list+0x3f>
    6ca8:	8b 55 f8             	mov    -0x8(%rbp),%edx
    6cab:	48 63 d2             	movslq %edx,%rdx
    6cae:	48 c1 e2 03          	shl    $0x3,%rdx
    6cb2:	48 01 d0             	add    %rdx,%rax
    6cb5:	48 8b 00             	mov    (%rax),%rax
    6cb8:	48 89 c7             	mov    %rax,%rdi
    6cbb:	e8 00 00 00 00       	callq  6cc0 <free_unique_pin_list+0x57>
    6cc0:	c7 45 fc 01 00 00 00 	movl   $0x1,-0x4(%rbp)
    6cc7:	83 45 f8 01          	addl   $0x1,-0x8(%rbp)
    6ccb:	8b 05 00 00 00 00    	mov    0x0(%rip),%eax        # 6cd1 <free_unique_pin_list+0x68>
    6cd1:	39 45 f8             	cmp    %eax,-0x8(%rbp)
    6cd4:	7c b1                	jl     6c87 <free_unique_pin_list+0x1e>
    6cd6:	83 7d fc 00          	cmpl   $0x0,-0x4(%rbp)
    6cda:	74 0f                	je     6ceb <free_unique_pin_list+0x82>
    6cdc:	48 8b 05 00 00 00 00 	mov    0x0(%rip),%rax        # 6ce3 <free_unique_pin_list+0x7a>
    6ce3:	48 89 c7             	mov    %rax,%rdi
    6ce6:	e8 00 00 00 00       	callq  6ceb <free_unique_pin_list+0x82>
    6ceb:	48 8b 05 00 00 00 00 	mov    0x0(%rip),%rax        # 6cf2 <free_unique_pin_list+0x89>
    6cf2:	48 89 c7             	mov    %rax,%rdi
    6cf5:	e8 00 00 00 00       	callq  6cfa <free_unique_pin_list+0x91>
    6cfa:	90                   	nop
    6cfb:	c9                   	leaveq 
    6cfc:	c3                   	retq   

0000000000006cfd <alloc_and_load_unique_pin_list>:
    6cfd:	55                   	push   %rbp
    6cfe:	48 89 e5             	mov    %rsp,%rbp
    6d01:	53                   	push   %rbx
    6d02:	48 83 ec 38          	sub    $0x38,%rsp
    6d06:	ff 15 00 00 00 00    	callq  *0x0(%rip)        # 6d0c <alloc_and_load_unique_pin_list+0xf>
    6d0c:	8b 05 00 00 00 00    	mov    0x0(%rip),%eax        # 6d12 <alloc_and_load_unique_pin_list+0x15>
    6d12:	48 98                	cltq   
    6d14:	be 04 00 00 00       	mov    $0x4,%esi
    6d19:	48 89 c7             	mov    %rax,%rdi
    6d1c:	e8 00 00 00 00       	callq  6d21 <alloc_and_load_unique_pin_list+0x24>
    6d21:	48 89 05 00 00 00 00 	mov    %rax,0x0(%rip)        # 6d28 <alloc_and_load_unique_pin_list+0x2b>
    6d28:	8b 05 00 00 00 00    	mov    0x0(%rip),%eax        # 6d2e <alloc_and_load_unique_pin_list+0x31>
    6d2e:	48 98                	cltq   
    6d30:	be 04 00 00 00       	mov    $0x4,%esi
    6d35:	48 89 c7             	mov    %rax,%rdi
    6d38:	e8 00 00 00 00       	callq  6d3d <alloc_and_load_unique_pin_list+0x40>
    6d3d:	48 89 45 d0          	mov    %rax,-0x30(%rbp)
    6d41:	c7 45 e0 00 00 00 00 	movl   $0x0,-0x20(%rbp)
    6d48:	c7 45 ec 00 00 00 00 	movl   $0x0,-0x14(%rbp)
    6d4f:	e9 a5 02 00 00       	jmpq   6ff9 <alloc_and_load_unique_pin_list+0x2fc>
    6d54:	c7 45 e4 00 00 00 00 	movl   $0x0,-0x1c(%rbp)
    6d5b:	c7 45 e8 00 00 00 00 	movl   $0x0,-0x18(%rbp)
    6d62:	eb 72                	jmp    6dd6 <alloc_and_load_unique_pin_list+0xd9>
    6d64:	48 8b 0d 00 00 00 00 	mov    0x0(%rip),%rcx        # 6d6b <alloc_and_load_unique_pin_list+0x6e>
    6d6b:	8b 45 ec             	mov    -0x14(%rbp),%eax
    6d6e:	48 63 d0             	movslq %eax,%rdx
    6d71:	48 89 d0             	mov    %rdx,%rax
    6d74:	48 c1 e0 02          	shl    $0x2,%rax
    6d78:	48 01 d0             	add    %rdx,%rax
    6d7b:	48 c1 e0 03          	shl    $0x3,%rax
    6d7f:	48 01 c8             	add    %rcx,%rax
    6d82:	48 8b 40 10          	mov    0x10(%rax),%rax
    6d86:	8b 55 e8             	mov    -0x18(%rbp),%edx
    6d89:	48 63 d2             	movslq %edx,%rdx
    6d8c:	48 c1 e2 02          	shl    $0x2,%rdx
    6d90:	48 01 d0             	add    %rdx,%rax
    6d93:	8b 00                	mov    (%rax),%eax
    6d95:	89 45 cc             	mov    %eax,-0x34(%rbp)
    6d98:	8b 45 cc             	mov    -0x34(%rbp),%eax
    6d9b:	48 98                	cltq   
    6d9d:	48 8d 14 85 00 00 00 	lea    0x0(,%rax,4),%rdx
    6da4:	00 
    6da5:	48 8b 45 d0          	mov    -0x30(%rbp),%rax
    6da9:	48 01 d0             	add    %rdx,%rax
    6dac:	8b 10                	mov    (%rax),%edx
    6dae:	83 c2 01             	add    $0x1,%edx
    6db1:	89 10                	mov    %edx,(%rax)
    6db3:	8b 45 cc             	mov    -0x34(%rbp),%eax
    6db6:	48 98                	cltq   
    6db8:	48 8d 14 85 00 00 00 	lea    0x0(,%rax,4),%rdx
    6dbf:	00 
    6dc0:	48 8b 45 d0          	mov    -0x30(%rbp),%rax
    6dc4:	48 01 d0             	add    %rdx,%rax
    6dc7:	8b 00                	mov    (%rax),%eax
    6dc9:	83 f8 01             	cmp    $0x1,%eax
    6dcc:	7e 04                	jle    6dd2 <alloc_and_load_unique_pin_list+0xd5>
    6dce:	83 45 e4 01          	addl   $0x1,-0x1c(%rbp)
    6dd2:	83 45 e8 01          	addl   $0x1,-0x18(%rbp)
    6dd6:	48 8b 0d 00 00 00 00 	mov    0x0(%rip),%rcx        # 6ddd <alloc_and_load_unique_pin_list+0xe0>
    6ddd:	8b 45 ec             	mov    -0x14(%rbp),%eax
    6de0:	48 63 d0             	movslq %eax,%rdx
    6de3:	48 89 d0             	mov    %rdx,%rax
    6de6:	48 c1 e0 02          	shl    $0x2,%rax
    6dea:	48 01 d0             	add    %rdx,%rax
    6ded:	48 c1 e0 03          	shl    $0x3,%rax
    6df1:	48 01 c8             	add    %rcx,%rax
    6df4:	8b 40 08             	mov    0x8(%rax),%eax
    6df7:	3b 45 e8             	cmp    -0x18(%rbp),%eax
    6dfa:	0f 8d 64 ff ff ff    	jge    6d64 <alloc_and_load_unique_pin_list+0x67>
    6e00:	83 7d e4 00          	cmpl   $0x0,-0x1c(%rbp)
    6e04:	0f 8e 6a 01 00 00    	jle    6f74 <alloc_and_load_unique_pin_list+0x277>
    6e0a:	48 8b 05 00 00 00 00 	mov    0x0(%rip),%rax        # 6e11 <alloc_and_load_unique_pin_list+0x114>
    6e11:	8b 55 ec             	mov    -0x14(%rbp),%edx
    6e14:	48 63 d2             	movslq %edx,%rdx
    6e17:	48 c1 e2 02          	shl    $0x2,%rdx
    6e1b:	48 01 c2             	add    %rax,%rdx
    6e1e:	8b 45 e4             	mov    -0x1c(%rbp),%eax
    6e21:	89 02                	mov    %eax,(%rdx)
    6e23:	83 7d e0 00          	cmpl   $0x0,-0x20(%rbp)
    6e27:	75 23                	jne    6e4c <alloc_and_load_unique_pin_list+0x14f>
    6e29:	8b 05 00 00 00 00    	mov    0x0(%rip),%eax        # 6e2f <alloc_and_load_unique_pin_list+0x132>
    6e2f:	48 98                	cltq   
    6e31:	be 08 00 00 00       	mov    $0x8,%esi
    6e36:	48 89 c7             	mov    %rax,%rdi
    6e39:	e8 00 00 00 00       	callq  6e3e <alloc_and_load_unique_pin_list+0x141>
    6e3e:	48 89 05 00 00 00 00 	mov    %rax,0x0(%rip)        # 6e45 <alloc_and_load_unique_pin_list+0x148>
    6e45:	c7 45 e0 01 00 00 00 	movl   $0x1,-0x20(%rbp)
    6e4c:	48 8b 05 00 00 00 00 	mov    0x0(%rip),%rax        # 6e53 <alloc_and_load_unique_pin_list+0x156>
    6e53:	8b 55 ec             	mov    -0x14(%rbp),%edx
    6e56:	48 63 d2             	movslq %edx,%rdx
    6e59:	48 c1 e2 03          	shl    $0x3,%rdx
    6e5d:	48 8d 1c 10          	lea    (%rax,%rdx,1),%rbx
    6e61:	48 8b 0d 00 00 00 00 	mov    0x0(%rip),%rcx        # 6e68 <alloc_and_load_unique_pin_list+0x16b>
    6e68:	8b 45 ec             	mov    -0x14(%rbp),%eax
    6e6b:	48 63 d0             	movslq %eax,%rdx
    6e6e:	48 89 d0             	mov    %rdx,%rax
    6e71:	48 c1 e0 02          	shl    $0x2,%rax
    6e75:	48 01 d0             	add    %rdx,%rax
    6e78:	48 c1 e0 03          	shl    $0x3,%rax
    6e7c:	48 01 c8             	add    %rcx,%rax
    6e7f:	8b 40 08             	mov    0x8(%rax),%eax
    6e82:	83 c0 01             	add    $0x1,%eax
    6e85:	2b 45 e4             	sub    -0x1c(%rbp),%eax
    6e88:	48 98                	cltq   
    6e8a:	48 c1 e0 02          	shl    $0x2,%rax
    6e8e:	48 89 c7             	mov    %rax,%rdi
    6e91:	e8 00 00 00 00       	callq  6e96 <alloc_and_load_unique_pin_list+0x199>
    6e96:	48 89 03             	mov    %rax,(%rbx)
    6e99:	c7 45 dc 00 00 00 00 	movl   $0x0,-0x24(%rbp)
    6ea0:	c7 45 e8 00 00 00 00 	movl   $0x0,-0x18(%rbp)
    6ea7:	e9 99 00 00 00       	jmpq   6f45 <alloc_and_load_unique_pin_list+0x248>
    6eac:	48 8b 0d 00 00 00 00 	mov    0x0(%rip),%rcx        # 6eb3 <alloc_and_load_unique_pin_list+0x1b6>
    6eb3:	8b 45 ec             	mov    -0x14(%rbp),%eax
    6eb6:	48 63 d0             	movslq %eax,%rdx
    6eb9:	48 89 d0             	mov    %rdx,%rax
    6ebc:	48 c1 e0 02          	shl    $0x2,%rax
    6ec0:	48 01 d0             	add    %rdx,%rax
    6ec3:	48 c1 e0 03          	shl    $0x3,%rax
    6ec7:	48 01 c8             	add    %rcx,%rax
    6eca:	48 8b 40 10          	mov    0x10(%rax),%rax
    6ece:	8b 55 e8             	mov    -0x18(%rbp),%edx
    6ed1:	48 63 d2             	movslq %edx,%rdx
    6ed4:	48 c1 e2 02          	shl    $0x2,%rdx
    6ed8:	48 01 d0             	add    %rdx,%rax
    6edb:	8b 00                	mov    (%rax),%eax
    6edd:	89 45 cc             	mov    %eax,-0x34(%rbp)
    6ee0:	8b 45 cc             	mov    -0x34(%rbp),%eax
    6ee3:	48 98                	cltq   
    6ee5:	48 8d 14 85 00 00 00 	lea    0x0(,%rax,4),%rdx
    6eec:	00 
    6eed:	48 8b 45 d0          	mov    -0x30(%rbp),%rax
    6ef1:	48 01 d0             	add    %rdx,%rax
    6ef4:	8b 00                	mov    (%rax),%eax
    6ef6:	85 c0                	test   %eax,%eax
    6ef8:	74 47                	je     6f41 <alloc_and_load_unique_pin_list+0x244>
    6efa:	8b 45 cc             	mov    -0x34(%rbp),%eax
    6efd:	48 98                	cltq   
    6eff:	48 8d 14 85 00 00 00 	lea    0x0(,%rax,4),%rdx
    6f06:	00 
    6f07:	48 8b 45 d0          	mov    -0x30(%rbp),%rax
    6f0b:	48 01 d0             	add    %rdx,%rax
    6f0e:	c7 00 00 00 00 00    	movl   $0x0,(%rax)
    6f14:	48 8b 05 00 00 00 00 	mov    0x0(%rip),%rax        # 6f1b <alloc_and_load_unique_pin_list+0x21e>
    6f1b:	8b 55 ec             	mov    -0x14(%rbp),%edx
    6f1e:	48 63 d2             	movslq %edx,%rdx
    6f21:	48 c1 e2 03          	shl    $0x3,%rdx
    6f25:	48 01 d0             	add    %rdx,%rax
    6f28:	48 8b 00             	mov    (%rax),%rax
    6f2b:	8b 55 dc             	mov    -0x24(%rbp),%edx
    6f2e:	48 63 d2             	movslq %edx,%rdx
    6f31:	48 c1 e2 02          	shl    $0x2,%rdx
    6f35:	48 01 c2             	add    %rax,%rdx
    6f38:	8b 45 cc             	mov    -0x34(%rbp),%eax
    6f3b:	89 02                	mov    %eax,(%rdx)
    6f3d:	83 45 dc 01          	addl   $0x1,-0x24(%rbp)
    6f41:	83 45 e8 01          	addl   $0x1,-0x18(%rbp)
    6f45:	48 8b 0d 00 00 00 00 	mov    0x0(%rip),%rcx        # 6f4c <alloc_and_load_unique_pin_list+0x24f>
    6f4c:	8b 45 ec             	mov    -0x14(%rbp),%eax
    6f4f:	48 63 d0             	movslq %eax,%rdx
    6f52:	48 89 d0             	mov    %rdx,%rax
    6f55:	48 c1 e0 02          	shl    $0x2,%rax
    6f59:	48 01 d0             	add    %rdx,%rax
    6f5c:	48 c1 e0 03          	shl    $0x3,%rax
    6f60:	48 01 c8             	add    %rcx,%rax
    6f63:	8b 40 08             	mov    0x8(%rax),%eax
    6f66:	3b 45 e8             	cmp    -0x18(%rbp),%eax
    6f69:	0f 8d 3d ff ff ff    	jge    6eac <alloc_and_load_unique_pin_list+0x1af>
    6f6f:	e9 81 00 00 00       	jmpq   6ff5 <alloc_and_load_unique_pin_list+0x2f8>
    6f74:	c7 45 e8 00 00 00 00 	movl   $0x0,-0x18(%rbp)
    6f7b:	eb 52                	jmp    6fcf <alloc_and_load_unique_pin_list+0x2d2>
    6f7d:	48 8b 0d 00 00 00 00 	mov    0x0(%rip),%rcx        # 6f84 <alloc_and_load_unique_pin_list+0x287>
    6f84:	8b 45 ec             	mov    -0x14(%rbp),%eax
    6f87:	48 63 d0             	movslq %eax,%rdx
    6f8a:	48 89 d0             	mov    %rdx,%rax
    6f8d:	48 c1 e0 02          	shl    $0x2,%rax
    6f91:	48 01 d0             	add    %rdx,%rax
    6f94:	48 c1 e0 03          	shl    $0x3,%rax
    6f98:	48 01 c8             	add    %rcx,%rax
    6f9b:	48 8b 40 10          	mov    0x10(%rax),%rax
    6f9f:	8b 55 e8             	mov    -0x18(%rbp),%edx
    6fa2:	48 63 d2             	movslq %edx,%rdx
    6fa5:	48 c1 e2 02          	shl    $0x2,%rdx
    6fa9:	48 01 d0             	add    %rdx,%rax
    6fac:	8b 00                	mov    (%rax),%eax
    6fae:	89 45 cc             	mov    %eax,-0x34(%rbp)
    6fb1:	8b 45 cc             	mov    -0x34(%rbp),%eax
    6fb4:	48 98                	cltq   
    6fb6:	48 8d 14 85 00 00 00 	lea    0x0(,%rax,4),%rdx
    6fbd:	00 
    6fbe:	48 8b 45 d0          	mov    -0x30(%rbp),%rax
    6fc2:	48 01 d0             	add    %rdx,%rax
    6fc5:	c7 00 00 00 00 00    	movl   $0x0,(%rax)
    6fcb:	83 45 e8 01          	addl   $0x1,-0x18(%rbp)
    6fcf:	48 8b 0d 00 00 00 00 	mov    0x0(%rip),%rcx        # 6fd6 <alloc_and_load_unique_pin_list+0x2d9>
    6fd6:	8b 45 ec             	mov    -0x14(%rbp),%eax
    6fd9:	48 63 d0             	movslq %eax,%rdx
    6fdc:	48 89 d0             	mov    %rdx,%rax
    6fdf:	48 c1 e0 02          	shl    $0x2,%rax
    6fe3:	48 01 d0             	add    %rdx,%rax
    6fe6:	48 c1 e0 03          	shl    $0x3,%rax
    6fea:	48 01 c8             	add    %rcx,%rax
    6fed:	8b 40 08             	mov    0x8(%rax),%eax
    6ff0:	3b 45 e8             	cmp    -0x18(%rbp),%eax
    6ff3:	7d 88                	jge    6f7d <alloc_and_load_unique_pin_list+0x280>
    6ff5:	83 45 ec 01          	addl   $0x1,-0x14(%rbp)
    6ff9:	8b 05 00 00 00 00    	mov    0x0(%rip),%eax        # 6fff <alloc_and_load_unique_pin_list+0x302>
    6fff:	39 45 ec             	cmp    %eax,-0x14(%rbp)
    7002:	0f 8c 4c fd ff ff    	jl     6d54 <alloc_and_load_unique_pin_list+0x57>
    7008:	48 8b 45 d0          	mov    -0x30(%rbp),%rax
    700c:	48 89 c7             	mov    %rax,%rdi
    700f:	e8 00 00 00 00       	callq  7014 <alloc_and_load_unique_pin_list+0x317>
    7014:	90                   	nop
    7015:	48 83 c4 38          	add    $0x38,%rsp
    7019:	5b                   	pop    %rbx
    701a:	5d                   	pop    %rbp
    701b:	c3                   	retq   

000000000000701c <get_bb_from_scratch>:
    701c:	55                   	push   %rbp
    701d:	48 89 e5             	mov    %rsp,%rbp
    7020:	48 83 ec 58          	sub    $0x58,%rsp
    7024:	ff 15 00 00 00 00    	callq  *0x0(%rip)        # 702a <get_bb_from_scratch+0xe>
    702a:	89 7d bc             	mov    %edi,-0x44(%rbp)
    702d:	48 89 75 b0          	mov    %rsi,-0x50(%rbp)
    7031:	48 89 55 a8          	mov    %rdx,-0x58(%rbp)
    7035:	48 8b 05 00 00 00 00 	mov    0x0(%rip),%rax        # 703c <get_bb_from_scratch+0x20>
    703c:	8b 55 bc             	mov    -0x44(%rbp),%edx
    703f:	48 63 d2             	movslq %edx,%rdx
    7042:	48 c1 e2 02          	shl    $0x2,%rdx
    7046:	48 01 d0             	add    %rdx,%rax
    7049:	8b 00                	mov    (%rax),%eax
    704b:	85 c0                	test   %eax,%eax
    704d:	75 4f                	jne    709e <get_bb_from_scratch+0x82>
    704f:	48 8b 0d 00 00 00 00 	mov    0x0(%rip),%rcx        # 7056 <get_bb_from_scratch+0x3a>
    7056:	8b 45 bc             	mov    -0x44(%rbp),%eax
    7059:	48 63 d0             	movslq %eax,%rdx
    705c:	48 89 d0             	mov    %rdx,%rax
    705f:	48 c1 e0 02          	shl    $0x2,%rax
    7063:	48 01 d0             	add    %rdx,%rax
    7066:	48 c1 e0 03          	shl    $0x3,%rax
    706a:	48 01 c8             	add    %rcx,%rax
    706d:	48 8b 40 10          	mov    0x10(%rax),%rax
    7071:	48 89 45 d0          	mov    %rax,-0x30(%rbp)
    7075:	48 8b 0d 00 00 00 00 	mov    0x0(%rip),%rcx        # 707c <get_bb_from_scratch+0x60>
    707c:	8b 45 bc             	mov    -0x44(%rbp),%eax
    707f:	48 63 d0             	movslq %eax,%rdx
    7082:	48 89 d0             	mov    %rdx,%rax
    7085:	48 c1 e0 02          	shl    $0x2,%rax
    7089:	48 01 d0             	add    %rdx,%rax
    708c:	48 c1 e0 03          	shl    $0x3,%rax
    7090:	48 01 c8             	add    %rcx,%rax
    7093:	8b 40 08             	mov    0x8(%rax),%eax
    7096:	83 c0 01             	add    $0x1,%eax
    7099:	89 45 d8             	mov    %eax,-0x28(%rbp)
    709c:	eb 5c                	jmp    70fa <get_bb_from_scratch+0xde>
    709e:	48 8b 05 00 00 00 00 	mov    0x0(%rip),%rax        # 70a5 <get_bb_from_scratch+0x89>
    70a5:	8b 55 bc             	mov    -0x44(%rbp),%edx
    70a8:	48 63 d2             	movslq %edx,%rdx
    70ab:	48 c1 e2 03          	shl    $0x3,%rdx
    70af:	48 01 d0             	add    %rdx,%rax
    70b2:	48 8b 00             	mov    (%rax),%rax
    70b5:	48 89 45 d0          	mov    %rax,-0x30(%rbp)
    70b9:	48 8b 0d 00 00 00 00 	mov    0x0(%rip),%rcx        # 70c0 <get_bb_from_scratch+0xa4>
    70c0:	8b 45 bc             	mov    -0x44(%rbp),%eax
    70c3:	48 63 d0             	movslq %eax,%rdx
    70c6:	48 89 d0             	mov    %rdx,%rax
    70c9:	48 c1 e0 02          	shl    $0x2,%rax
    70cd:	48 01 d0             	add    %rdx,%rax
    70d0:	48 c1 e0 03          	shl    $0x3,%rax
    70d4:	48 01 c8             	add    %rcx,%rax
    70d7:	8b 40 08             	mov    0x8(%rax),%eax
    70da:	8d 48 01             	lea    0x1(%rax),%ecx
    70dd:	48 8b 05 00 00 00 00 	mov    0x0(%rip),%rax        # 70e4 <get_bb_from_scratch+0xc8>
    70e4:	8b 55 bc             	mov    -0x44(%rbp),%edx
    70e7:	48 63 d2             	movslq %edx,%rdx
    70ea:	48 c1 e2 02          	shl    $0x2,%rdx
    70ee:	48 01 d0             	add    %rdx,%rax
    70f1:	8b 00                	mov    (%rax),%eax
    70f3:	29 c1                	sub    %eax,%ecx
    70f5:	89 c8                	mov    %ecx,%eax
    70f7:	89 45 d8             	mov    %eax,-0x28(%rbp)
    70fa:	48 8b 0d 00 00 00 00 	mov    0x0(%rip),%rcx        # 7101 <get_bb_from_scratch+0xe5>
    7101:	48 8b 45 d0          	mov    -0x30(%rbp),%rax
    7105:	8b 00                	mov    (%rax),%eax
    7107:	48 63 d0             	movslq %eax,%rdx
    710a:	48 89 d0             	mov    %rdx,%rax
    710d:	48 c1 e0 02          	shl    $0x2,%rax
    7111:	48 01 d0             	add    %rdx,%rax
    7114:	48 c1 e0 03          	shl    $0x3,%rax
    7118:	48 01 c8             	add    %rcx,%rax
    711b:	8b 40 18             	mov    0x18(%rax),%eax
    711e:	89 45 cc             	mov    %eax,-0x34(%rbp)
    7121:	48 8b 0d 00 00 00 00 	mov    0x0(%rip),%rcx        # 7128 <get_bb_from_scratch+0x10c>
    7128:	48 8b 45 d0          	mov    -0x30(%rbp),%rax
    712c:	8b 00                	mov    (%rax),%eax
    712e:	48 63 d0             	movslq %eax,%rdx
    7131:	48 89 d0             	mov    %rdx,%rax
    7134:	48 c1 e0 02          	shl    $0x2,%rax
    7138:	48 01 d0             	add    %rdx,%rax
    713b:	48 c1 e0 03          	shl    $0x3,%rax
    713f:	48 01 c8             	add    %rcx,%rax
    7142:	8b 40 1c             	mov    0x1c(%rax),%eax
    7145:	89 45 c8             	mov    %eax,-0x38(%rbp)
    7148:	8b 05 00 00 00 00    	mov    0x0(%rip),%eax        # 714e <get_bb_from_scratch+0x132>
    714e:	39 45 cc             	cmp    %eax,-0x34(%rbp)
    7151:	0f 4e 45 cc          	cmovle -0x34(%rbp),%eax
    7155:	ba 01 00 00 00       	mov    $0x1,%edx
    715a:	85 c0                	test   %eax,%eax
    715c:	0f 4e c2             	cmovle %edx,%eax
    715f:	89 45 cc             	mov    %eax,-0x34(%rbp)
    7162:	8b 05 00 00 00 00    	mov    0x0(%rip),%eax        # 7168 <get_bb_from_scratch+0x14c>
    7168:	39 45 c8             	cmp    %eax,-0x38(%rbp)
    716b:	0f 4e 45 c8          	cmovle -0x38(%rbp),%eax
    716f:	ba 01 00 00 00       	mov    $0x1,%edx
    7174:	85 c0                	test   %eax,%eax
    7176:	0f 4e c2             	cmovle %edx,%eax
    7179:	89 45 c8             	mov    %eax,-0x38(%rbp)
    717c:	8b 45 cc             	mov    -0x34(%rbp),%eax
    717f:	89 45 f8             	mov    %eax,-0x8(%rbp)
    7182:	8b 45 c8             	mov    -0x38(%rbp),%eax
    7185:	89 45 f0             	mov    %eax,-0x10(%rbp)
    7188:	8b 45 cc             	mov    -0x34(%rbp),%eax
    718b:	89 45 f4             	mov    %eax,-0xc(%rbp)
    718e:	8b 45 c8             	mov    -0x38(%rbp),%eax
    7191:	89 45 ec             	mov    %eax,-0x14(%rbp)
    7194:	c7 45 e8 01 00 00 00 	movl   $0x1,-0x18(%rbp)
    719b:	c7 45 e0 01 00 00 00 	movl   $0x1,-0x20(%rbp)
    71a2:	c7 45 e4 01 00 00 00 	movl   $0x1,-0x1c(%rbp)
    71a9:	c7 45 dc 01 00 00 00 	movl   $0x1,-0x24(%rbp)
    71b0:	c7 45 fc 01 00 00 00 	movl   $0x1,-0x4(%rbp)
    71b7:	e9 25 01 00 00       	jmpq   72e1 <get_bb_from_scratch+0x2c5>
    71bc:	8b 45 fc             	mov    -0x4(%rbp),%eax
    71bf:	48 98                	cltq   
    71c1:	48 8d 14 85 00 00 00 	lea    0x0(,%rax,4),%rdx
    71c8:	00 
    71c9:	48 8b 45 d0          	mov    -0x30(%rbp),%rax
    71cd:	48 01 d0             	add    %rdx,%rax
    71d0:	8b 00                	mov    (%rax),%eax
    71d2:	89 45 c4             	mov    %eax,-0x3c(%rbp)
    71d5:	48 8b 0d 00 00 00 00 	mov    0x0(%rip),%rcx        # 71dc <get_bb_from_scratch+0x1c0>
    71dc:	8b 45 c4             	mov    -0x3c(%rbp),%eax
    71df:	48 63 d0             	movslq %eax,%rdx
    71e2:	48 89 d0             	mov    %rdx,%rax
    71e5:	48 c1 e0 02          	shl    $0x2,%rax
    71e9:	48 01 d0             	add    %rdx,%rax
    71ec:	48 c1 e0 03          	shl    $0x3,%rax
    71f0:	48 01 c8             	add    %rcx,%rax
    71f3:	8b 40 18             	mov    0x18(%rax),%eax
    71f6:	89 45 cc             	mov    %eax,-0x34(%rbp)
    71f9:	48 8b 0d 00 00 00 00 	mov    0x0(%rip),%rcx        # 7200 <get_bb_from_scratch+0x1e4>
    7200:	8b 45 c4             	mov    -0x3c(%rbp),%eax
    7203:	48 63 d0             	movslq %eax,%rdx
    7206:	48 89 d0             	mov    %rdx,%rax
    7209:	48 c1 e0 02          	shl    $0x2,%rax
    720d:	48 01 d0             	add    %rdx,%rax
    7210:	48 c1 e0 03          	shl    $0x3,%rax
    7214:	48 01 c8             	add    %rcx,%rax
    7217:	8b 40 1c             	mov    0x1c(%rax),%eax
    721a:	89 45 c8             	mov    %eax,-0x38(%rbp)
    721d:	8b 05 00 00 00 00    	mov    0x0(%rip),%eax        # 7223 <get_bb_from_scratch+0x207>
    7223:	39 45 cc             	cmp    %eax,-0x34(%rbp)
    7226:	0f 4e 45 cc          	cmovle -0x34(%rbp),%eax
    722a:	ba 01 00 00 00       	mov    $0x1,%edx
    722f:	85 c0                	test   %eax,%eax
    7231:	0f 4e c2             	cmovle %edx,%eax
    7234:	89 45 cc             	mov    %eax,-0x34(%rbp)
    7237:	8b 05 00 00 00 00    	mov    0x0(%rip),%eax        # 723d <get_bb_from_scratch+0x221>
    723d:	39 45 c8             	cmp    %eax,-0x38(%rbp)
    7240:	0f 4e 45 c8          	cmovle -0x38(%rbp),%eax
    7244:	ba 01 00 00 00       	mov    $0x1,%edx
    7249:	85 c0                	test   %eax,%eax
    724b:	0f 4e c2             	cmovle %edx,%eax
    724e:	89 45 c8             	mov    %eax,-0x38(%rbp)
    7251:	8b 45 cc             	mov    -0x34(%rbp),%eax
    7254:	3b 45 f8             	cmp    -0x8(%rbp),%eax
    7257:	75 04                	jne    725d <get_bb_from_scratch+0x241>
    7259:	83 45 e8 01          	addl   $0x1,-0x18(%rbp)
    725d:	8b 45 cc             	mov    -0x34(%rbp),%eax
    7260:	3b 45 f4             	cmp    -0xc(%rbp),%eax
    7263:	75 06                	jne    726b <get_bb_from_scratch+0x24f>
    7265:	83 45 e4 01          	addl   $0x1,-0x1c(%rbp)
    7269:	eb 2c                	jmp    7297 <get_bb_from_scratch+0x27b>
    726b:	8b 45 cc             	mov    -0x34(%rbp),%eax
    726e:	3b 45 f8             	cmp    -0x8(%rbp),%eax
    7271:	7d 0f                	jge    7282 <get_bb_from_scratch+0x266>
    7273:	8b 45 cc             	mov    -0x34(%rbp),%eax
    7276:	89 45 f8             	mov    %eax,-0x8(%rbp)
    7279:	c7 45 e8 01 00 00 00 	movl   $0x1,-0x18(%rbp)
    7280:	eb 15                	jmp    7297 <get_bb_from_scratch+0x27b>
    7282:	8b 45 cc             	mov    -0x34(%rbp),%eax
    7285:	3b 45 f4             	cmp    -0xc(%rbp),%eax
    7288:	7e 0d                	jle    7297 <get_bb_from_scratch+0x27b>
    728a:	8b 45 cc             	mov    -0x34(%rbp),%eax
    728d:	89 45 f4             	mov    %eax,-0xc(%rbp)
    7290:	c7 45 e4 01 00 00 00 	movl   $0x1,-0x1c(%rbp)
    7297:	8b 45 c8             	mov    -0x38(%rbp),%eax
    729a:	3b 45 f0             	cmp    -0x10(%rbp),%eax
    729d:	75 04                	jne    72a3 <get_bb_from_scratch+0x287>
    729f:	83 45 e0 01          	addl   $0x1,-0x20(%rbp)
    72a3:	8b 45 c8             	mov    -0x38(%rbp),%eax
    72a6:	3b 45 ec             	cmp    -0x14(%rbp),%eax
    72a9:	75 06                	jne    72b1 <get_bb_from_scratch+0x295>
    72ab:	83 45 dc 01          	addl   $0x1,-0x24(%rbp)
    72af:	eb 2c                	jmp    72dd <get_bb_from_scratch+0x2c1>
    72b1:	8b 45 c8             	mov    -0x38(%rbp),%eax
    72b4:	3b 45 f0             	cmp    -0x10(%rbp),%eax
    72b7:	7d 0f                	jge    72c8 <get_bb_from_scratch+0x2ac>
    72b9:	8b 45 c8             	mov    -0x38(%rbp),%eax
    72bc:	89 45 f0             	mov    %eax,-0x10(%rbp)
    72bf:	c7 45 e0 01 00 00 00 	movl   $0x1,-0x20(%rbp)
    72c6:	eb 15                	jmp    72dd <get_bb_from_scratch+0x2c1>
    72c8:	8b 45 c8             	mov    -0x38(%rbp),%eax
    72cb:	3b 45 ec             	cmp    -0x14(%rbp),%eax
    72ce:	7e 0d                	jle    72dd <get_bb_from_scratch+0x2c1>
    72d0:	8b 45 c8             	mov    -0x38(%rbp),%eax
    72d3:	89 45 ec             	mov    %eax,-0x14(%rbp)
    72d6:	c7 45 dc 01 00 00 00 	movl   $0x1,-0x24(%rbp)
    72dd:	83 45 fc 01          	addl   $0x1,-0x4(%rbp)
    72e1:	8b 45 fc             	mov    -0x4(%rbp),%eax
    72e4:	3b 45 d8             	cmp    -0x28(%rbp),%eax
    72e7:	0f 8c cf fe ff ff    	jl     71bc <get_bb_from_scratch+0x1a0>
    72ed:	48 8b 45 b0          	mov    -0x50(%rbp),%rax
    72f1:	8b 55 f8             	mov    -0x8(%rbp),%edx
    72f4:	89 10                	mov    %edx,(%rax)
    72f6:	48 8b 45 b0          	mov    -0x50(%rbp),%rax
    72fa:	8b 55 f4             	mov    -0xc(%rbp),%edx
    72fd:	89 50 04             	mov    %edx,0x4(%rax)
    7300:	48 8b 45 b0          	mov    -0x50(%rbp),%rax
    7304:	8b 55 f0             	mov    -0x10(%rbp),%edx
    7307:	89 50 08             	mov    %edx,0x8(%rax)
    730a:	48 8b 45 b0          	mov    -0x50(%rbp),%rax
    730e:	8b 55 ec             	mov    -0x14(%rbp),%edx
    7311:	89 50 0c             	mov    %edx,0xc(%rax)
    7314:	48 8b 45 a8          	mov    -0x58(%rbp),%rax
    7318:	8b 55 e8             	mov    -0x18(%rbp),%edx
    731b:	89 10                	mov    %edx,(%rax)
    731d:	48 8b 45 a8          	mov    -0x58(%rbp),%rax
    7321:	8b 55 e4             	mov    -0x1c(%rbp),%edx
    7324:	89 50 04             	mov    %edx,0x4(%rax)
    7327:	48 8b 45 a8          	mov    -0x58(%rbp),%rax
    732b:	8b 55 e0             	mov    -0x20(%rbp),%edx
    732e:	89 50 08             	mov    %edx,0x8(%rax)
    7331:	48 8b 45 a8          	mov    -0x58(%rbp),%rax
    7335:	8b 55 dc             	mov    -0x24(%rbp),%edx
    7338:	89 50 0c             	mov    %edx,0xc(%rax)
    733b:	90                   	nop
    733c:	c9                   	leaveq 
    733d:	c3                   	retq   

000000000000733e <get_net_wirelength_estimate>:
    733e:	55                   	push   %rbp
    733f:	48 89 e5             	mov    %rsp,%rbp
    7342:	48 83 ec 20          	sub    $0x20,%rsp
    7346:	ff 15 00 00 00 00    	callq  *0x0(%rip)        # 734c <get_net_wirelength_estimate+0xe>
    734c:	89 7d ec             	mov    %edi,-0x14(%rbp)
    734f:	48 89 75 e0          	mov    %rsi,-0x20(%rbp)
    7353:	48 8b 0d 00 00 00 00 	mov    0x0(%rip),%rcx        # 735a <get_net_wirelength_estimate+0x1c>
    735a:	8b 45 ec             	mov    -0x14(%rbp),%eax
    735d:	48 63 d0             	movslq %eax,%rdx
    7360:	48 89 d0             	mov    %rdx,%rax
    7363:	48 c1 e0 02          	shl    $0x2,%rax
    7367:	48 01 d0             	add    %rdx,%rax
    736a:	48 c1 e0 03          	shl    $0x3,%rax
    736e:	48 01 c8             	add    %rcx,%rax
    7371:	8b 40 08             	mov    0x8(%rax),%eax
    7374:	83 c0 01             	add    $0x1,%eax
    7377:	83 f8 32             	cmp    $0x32,%eax
    737a:	7e 77                	jle    73f3 <get_net_wirelength_estimate+0xb5>
    737c:	48 8b 0d 00 00 00 00 	mov    0x0(%rip),%rcx        # 7383 <get_net_wirelength_estimate+0x45>
    7383:	8b 45 ec             	mov    -0x14(%rbp),%eax
    7386:	48 63 d0             	movslq %eax,%rdx
    7389:	48 89 d0             	mov    %rdx,%rax
    738c:	48 c1 e0 02          	shl    $0x2,%rax
    7390:	48 01 d0             	add    %rdx,%rax
    7393:	48 c1 e0 03          	shl    $0x3,%rax
    7397:	48 01 c8             	add    %rcx,%rax
    739a:	8b 40 08             	mov    0x8(%rax),%eax
    739d:	83 c0 01             	add    $0x1,%eax
    73a0:	83 f8 54             	cmp    $0x54,%eax
    73a3:	7f 4e                	jg     73f3 <get_net_wirelength_estimate+0xb5>
    73a5:	48 8b 0d 00 00 00 00 	mov    0x0(%rip),%rcx        # 73ac <get_net_wirelength_estimate+0x6e>
    73ac:	8b 45 ec             	mov    -0x14(%rbp),%eax
    73af:	48 63 d0             	movslq %eax,%rdx
    73b2:	48 89 d0             	mov    %rdx,%rax
    73b5:	48 c1 e0 02          	shl    $0x2,%rax
    73b9:	48 01 d0             	add    %rdx,%rax
    73bc:	48 c1 e0 03          	shl    $0x3,%rax
    73c0:	48 01 c8             	add    %rcx,%rax
    73c3:	8b 40 08             	mov    0x8(%rax),%eax
    73c6:	83 e8 31             	sub    $0x31,%eax
    73c9:	66 0f ef c0          	pxor   %xmm0,%xmm0
    73cd:	f2 0f 2a c0          	cvtsi2sd %eax,%xmm0
    73d1:	f2 0f 10 0d 00 00 00 	movsd  0x0(%rip),%xmm1        # 73d9 <get_net_wirelength_estimate+0x9b>
    73d8:	00 
    73d9:	f2 0f 59 c1          	mulsd  %xmm1,%xmm0
    73dd:	f2 0f 10 0d 00 00 00 	movsd  0x0(%rip),%xmm1        # 73e5 <get_net_wirelength_estimate+0xa7>
    73e4:	00 
    73e5:	f2 0f 58 c1          	addsd  %xmm1,%xmm0
    73e9:	f2 0f 11 45 f8       	movsd  %xmm0,-0x8(%rbp)
    73ee:	e9 24 01 00 00       	jmpq   7517 <get_net_wirelength_estimate+0x1d9>
    73f3:	48 8b 0d 00 00 00 00 	mov    0x0(%rip),%rcx        # 73fa <get_net_wirelength_estimate+0xbc>
    73fa:	8b 45 ec             	mov    -0x14(%rbp),%eax
    73fd:	48 63 d0             	movslq %eax,%rdx
    7400:	48 89 d0             	mov    %rdx,%rax
    7403:	48 c1 e0 02          	shl    $0x2,%rax
    7407:	48 01 d0             	add    %rdx,%rax
    740a:	48 c1 e0 03          	shl    $0x3,%rax
    740e:	48 01 c8             	add    %rcx,%rax
    7411:	8b 40 08             	mov    0x8(%rax),%eax
    7414:	83 c0 01             	add    $0x1,%eax
    7417:	83 f8 54             	cmp    $0x54,%eax
    741a:	0f 8e b7 00 00 00    	jle    74d7 <get_net_wirelength_estimate+0x199>
    7420:	48 8b 0d 00 00 00 00 	mov    0x0(%rip),%rcx        # 7427 <get_net_wirelength_estimate+0xe9>
    7427:	8b 45 ec             	mov    -0x14(%rbp),%eax
    742a:	48 63 d0             	movslq %eax,%rdx
    742d:	48 89 d0             	mov    %rdx,%rax
    7430:	48 c1 e0 02          	shl    $0x2,%rax
    7434:	48 01 d0             	add    %rdx,%rax
    7437:	48 c1 e0 03          	shl    $0x3,%rax
    743b:	48 01 c8             	add    %rcx,%rax
    743e:	8b 40 08             	mov    0x8(%rax),%eax
    7441:	83 c0 01             	add    $0x1,%eax
    7444:	66 0f ef c0          	pxor   %xmm0,%xmm0
    7448:	f2 0f 2a c0          	cvtsi2sd %eax,%xmm0
    744c:	f2 0f 10 0d 00 00 00 	movsd  0x0(%rip),%xmm1        # 7454 <get_net_wirelength_estimate+0x116>
    7453:	00 
    7454:	f2 0f 59 c1          	mulsd  %xmm1,%xmm0
    7458:	f2 0f 10 0d 00 00 00 	movsd  0x0(%rip),%xmm1        # 7460 <get_net_wirelength_estimate+0x122>
    745f:	00 
    7460:	f2 0f 58 c1          	addsd  %xmm1,%xmm0
    7464:	48 8b 0d 00 00 00 00 	mov    0x0(%rip),%rcx        # 746b <get_net_wirelength_estimate+0x12d>
    746b:	8b 45 ec             	mov    -0x14(%rbp),%eax
    746e:	48 63 d0             	movslq %eax,%rdx
    7471:	48 89 d0             	mov    %rdx,%rax
    7474:	48 c1 e0 02          	shl    $0x2,%rax
    7478:	48 01 d0             	add    %rdx,%rax
    747b:	48 c1 e0 03          	shl    $0x3,%rax
    747f:	48 01 c8             	add    %rcx,%rax
    7482:	8b 40 08             	mov    0x8(%rax),%eax
    7485:	83 c0 01             	add    $0x1,%eax
    7488:	66 0f ef c9          	pxor   %xmm1,%xmm1
    748c:	f2 0f 2a c8          	cvtsi2sd %eax,%xmm1
    7490:	f2 0f 10 15 00 00 00 	movsd  0x0(%rip),%xmm2        # 7498 <get_net_wirelength_estimate+0x15a>
    7497:	00 
    7498:	f2 0f 59 d1          	mulsd  %xmm1,%xmm2
    749c:	48 8b 0d 00 00 00 00 	mov    0x0(%rip),%rcx        # 74a3 <get_net_wirelength_estimate+0x165>
    74a3:	8b 45 ec             	mov    -0x14(%rbp),%eax
    74a6:	48 63 d0             	movslq %eax,%rdx
    74a9:	48 89 d0             	mov    %rdx,%rax
    74ac:	48 c1 e0 02          	shl    $0x2,%rax
    74b0:	48 01 d0             	add    %rdx,%rax
    74b3:	48 c1 e0 03          	shl    $0x3,%rax
    74b7:	48 01 c8             	add    %rcx,%rax
    74ba:	8b 40 08             	mov    0x8(%rax),%eax
    74bd:	83 c0 01             	add    $0x1,%eax
    74c0:	66 0f ef c9          	pxor   %xmm1,%xmm1
    74c4:	f2 0f 2a c8          	cvtsi2sd %eax,%xmm1
    74c8:	f2 0f 59 ca          	mulsd  %xmm2,%xmm1
    74cc:	f2 0f 5c c1          	subsd  %xmm1,%xmm0
    74d0:	f2 0f 11 45 f8       	movsd  %xmm0,-0x8(%rbp)
    74d5:	eb 40                	jmp    7517 <get_net_wirelength_estimate+0x1d9>
    74d7:	48 8b 0d 00 00 00 00 	mov    0x0(%rip),%rcx        # 74de <get_net_wirelength_estimate+0x1a0>
    74de:	8b 45 ec             	mov    -0x14(%rbp),%eax
    74e1:	48 63 d0             	movslq %eax,%rdx
    74e4:	48 89 d0             	mov    %rdx,%rax
    74e7:	48 c1 e0 02          	shl    $0x2,%rax
    74eb:	48 01 d0             	add    %rdx,%rax
    74ee:	48 c1 e0 03          	shl    $0x3,%rax
    74f2:	48 01 c8             	add    %rcx,%rax
    74f5:	8b 40 08             	mov    0x8(%rax),%eax
    74f8:	48 98                	cltq   
    74fa:	48 8d 14 85 00 00 00 	lea    0x0(,%rax,4),%rdx
    7501:	00 
    7502:	48 8d 05 00 00 00 00 	lea    0x0(%rip),%rax        # 7509 <get_net_wirelength_estimate+0x1cb>
    7509:	f3 0f 10 04 02       	movss  (%rdx,%rax,1),%xmm0
    750e:	f3 0f 5a d8          	cvtss2sd %xmm0,%xmm3
    7512:	f2 0f 11 5d f8       	movsd  %xmm3,-0x8(%rbp)
    7517:	48 8b 45 e0          	mov    -0x20(%rbp),%rax
    751b:	8b 50 04             	mov    0x4(%rax),%edx
    751e:	48 8b 45 e0          	mov    -0x20(%rbp),%rax
    7522:	8b 00                	mov    (%rax),%eax
    7524:	29 c2                	sub    %eax,%edx
    7526:	89 d0                	mov    %edx,%eax
    7528:	83 c0 01             	add    $0x1,%eax
    752b:	66 0f ef c0          	pxor   %xmm0,%xmm0
    752f:	f2 0f 2a c0          	cvtsi2sd %eax,%xmm0
    7533:	f2 0f 59 45 f8       	mulsd  -0x8(%rbp),%xmm0
    7538:	f2 0f 11 45 f0       	movsd  %xmm0,-0x10(%rbp)
    753d:	48 8b 45 e0          	mov    -0x20(%rbp),%rax
    7541:	8b 50 0c             	mov    0xc(%rax),%edx
    7544:	48 8b 45 e0          	mov    -0x20(%rbp),%rax
    7548:	8b 40 08             	mov    0x8(%rax),%eax
    754b:	29 c2                	sub    %eax,%edx
    754d:	89 d0                	mov    %edx,%eax
    754f:	83 c0 01             	add    $0x1,%eax
    7552:	66 0f ef c0          	pxor   %xmm0,%xmm0
    7556:	f2 0f 2a c0          	cvtsi2sd %eax,%xmm0
    755a:	f2 0f 59 45 f8       	mulsd  -0x8(%rbp),%xmm0
    755f:	f2 0f 10 4d f0       	movsd  -0x10(%rbp),%xmm1
    7564:	f2 0f 58 c1          	addsd  %xmm1,%xmm0
    7568:	f2 0f 11 45 f0       	movsd  %xmm0,-0x10(%rbp)
    756d:	f2 0f 10 45 f0       	movsd  -0x10(%rbp),%xmm0
    7572:	c9                   	leaveq 
    7573:	c3                   	retq   

0000000000007574 <get_net_cost>:
    7574:	55                   	push   %rbp
    7575:	48 89 e5             	mov    %rsp,%rbp
    7578:	48 83 ec 20          	sub    $0x20,%rsp
    757c:	ff 15 00 00 00 00    	callq  *0x0(%rip)        # 7582 <get_net_cost+0xe>
    7582:	89 7d ec             	mov    %edi,-0x14(%rbp)
    7585:	48 89 75 e0          	mov    %rsi,-0x20(%rbp)
    7589:	48 8b 0d 00 00 00 00 	mov    0x0(%rip),%rcx        # 7590 <get_net_cost+0x1c>
    7590:	8b 45 ec             	mov    -0x14(%rbp),%eax
    7593:	48 63 d0             	movslq %eax,%rdx
    7596:	48 89 d0             	mov    %rdx,%rax
    7599:	48 c1 e0 02          	shl    $0x2,%rax
    759d:	48 01 d0             	add    %rdx,%rax
    75a0:	48 c1 e0 03          	shl    $0x3,%rax
    75a4:	48 01 c8             	add    %rcx,%rax
    75a7:	8b 40 08             	mov    0x8(%rax),%eax
    75aa:	83 c0 01             	add    $0x1,%eax
    75ad:	83 f8 32             	cmp    $0x32,%eax
    75b0:	7e 4f                	jle    7601 <get_net_cost+0x8d>
    75b2:	48 8b 0d 00 00 00 00 	mov    0x0(%rip),%rcx        # 75b9 <get_net_cost+0x45>
    75b9:	8b 45 ec             	mov    -0x14(%rbp),%eax
    75bc:	48 63 d0             	movslq %eax,%rdx
    75bf:	48 89 d0             	mov    %rdx,%rax
    75c2:	48 c1 e0 02          	shl    $0x2,%rax
    75c6:	48 01 d0             	add    %rdx,%rax
    75c9:	48 c1 e0 03          	shl    $0x3,%rax
    75cd:	48 01 c8             	add    %rcx,%rax
    75d0:	8b 40 08             	mov    0x8(%rax),%eax
    75d3:	83 e8 31             	sub    $0x31,%eax
    75d6:	66 0f ef c0          	pxor   %xmm0,%xmm0
    75da:	f2 0f 2a c0          	cvtsi2sd %eax,%xmm0
    75de:	f2 0f 10 0d 00 00 00 	movsd  0x0(%rip),%xmm1        # 75e6 <get_net_cost+0x72>
    75e5:	00 
    75e6:	f2 0f 59 c1          	mulsd  %xmm1,%xmm0
    75ea:	f2 0f 10 0d 00 00 00 	movsd  0x0(%rip),%xmm1        # 75f2 <get_net_cost+0x7e>
    75f1:	00 
    75f2:	f2 0f 58 c1          	addsd  %xmm1,%xmm0
    75f6:	f2 0f 5a d0          	cvtsd2ss %xmm0,%xmm2
    75fa:	f3 0f 11 55 fc       	movss  %xmm2,-0x4(%rbp)
    75ff:	eb 3c                	jmp    763d <get_net_cost+0xc9>
    7601:	48 8b 0d 00 00 00 00 	mov    0x0(%rip),%rcx        # 7608 <get_net_cost+0x94>
    7608:	8b 45 ec             	mov    -0x14(%rbp),%eax
    760b:	48 63 d0             	movslq %eax,%rdx
    760e:	48 89 d0             	mov    %rdx,%rax
    7611:	48 c1 e0 02          	shl    $0x2,%rax
    7615:	48 01 d0             	add    %rdx,%rax
    7618:	48 c1 e0 03          	shl    $0x3,%rax
    761c:	48 01 c8             	add    %rcx,%rax
    761f:	8b 40 08             	mov    0x8(%rax),%eax
    7622:	48 98                	cltq   
    7624:	48 8d 14 85 00 00 00 	lea    0x0(,%rax,4),%rdx
    762b:	00 
    762c:	48 8d 05 00 00 00 00 	lea    0x0(%rip),%rax        # 7633 <get_net_cost+0xbf>
    7633:	f3 0f 10 04 02       	movss  (%rdx,%rax,1),%xmm0
    7638:	f3 0f 11 45 fc       	movss  %xmm0,-0x4(%rbp)
    763d:	48 8b 45 e0          	mov    -0x20(%rbp),%rax
    7641:	8b 50 04             	mov    0x4(%rax),%edx
    7644:	48 8b 45 e0          	mov    -0x20(%rbp),%rax
    7648:	8b 00                	mov    (%rax),%eax
    764a:	29 c2                	sub    %eax,%edx
    764c:	89 d0                	mov    %edx,%eax
    764e:	83 c0 01             	add    $0x1,%eax
    7651:	66 0f ef c0          	pxor   %xmm0,%xmm0
    7655:	f3 0f 2a c0          	cvtsi2ss %eax,%xmm0
    7659:	f3 0f 59 45 fc       	mulss  -0x4(%rbp),%xmm0
    765e:	48 8b 15 00 00 00 00 	mov    0x0(%rip),%rdx        # 7665 <get_net_cost+0xf1>
    7665:	48 8b 45 e0          	mov    -0x20(%rbp),%rax
    7669:	8b 40 0c             	mov    0xc(%rax),%eax
    766c:	48 98                	cltq   
    766e:	48 c1 e0 03          	shl    $0x3,%rax
    7672:	48 01 d0             	add    %rdx,%rax
    7675:	48 8b 10             	mov    (%rax),%rdx
    7678:	48 8b 45 e0          	mov    -0x20(%rbp),%rax
    767c:	8b 40 08             	mov    0x8(%rax),%eax
    767f:	48 98                	cltq   
    7681:	48 c1 e0 02          	shl    $0x2,%rax
    7685:	48 83 e8 04          	sub    $0x4,%rax
    7689:	48 01 d0             	add    %rdx,%rax
    768c:	f3 0f 10 08          	movss  (%rax),%xmm1
    7690:	f3 0f 59 c1          	mulss  %xmm1,%xmm0
    7694:	f3 0f 11 45 f8       	movss  %xmm0,-0x8(%rbp)
    7699:	48 8b 45 e0          	mov    -0x20(%rbp),%rax
    769d:	8b 50 0c             	mov    0xc(%rax),%edx
    76a0:	48 8b 45 e0          	mov    -0x20(%rbp),%rax
    76a4:	8b 40 08             	mov    0x8(%rax),%eax
    76a7:	29 c2                	sub    %eax,%edx
    76a9:	89 d0                	mov    %edx,%eax
    76ab:	83 c0 01             	add    $0x1,%eax
    76ae:	66 0f ef c0          	pxor   %xmm0,%xmm0
    76b2:	f3 0f 2a c0          	cvtsi2ss %eax,%xmm0
    76b6:	f3 0f 59 45 fc       	mulss  -0x4(%rbp),%xmm0
    76bb:	48 8b 15 00 00 00 00 	mov    0x0(%rip),%rdx        # 76c2 <get_net_cost+0x14e>
    76c2:	48 8b 45 e0          	mov    -0x20(%rbp),%rax
    76c6:	8b 40 04             	mov    0x4(%rax),%eax
    76c9:	48 98                	cltq   
    76cb:	48 c1 e0 03          	shl    $0x3,%rax
    76cf:	48 01 d0             	add    %rdx,%rax
    76d2:	48 8b 10             	mov    (%rax),%rdx
    76d5:	48 8b 45 e0          	mov    -0x20(%rbp),%rax
    76d9:	8b 00                	mov    (%rax),%eax
    76db:	48 98                	cltq   
    76dd:	48 c1 e0 02          	shl    $0x2,%rax
    76e1:	48 83 e8 04          	sub    $0x4,%rax
    76e5:	48 01 d0             	add    %rdx,%rax
    76e8:	f3 0f 10 08          	movss  (%rax),%xmm1
    76ec:	f3 0f 59 c1          	mulss  %xmm1,%xmm0
    76f0:	f3 0f 10 4d f8       	movss  -0x8(%rbp),%xmm1
    76f5:	f3 0f 58 c1          	addss  %xmm1,%xmm0
    76f9:	f3 0f 11 45 f8       	movss  %xmm0,-0x8(%rbp)
    76fe:	f3 0f 10 45 f8       	movss  -0x8(%rbp),%xmm0
    7703:	c9                   	leaveq 
    7704:	c3                   	retq   

0000000000007705 <get_non_updateable_bb>:
    7705:	55                   	push   %rbp
    7706:	48 89 e5             	mov    %rsp,%rbp
    7709:	48 83 ec 30          	sub    $0x30,%rsp
    770d:	ff 15 00 00 00 00    	callq  *0x0(%rip)        # 7713 <get_non_updateable_bb+0xe>
    7713:	89 7d dc             	mov    %edi,-0x24(%rbp)
    7716:	48 89 75 d0          	mov    %rsi,-0x30(%rbp)
    771a:	48 8b 0d 00 00 00 00 	mov    0x0(%rip),%rcx        # 7721 <get_non_updateable_bb+0x1c>
    7721:	48 8b 35 00 00 00 00 	mov    0x0(%rip),%rsi        # 7728 <get_non_updateable_bb+0x23>
    7728:	8b 45 dc             	mov    -0x24(%rbp),%eax
    772b:	48 63 d0             	movslq %eax,%rdx
    772e:	48 89 d0             	mov    %rdx,%rax
    7731:	48 c1 e0 02          	shl    $0x2,%rax
    7735:	48 01 d0             	add    %rdx,%rax
    7738:	48 c1 e0 03          	shl    $0x3,%rax
    773c:	48 01 f0             	add    %rsi,%rax
    773f:	48 8b 40 10          	mov    0x10(%rax),%rax
    7743:	8b 00                	mov    (%rax),%eax
    7745:	48 63 d0             	movslq %eax,%rdx
    7748:	48 89 d0             	mov    %rdx,%rax
    774b:	48 c1 e0 02          	shl    $0x2,%rax
    774f:	48 01 d0             	add    %rdx,%rax
    7752:	48 c1 e0 03          	shl    $0x3,%rax
    7756:	48 01 c8             	add    %rcx,%rax
    7759:	8b 40 18             	mov    0x18(%rax),%eax
    775c:	89 45 e8             	mov    %eax,-0x18(%rbp)
    775f:	48 8b 0d 00 00 00 00 	mov    0x0(%rip),%rcx        # 7766 <get_non_updateable_bb+0x61>
    7766:	48 8b 35 00 00 00 00 	mov    0x0(%rip),%rsi        # 776d <get_non_updateable_bb+0x68>
    776d:	8b 45 dc             	mov    -0x24(%rbp),%eax
    7770:	48 63 d0             	movslq %eax,%rdx
    7773:	48 89 d0             	mov    %rdx,%rax
    7776:	48 c1 e0 02          	shl    $0x2,%rax
    777a:	48 01 d0             	add    %rdx,%rax
    777d:	48 c1 e0 03          	shl    $0x3,%rax
    7781:	48 01 f0             	add    %rsi,%rax
    7784:	48 8b 40 10          	mov    0x10(%rax),%rax
    7788:	8b 00                	mov    (%rax),%eax
    778a:	48 63 d0             	movslq %eax,%rdx
    778d:	48 89 d0             	mov    %rdx,%rax
    7790:	48 c1 e0 02          	shl    $0x2,%rax
    7794:	48 01 d0             	add    %rdx,%rax
    7797:	48 c1 e0 03          	shl    $0x3,%rax
    779b:	48 01 c8             	add    %rcx,%rax
    779e:	8b 40 1c             	mov    0x1c(%rax),%eax
    77a1:	89 45 e4             	mov    %eax,-0x1c(%rbp)
    77a4:	8b 45 e8             	mov    -0x18(%rbp),%eax
    77a7:	89 45 f0             	mov    %eax,-0x10(%rbp)
    77aa:	8b 45 e4             	mov    -0x1c(%rbp),%eax
    77ad:	89 45 ec             	mov    %eax,-0x14(%rbp)
    77b0:	8b 45 e8             	mov    -0x18(%rbp),%eax
    77b3:	89 45 f8             	mov    %eax,-0x8(%rbp)
    77b6:	8b 45 e4             	mov    -0x1c(%rbp),%eax
    77b9:	89 45 f4             	mov    %eax,-0xc(%rbp)
    77bc:	c7 45 fc 01 00 00 00 	movl   $0x1,-0x4(%rbp)
    77c3:	e9 e4 00 00 00       	jmpq   78ac <get_non_updateable_bb+0x1a7>
    77c8:	48 8b 0d 00 00 00 00 	mov    0x0(%rip),%rcx        # 77cf <get_non_updateable_bb+0xca>
    77cf:	48 8b 35 00 00 00 00 	mov    0x0(%rip),%rsi        # 77d6 <get_non_updateable_bb+0xd1>
    77d6:	8b 45 dc             	mov    -0x24(%rbp),%eax
    77d9:	48 63 d0             	movslq %eax,%rdx
    77dc:	48 89 d0             	mov    %rdx,%rax
    77df:	48 c1 e0 02          	shl    $0x2,%rax
    77e3:	48 01 d0             	add    %rdx,%rax
    77e6:	48 c1 e0 03          	shl    $0x3,%rax
    77ea:	48 01 f0             	add    %rsi,%rax
    77ed:	48 8b 40 10          	mov    0x10(%rax),%rax
    77f1:	8b 55 fc             	mov    -0x4(%rbp),%edx
    77f4:	48 63 d2             	movslq %edx,%rdx
    77f7:	48 c1 e2 02          	shl    $0x2,%rdx
    77fb:	48 01 d0             	add    %rdx,%rax
    77fe:	8b 00                	mov    (%rax),%eax
    7800:	48 63 d0             	movslq %eax,%rdx
    7803:	48 89 d0             	mov    %rdx,%rax
    7806:	48 c1 e0 02          	shl    $0x2,%rax
    780a:	48 01 d0             	add    %rdx,%rax
    780d:	48 c1 e0 03          	shl    $0x3,%rax
    7811:	48 01 c8             	add    %rcx,%rax
    7814:	8b 40 18             	mov    0x18(%rax),%eax
    7817:	89 45 e8             	mov    %eax,-0x18(%rbp)
    781a:	48 8b 0d 00 00 00 00 	mov    0x0(%rip),%rcx        # 7821 <get_non_updateable_bb+0x11c>
    7821:	48 8b 35 00 00 00 00 	mov    0x0(%rip),%rsi        # 7828 <get_non_updateable_bb+0x123>
    7828:	8b 45 dc             	mov    -0x24(%rbp),%eax
    782b:	48 63 d0             	movslq %eax,%rdx
    782e:	48 89 d0             	mov    %rdx,%rax
    7831:	48 c1 e0 02          	shl    $0x2,%rax
    7835:	48 01 d0             	add    %rdx,%rax
    7838:	48 c1 e0 03          	shl    $0x3,%rax
    783c:	48 01 f0             	add    %rsi,%rax
    783f:	48 8b 40 10          	mov    0x10(%rax),%rax
    7843:	8b 55 fc             	mov    -0x4(%rbp),%edx
    7846:	48 63 d2             	movslq %edx,%rdx
    7849:	48 c1 e2 02          	shl    $0x2,%rdx
    784d:	48 01 d0             	add    %rdx,%rax
    7850:	8b 00                	mov    (%rax),%eax
    7852:	48 63 d0             	movslq %eax,%rdx
    7855:	48 89 d0             	mov    %rdx,%rax
    7858:	48 c1 e0 02          	shl    $0x2,%rax
    785c:	48 01 d0             	add    %rdx,%rax
    785f:	48 c1 e0 03          	shl    $0x3,%rax
    7863:	48 01 c8             	add    %rcx,%rax
    7866:	8b 40 1c             	mov    0x1c(%rax),%eax
    7869:	89 45 e4             	mov    %eax,-0x1c(%rbp)
    786c:	8b 45 e8             	mov    -0x18(%rbp),%eax
    786f:	3b 45 f0             	cmp    -0x10(%rbp),%eax
    7872:	7d 08                	jge    787c <get_non_updateable_bb+0x177>
    7874:	8b 45 e8             	mov    -0x18(%rbp),%eax
    7877:	89 45 f0             	mov    %eax,-0x10(%rbp)
    787a:	eb 0e                	jmp    788a <get_non_updateable_bb+0x185>
    787c:	8b 45 e8             	mov    -0x18(%rbp),%eax
    787f:	3b 45 f8             	cmp    -0x8(%rbp),%eax
    7882:	7e 06                	jle    788a <get_non_updateable_bb+0x185>
    7884:	8b 45 e8             	mov    -0x18(%rbp),%eax
    7887:	89 45 f8             	mov    %eax,-0x8(%rbp)
    788a:	8b 45 e4             	mov    -0x1c(%rbp),%eax
    788d:	3b 45 ec             	cmp    -0x14(%rbp),%eax
    7890:	7d 08                	jge    789a <get_non_updateable_bb+0x195>
    7892:	8b 45 e4             	mov    -0x1c(%rbp),%eax
    7895:	89 45 ec             	mov    %eax,-0x14(%rbp)
    7898:	eb 0e                	jmp    78a8 <get_non_updateable_bb+0x1a3>
    789a:	8b 45 e4             	mov    -0x1c(%rbp),%eax
    789d:	3b 45 f4             	cmp    -0xc(%rbp),%eax
    78a0:	7e 06                	jle    78a8 <get_non_updateable_bb+0x1a3>
    78a2:	8b 45 e4             	mov    -0x1c(%rbp),%eax
    78a5:	89 45 f4             	mov    %eax,-0xc(%rbp)
    78a8:	83 45 fc 01          	addl   $0x1,-0x4(%rbp)
    78ac:	48 8b 0d 00 00 00 00 	mov    0x0(%rip),%rcx        # 78b3 <get_non_updateable_bb+0x1ae>
    78b3:	8b 45 dc             	mov    -0x24(%rbp),%eax
    78b6:	48 63 d0             	movslq %eax,%rdx
    78b9:	48 89 d0             	mov    %rdx,%rax
    78bc:	48 c1 e0 02          	shl    $0x2,%rax
    78c0:	48 01 d0             	add    %rdx,%rax
    78c3:	48 c1 e0 03          	shl    $0x3,%rax
    78c7:	48 01 c8             	add    %rcx,%rax
    78ca:	8b 40 08             	mov    0x8(%rax),%eax
    78cd:	83 c0 01             	add    $0x1,%eax
    78d0:	3b 45 fc             	cmp    -0x4(%rbp),%eax
    78d3:	0f 8f ef fe ff ff    	jg     77c8 <get_non_updateable_bb+0xc3>
    78d9:	8b 05 00 00 00 00    	mov    0x0(%rip),%eax        # 78df <get_non_updateable_bb+0x1da>
    78df:	39 45 f0             	cmp    %eax,-0x10(%rbp)
    78e2:	0f 4e 45 f0          	cmovle -0x10(%rbp),%eax
    78e6:	ba 01 00 00 00       	mov    $0x1,%edx
    78eb:	85 c0                	test   %eax,%eax
    78ed:	0f 4f d0             	cmovg  %eax,%edx
    78f0:	48 8b 45 d0          	mov    -0x30(%rbp),%rax
    78f4:	89 10                	mov    %edx,(%rax)
    78f6:	8b 05 00 00 00 00    	mov    0x0(%rip),%eax        # 78fc <get_non_updateable_bb+0x1f7>
    78fc:	39 45 ec             	cmp    %eax,-0x14(%rbp)
    78ff:	0f 4e 45 ec          	cmovle -0x14(%rbp),%eax
    7903:	ba 01 00 00 00       	mov    $0x1,%edx
    7908:	85 c0                	test   %eax,%eax
    790a:	0f 4f d0             	cmovg  %eax,%edx
    790d:	48 8b 45 d0          	mov    -0x30(%rbp),%rax
    7911:	89 50 08             	mov    %edx,0x8(%rax)
    7914:	8b 05 00 00 00 00    	mov    0x0(%rip),%eax        # 791a <get_non_updateable_bb+0x215>
    791a:	39 45 f8             	cmp    %eax,-0x8(%rbp)
    791d:	0f 4e 45 f8          	cmovle -0x8(%rbp),%eax
    7921:	ba 01 00 00 00       	mov    $0x1,%edx
    7926:	85 c0                	test   %eax,%eax
    7928:	0f 4f d0             	cmovg  %eax,%edx
    792b:	48 8b 45 d0          	mov    -0x30(%rbp),%rax
    792f:	89 50 04             	mov    %edx,0x4(%rax)
    7932:	8b 05 00 00 00 00    	mov    0x0(%rip),%eax        # 7938 <get_non_updateable_bb+0x233>
    7938:	39 45 f4             	cmp    %eax,-0xc(%rbp)
    793b:	0f 4e 45 f4          	cmovle -0xc(%rbp),%eax
    793f:	ba 01 00 00 00       	mov    $0x1,%edx
    7944:	85 c0                	test   %eax,%eax
    7946:	0f 4f d0             	cmovg  %eax,%edx
    7949:	48 8b 45 d0          	mov    -0x30(%rbp),%rax
    794d:	89 50 0c             	mov    %edx,0xc(%rax)
    7950:	90                   	nop
    7951:	c9                   	leaveq 
    7952:	c3                   	retq   

0000000000007953 <update_bb>:
    7953:	55                   	push   %rbp
    7954:	48 89 e5             	mov    %rsp,%rbp
    7957:	48 83 ec 20          	sub    $0x20,%rsp
    795b:	ff 15 00 00 00 00    	callq  *0x0(%rip)        # 7961 <update_bb+0xe>
    7961:	89 7d fc             	mov    %edi,-0x4(%rbp)
    7964:	48 89 75 f0          	mov    %rsi,-0x10(%rbp)
    7968:	48 89 55 e8          	mov    %rdx,-0x18(%rbp)
    796c:	89 4d f8             	mov    %ecx,-0x8(%rbp)
    796f:	44 89 45 e4          	mov    %r8d,-0x1c(%rbp)
    7973:	44 89 4d e0          	mov    %r9d,-0x20(%rbp)
    7977:	8b 05 00 00 00 00    	mov    0x0(%rip),%eax        # 797d <update_bb+0x2a>
    797d:	39 45 e0             	cmp    %eax,-0x20(%rbp)
    7980:	0f 4e 45 e0          	cmovle -0x20(%rbp),%eax
    7984:	ba 01 00 00 00       	mov    $0x1,%edx
    7989:	85 c0                	test   %eax,%eax
    798b:	0f 4e c2             	cmovle %edx,%eax
    798e:	89 45 e0             	mov    %eax,-0x20(%rbp)
    7991:	8b 05 00 00 00 00    	mov    0x0(%rip),%eax        # 7997 <update_bb+0x44>
    7997:	39 45 10             	cmp    %eax,0x10(%rbp)
    799a:	0f 4e 45 10          	cmovle 0x10(%rbp),%eax
    799e:	ba 01 00 00 00       	mov    $0x1,%edx
    79a3:	85 c0                	test   %eax,%eax
    79a5:	0f 4e c2             	cmovle %edx,%eax
    79a8:	89 45 10             	mov    %eax,0x10(%rbp)
    79ab:	8b 05 00 00 00 00    	mov    0x0(%rip),%eax        # 79b1 <update_bb+0x5e>
    79b1:	39 45 f8             	cmp    %eax,-0x8(%rbp)
    79b4:	0f 4e 45 f8          	cmovle -0x8(%rbp),%eax
    79b8:	ba 01 00 00 00       	mov    $0x1,%edx
    79bd:	85 c0                	test   %eax,%eax
    79bf:	0f 4e c2             	cmovle %edx,%eax
    79c2:	89 45 f8             	mov    %eax,-0x8(%rbp)
    79c5:	8b 05 00 00 00 00    	mov    0x0(%rip),%eax        # 79cb <update_bb+0x78>
    79cb:	39 45 e4             	cmp    %eax,-0x1c(%rbp)
    79ce:	0f 4e 45 e4          	cmovle -0x1c(%rbp),%eax
    79d2:	ba 01 00 00 00       	mov    $0x1,%edx
    79d7:	85 c0                	test   %eax,%eax
    79d9:	0f 4e c2             	cmovle %edx,%eax
    79dc:	89 45 e4             	mov    %eax,-0x1c(%rbp)
    79df:	8b 45 e0             	mov    -0x20(%rbp),%eax
    79e2:	3b 45 f8             	cmp    -0x8(%rbp),%eax
    79e5:	0f 8d 87 01 00 00    	jge    7b72 <update_bb+0x21f>
    79eb:	48 8b 05 00 00 00 00 	mov    0x0(%rip),%rax        # 79f2 <update_bb+0x9f>
    79f2:	8b 55 fc             	mov    -0x4(%rbp),%edx
    79f5:	48 63 d2             	movslq %edx,%rdx
    79f8:	48 c1 e2 04          	shl    $0x4,%rdx
    79fc:	48 01 d0             	add    %rdx,%rax
    79ff:	8b 40 04             	mov    0x4(%rax),%eax
    7a02:	3b 45 f8             	cmp    -0x8(%rbp),%eax
    7a05:	75 77                	jne    7a7e <update_bb+0x12b>
    7a07:	48 8b 05 00 00 00 00 	mov    0x0(%rip),%rax        # 7a0e <update_bb+0xbb>
    7a0e:	8b 55 fc             	mov    -0x4(%rbp),%edx
    7a11:	48 63 d2             	movslq %edx,%rdx
    7a14:	48 c1 e2 04          	shl    $0x4,%rdx
    7a18:	48 01 d0             	add    %rdx,%rax
    7a1b:	8b 40 04             	mov    0x4(%rax),%eax
    7a1e:	83 f8 01             	cmp    $0x1,%eax
    7a21:	75 1a                	jne    7a3d <update_bb+0xea>
    7a23:	48 8b 55 e8          	mov    -0x18(%rbp),%rdx
    7a27:	48 8b 4d f0          	mov    -0x10(%rbp),%rcx
    7a2b:	8b 45 fc             	mov    -0x4(%rbp),%eax
    7a2e:	48 89 ce             	mov    %rcx,%rsi
    7a31:	89 c7                	mov    %eax,%edi
    7a33:	e8 e4 f5 ff ff       	callq  701c <get_bb_from_scratch>
    7a38:	e9 eb 06 00 00       	jmpq   8128 <update_bb+0x7d5>
    7a3d:	48 8b 05 00 00 00 00 	mov    0x0(%rip),%rax        # 7a44 <update_bb+0xf1>
    7a44:	8b 55 fc             	mov    -0x4(%rbp),%edx
    7a47:	48 63 d2             	movslq %edx,%rdx
    7a4a:	48 c1 e2 04          	shl    $0x4,%rdx
    7a4e:	48 01 d0             	add    %rdx,%rax
    7a51:	8b 40 04             	mov    0x4(%rax),%eax
    7a54:	8d 50 ff             	lea    -0x1(%rax),%edx
    7a57:	48 8b 45 e8          	mov    -0x18(%rbp),%rax
    7a5b:	89 50 04             	mov    %edx,0x4(%rax)
    7a5e:	48 8b 05 00 00 00 00 	mov    0x0(%rip),%rax        # 7a65 <update_bb+0x112>
    7a65:	8b 55 fc             	mov    -0x4(%rbp),%edx
    7a68:	48 63 d2             	movslq %edx,%rdx
    7a6b:	48 c1 e2 04          	shl    $0x4,%rdx
    7a6f:	48 01 d0             	add    %rdx,%rax
    7a72:	8b 50 04             	mov    0x4(%rax),%edx
    7a75:	48 8b 45 f0          	mov    -0x10(%rbp),%rax
    7a79:	89 50 04             	mov    %edx,0x4(%rax)
    7a7c:	eb 3c                	jmp    7aba <update_bb+0x167>
    7a7e:	48 8b 05 00 00 00 00 	mov    0x0(%rip),%rax        # 7a85 <update_bb+0x132>
    7a85:	8b 55 fc             	mov    -0x4(%rbp),%edx
    7a88:	48 63 d2             	movslq %edx,%rdx
    7a8b:	48 c1 e2 04          	shl    $0x4,%rdx
    7a8f:	48 01 d0             	add    %rdx,%rax
    7a92:	8b 50 04             	mov    0x4(%rax),%edx
    7a95:	48 8b 45 f0          	mov    -0x10(%rbp),%rax
    7a99:	89 50 04             	mov    %edx,0x4(%rax)
    7a9c:	48 8b 05 00 00 00 00 	mov    0x0(%rip),%rax        # 7aa3 <update_bb+0x150>
    7aa3:	8b 55 fc             	mov    -0x4(%rbp),%edx
    7aa6:	48 63 d2             	movslq %edx,%rdx
    7aa9:	48 c1 e2 04          	shl    $0x4,%rdx
    7aad:	48 01 d0             	add    %rdx,%rax
    7ab0:	8b 50 04             	mov    0x4(%rax),%edx
    7ab3:	48 8b 45 e8          	mov    -0x18(%rbp),%rax
    7ab7:	89 50 04             	mov    %edx,0x4(%rax)
    7aba:	48 8b 05 00 00 00 00 	mov    0x0(%rip),%rax        # 7ac1 <update_bb+0x16e>
    7ac1:	8b 55 fc             	mov    -0x4(%rbp),%edx
    7ac4:	48 63 d2             	movslq %edx,%rdx
    7ac7:	48 c1 e2 04          	shl    $0x4,%rdx
    7acb:	48 01 d0             	add    %rdx,%rax
    7ace:	8b 00                	mov    (%rax),%eax
    7ad0:	3b 45 e0             	cmp    -0x20(%rbp),%eax
    7ad3:	7e 18                	jle    7aed <update_bb+0x19a>
    7ad5:	48 8b 45 f0          	mov    -0x10(%rbp),%rax
    7ad9:	8b 55 e0             	mov    -0x20(%rbp),%edx
    7adc:	89 10                	mov    %edx,(%rax)
    7ade:	48 8b 45 e8          	mov    -0x18(%rbp),%rax
    7ae2:	c7 00 01 00 00 00    	movl   $0x1,(%rax)
    7ae8:	e9 8a 02 00 00       	jmpq   7d77 <update_bb+0x424>
    7aed:	48 8b 05 00 00 00 00 	mov    0x0(%rip),%rax        # 7af4 <update_bb+0x1a1>
    7af4:	8b 55 fc             	mov    -0x4(%rbp),%edx
    7af7:	48 63 d2             	movslq %edx,%rdx
    7afa:	48 c1 e2 04          	shl    $0x4,%rdx
    7afe:	48 01 d0             	add    %rdx,%rax
    7b01:	8b 00                	mov    (%rax),%eax
    7b03:	3b 45 e0             	cmp    -0x20(%rbp),%eax
    7b06:	75 2d                	jne    7b35 <update_bb+0x1e2>
    7b08:	48 8b 45 f0          	mov    -0x10(%rbp),%rax
    7b0c:	8b 55 e0             	mov    -0x20(%rbp),%edx
    7b0f:	89 10                	mov    %edx,(%rax)
    7b11:	48 8b 05 00 00 00 00 	mov    0x0(%rip),%rax        # 7b18 <update_bb+0x1c5>
    7b18:	8b 55 fc             	mov    -0x4(%rbp),%edx
    7b1b:	48 63 d2             	movslq %edx,%rdx
    7b1e:	48 c1 e2 04          	shl    $0x4,%rdx
    7b22:	48 01 d0             	add    %rdx,%rax
    7b25:	8b 00                	mov    (%rax),%eax
    7b27:	8d 50 01             	lea    0x1(%rax),%edx
    7b2a:	48 8b 45 e8          	mov    -0x18(%rbp),%rax
    7b2e:	89 10                	mov    %edx,(%rax)
    7b30:	e9 42 02 00 00       	jmpq   7d77 <update_bb+0x424>
    7b35:	48 8b 05 00 00 00 00 	mov    0x0(%rip),%rax        # 7b3c <update_bb+0x1e9>
    7b3c:	8b 55 fc             	mov    -0x4(%rbp),%edx
    7b3f:	48 63 d2             	movslq %edx,%rdx
    7b42:	48 c1 e2 04          	shl    $0x4,%rdx
    7b46:	48 01 d0             	add    %rdx,%rax
    7b49:	8b 10                	mov    (%rax),%edx
    7b4b:	48 8b 45 f0          	mov    -0x10(%rbp),%rax
    7b4f:	89 10                	mov    %edx,(%rax)
    7b51:	48 8b 05 00 00 00 00 	mov    0x0(%rip),%rax        # 7b58 <update_bb+0x205>
    7b58:	8b 55 fc             	mov    -0x4(%rbp),%edx
    7b5b:	48 63 d2             	movslq %edx,%rdx
    7b5e:	48 c1 e2 04          	shl    $0x4,%rdx
    7b62:	48 01 d0             	add    %rdx,%rax
    7b65:	8b 10                	mov    (%rax),%edx
    7b67:	48 8b 45 e8          	mov    -0x18(%rbp),%rax
    7b6b:	89 10                	mov    %edx,(%rax)
    7b6d:	e9 05 02 00 00       	jmpq   7d77 <update_bb+0x424>
    7b72:	8b 45 e0             	mov    -0x20(%rbp),%eax
    7b75:	3b 45 f8             	cmp    -0x8(%rbp),%eax
    7b78:	0f 8e 85 01 00 00    	jle    7d03 <update_bb+0x3b0>
    7b7e:	48 8b 05 00 00 00 00 	mov    0x0(%rip),%rax        # 7b85 <update_bb+0x232>
    7b85:	8b 55 fc             	mov    -0x4(%rbp),%edx
    7b88:	48 63 d2             	movslq %edx,%rdx
    7b8b:	48 c1 e2 04          	shl    $0x4,%rdx
    7b8f:	48 01 d0             	add    %rdx,%rax
    7b92:	8b 00                	mov    (%rax),%eax
    7b94:	3b 45 f8             	cmp    -0x8(%rbp),%eax
    7b97:	75 72                	jne    7c0b <update_bb+0x2b8>
    7b99:	48 8b 05 00 00 00 00 	mov    0x0(%rip),%rax        # 7ba0 <update_bb+0x24d>
    7ba0:	8b 55 fc             	mov    -0x4(%rbp),%edx
    7ba3:	48 63 d2             	movslq %edx,%rdx
    7ba6:	48 c1 e2 04          	shl    $0x4,%rdx
    7baa:	48 01 d0             	add    %rdx,%rax
    7bad:	8b 00                	mov    (%rax),%eax
    7baf:	83 f8 01             	cmp    $0x1,%eax
    7bb2:	75 1a                	jne    7bce <update_bb+0x27b>
    7bb4:	48 8b 55 e8          	mov    -0x18(%rbp),%rdx
    7bb8:	48 8b 4d f0          	mov    -0x10(%rbp),%rcx
    7bbc:	8b 45 fc             	mov    -0x4(%rbp),%eax
    7bbf:	48 89 ce             	mov    %rcx,%rsi
    7bc2:	89 c7                	mov    %eax,%edi
    7bc4:	e8 53 f4 ff ff       	callq  701c <get_bb_from_scratch>
    7bc9:	e9 5a 05 00 00       	jmpq   8128 <update_bb+0x7d5>
    7bce:	48 8b 05 00 00 00 00 	mov    0x0(%rip),%rax        # 7bd5 <update_bb+0x282>
    7bd5:	8b 55 fc             	mov    -0x4(%rbp),%edx
    7bd8:	48 63 d2             	movslq %edx,%rdx
    7bdb:	48 c1 e2 04          	shl    $0x4,%rdx
    7bdf:	48 01 d0             	add    %rdx,%rax
    7be2:	8b 00                	mov    (%rax),%eax
    7be4:	8d 50 ff             	lea    -0x1(%rax),%edx
    7be7:	48 8b 45 e8          	mov    -0x18(%rbp),%rax
    7beb:	89 10                	mov    %edx,(%rax)
    7bed:	48 8b 05 00 00 00 00 	mov    0x0(%rip),%rax        # 7bf4 <update_bb+0x2a1>
    7bf4:	8b 55 fc             	mov    -0x4(%rbp),%edx
    7bf7:	48 63 d2             	movslq %edx,%rdx
    7bfa:	48 c1 e2 04          	shl    $0x4,%rdx
    7bfe:	48 01 d0             	add    %rdx,%rax
    7c01:	8b 10                	mov    (%rax),%edx
    7c03:	48 8b 45 f0          	mov    -0x10(%rbp),%rax
    7c07:	89 10                	mov    %edx,(%rax)
    7c09:	eb 38                	jmp    7c43 <update_bb+0x2f0>
    7c0b:	48 8b 05 00 00 00 00 	mov    0x0(%rip),%rax        # 7c12 <update_bb+0x2bf>
    7c12:	8b 55 fc             	mov    -0x4(%rbp),%edx
    7c15:	48 63 d2             	movslq %edx,%rdx
    7c18:	48 c1 e2 04          	shl    $0x4,%rdx
    7c1c:	48 01 d0             	add    %rdx,%rax
    7c1f:	8b 10                	mov    (%rax),%edx
    7c21:	48 8b 45 f0          	mov    -0x10(%rbp),%rax
    7c25:	89 10                	mov    %edx,(%rax)
    7c27:	48 8b 05 00 00 00 00 	mov    0x0(%rip),%rax        # 7c2e <update_bb+0x2db>
    7c2e:	8b 55 fc             	mov    -0x4(%rbp),%edx
    7c31:	48 63 d2             	movslq %edx,%rdx
    7c34:	48 c1 e2 04          	shl    $0x4,%rdx
    7c38:	48 01 d0             	add    %rdx,%rax
    7c3b:	8b 10                	mov    (%rax),%edx
    7c3d:	48 8b 45 e8          	mov    -0x18(%rbp),%rax
    7c41:	89 10                	mov    %edx,(%rax)
    7c43:	48 8b 05 00 00 00 00 	mov    0x0(%rip),%rax        # 7c4a <update_bb+0x2f7>
    7c4a:	8b 55 fc             	mov    -0x4(%rbp),%edx
    7c4d:	48 63 d2             	movslq %edx,%rdx
    7c50:	48 c1 e2 04          	shl    $0x4,%rdx
    7c54:	48 01 d0             	add    %rdx,%rax
    7c57:	8b 40 04             	mov    0x4(%rax),%eax
    7c5a:	3b 45 e0             	cmp    -0x20(%rbp),%eax
    7c5d:	7d 1a                	jge    7c79 <update_bb+0x326>
    7c5f:	48 8b 45 f0          	mov    -0x10(%rbp),%rax
    7c63:	8b 55 e0             	mov    -0x20(%rbp),%edx
    7c66:	89 50 04             	mov    %edx,0x4(%rax)
    7c69:	48 8b 45 e8          	mov    -0x18(%rbp),%rax
    7c6d:	c7 40 04 01 00 00 00 	movl   $0x1,0x4(%rax)
    7c74:	e9 fe 00 00 00       	jmpq   7d77 <update_bb+0x424>
    7c79:	48 8b 05 00 00 00 00 	mov    0x0(%rip),%rax        # 7c80 <update_bb+0x32d>
    7c80:	8b 55 fc             	mov    -0x4(%rbp),%edx
    7c83:	48 63 d2             	movslq %edx,%rdx
    7c86:	48 c1 e2 04          	shl    $0x4,%rdx
    7c8a:	48 01 d0             	add    %rdx,%rax
    7c8d:	8b 40 04             	mov    0x4(%rax),%eax
    7c90:	3b 45 e0             	cmp    -0x20(%rbp),%eax
    7c93:	75 30                	jne    7cc5 <update_bb+0x372>
    7c95:	48 8b 45 f0          	mov    -0x10(%rbp),%rax
    7c99:	8b 55 e0             	mov    -0x20(%rbp),%edx
    7c9c:	89 50 04             	mov    %edx,0x4(%rax)
    7c9f:	48 8b 05 00 00 00 00 	mov    0x0(%rip),%rax        # 7ca6 <update_bb+0x353>
    7ca6:	8b 55 fc             	mov    -0x4(%rbp),%edx
    7ca9:	48 63 d2             	movslq %edx,%rdx
    7cac:	48 c1 e2 04          	shl    $0x4,%rdx
    7cb0:	48 01 d0             	add    %rdx,%rax
    7cb3:	8b 40 04             	mov    0x4(%rax),%eax
    7cb6:	8d 50 01             	lea    0x1(%rax),%edx
    7cb9:	48 8b 45 e8          	mov    -0x18(%rbp),%rax
    7cbd:	89 50 04             	mov    %edx,0x4(%rax)
    7cc0:	e9 b2 00 00 00       	jmpq   7d77 <update_bb+0x424>
    7cc5:	48 8b 05 00 00 00 00 	mov    0x0(%rip),%rax        # 7ccc <update_bb+0x379>
    7ccc:	8b 55 fc             	mov    -0x4(%rbp),%edx
    7ccf:	48 63 d2             	movslq %edx,%rdx
    7cd2:	48 c1 e2 04          	shl    $0x4,%rdx
    7cd6:	48 01 d0             	add    %rdx,%rax
    7cd9:	8b 50 04             	mov    0x4(%rax),%edx
    7cdc:	48 8b 45 f0          	mov    -0x10(%rbp),%rax
    7ce0:	89 50 04             	mov    %edx,0x4(%rax)
    7ce3:	48 8b 05 00 00 00 00 	mov    0x0(%rip),%rax        # 7cea <update_bb+0x397>
    7cea:	8b 55 fc             	mov    -0x4(%rbp),%edx
    7ced:	48 63 d2             	movslq %edx,%rdx
    7cf0:	48 c1 e2 04          	shl    $0x4,%rdx
    7cf4:	48 01 d0             	add    %rdx,%rax
    7cf7:	8b 50 04             	mov    0x4(%rax),%edx
    7cfa:	48 8b 45 e8          	mov    -0x18(%rbp),%rax
    7cfe:	89 50 04             	mov    %edx,0x4(%rax)
    7d01:	eb 74                	jmp    7d77 <update_bb+0x424>
    7d03:	48 8b 05 00 00 00 00 	mov    0x0(%rip),%rax        # 7d0a <update_bb+0x3b7>
    7d0a:	8b 55 fc             	mov    -0x4(%rbp),%edx
    7d0d:	48 63 d2             	movslq %edx,%rdx
    7d10:	48 c1 e2 04          	shl    $0x4,%rdx
    7d14:	48 01 d0             	add    %rdx,%rax
    7d17:	8b 10                	mov    (%rax),%edx
    7d19:	48 8b 45 f0          	mov    -0x10(%rbp),%rax
    7d1d:	89 10                	mov    %edx,(%rax)
    7d1f:	48 8b 05 00 00 00 00 	mov    0x0(%rip),%rax        # 7d26 <update_bb+0x3d3>
    7d26:	8b 55 fc             	mov    -0x4(%rbp),%edx
    7d29:	48 63 d2             	movslq %edx,%rdx
    7d2c:	48 c1 e2 04          	shl    $0x4,%rdx
    7d30:	48 01 d0             	add    %rdx,%rax
    7d33:	8b 50 04             	mov    0x4(%rax),%edx
    7d36:	48 8b 45 f0          	mov    -0x10(%rbp),%rax
    7d3a:	89 50 04             	mov    %edx,0x4(%rax)
    7d3d:	48 8b 05 00 00 00 00 	mov    0x0(%rip),%rax        # 7d44 <update_bb+0x3f1>
    7d44:	8b 55 fc             	mov    -0x4(%rbp),%edx
    7d47:	48 63 d2             	movslq %edx,%rdx
    7d4a:	48 c1 e2 04          	shl    $0x4,%rdx
    7d4e:	48 01 d0             	add    %rdx,%rax
    7d51:	8b 10                	mov    (%rax),%edx
    7d53:	48 8b 45 e8          	mov    -0x18(%rbp),%rax
    7d57:	89 10                	mov    %edx,(%rax)
    7d59:	48 8b 05 00 00 00 00 	mov    0x0(%rip),%rax        # 7d60 <update_bb+0x40d>
    7d60:	8b 55 fc             	mov    -0x4(%rbp),%edx
    7d63:	48 63 d2             	movslq %edx,%rdx
    7d66:	48 c1 e2 04          	shl    $0x4,%rdx
    7d6a:	48 01 d0             	add    %rdx,%rax
    7d6d:	8b 50 04             	mov    0x4(%rax),%edx
    7d70:	48 8b 45 e8          	mov    -0x18(%rbp),%rax
    7d74:	89 50 04             	mov    %edx,0x4(%rax)
    7d77:	8b 45 10             	mov    0x10(%rbp),%eax
    7d7a:	3b 45 e4             	cmp    -0x1c(%rbp),%eax
    7d7d:	0f 8d 92 01 00 00    	jge    7f15 <update_bb+0x5c2>
    7d83:	48 8b 05 00 00 00 00 	mov    0x0(%rip),%rax        # 7d8a <update_bb+0x437>
    7d8a:	8b 55 fc             	mov    -0x4(%rbp),%edx
    7d8d:	48 63 d2             	movslq %edx,%rdx
    7d90:	48 c1 e2 04          	shl    $0x4,%rdx
    7d94:	48 01 d0             	add    %rdx,%rax
    7d97:	8b 40 0c             	mov    0xc(%rax),%eax
    7d9a:	3b 45 e4             	cmp    -0x1c(%rbp),%eax
    7d9d:	75 77                	jne    7e16 <update_bb+0x4c3>
    7d9f:	48 8b 05 00 00 00 00 	mov    0x0(%rip),%rax        # 7da6 <update_bb+0x453>
    7da6:	8b 55 fc             	mov    -0x4(%rbp),%edx
    7da9:	48 63 d2             	movslq %edx,%rdx
    7dac:	48 c1 e2 04          	shl    $0x4,%rdx
    7db0:	48 01 d0             	add    %rdx,%rax
    7db3:	8b 40 0c             	mov    0xc(%rax),%eax
    7db6:	83 f8 01             	cmp    $0x1,%eax
    7db9:	75 1a                	jne    7dd5 <update_bb+0x482>
    7dbb:	48 8b 55 e8          	mov    -0x18(%rbp),%rdx
    7dbf:	48 8b 4d f0          	mov    -0x10(%rbp),%rcx
    7dc3:	8b 45 fc             	mov    -0x4(%rbp),%eax
    7dc6:	48 89 ce             	mov    %rcx,%rsi
    7dc9:	89 c7                	mov    %eax,%edi
    7dcb:	e8 4c f2 ff ff       	callq  701c <get_bb_from_scratch>
    7dd0:	e9 53 03 00 00       	jmpq   8128 <update_bb+0x7d5>
    7dd5:	48 8b 05 00 00 00 00 	mov    0x0(%rip),%rax        # 7ddc <update_bb+0x489>
    7ddc:	8b 55 fc             	mov    -0x4(%rbp),%edx
    7ddf:	48 63 d2             	movslq %edx,%rdx
    7de2:	48 c1 e2 04          	shl    $0x4,%rdx
    7de6:	48 01 d0             	add    %rdx,%rax
    7de9:	8b 40 0c             	mov    0xc(%rax),%eax
    7dec:	8d 50 ff             	lea    -0x1(%rax),%edx
    7def:	48 8b 45 e8          	mov    -0x18(%rbp),%rax
    7df3:	89 50 0c             	mov    %edx,0xc(%rax)
    7df6:	48 8b 05 00 00 00 00 	mov    0x0(%rip),%rax        # 7dfd <update_bb+0x4aa>
    7dfd:	8b 55 fc             	mov    -0x4(%rbp),%edx
    7e00:	48 63 d2             	movslq %edx,%rdx
    7e03:	48 c1 e2 04          	shl    $0x4,%rdx
    7e07:	48 01 d0             	add    %rdx,%rax
    7e0a:	8b 50 0c             	mov    0xc(%rax),%edx
    7e0d:	48 8b 45 f0          	mov    -0x10(%rbp),%rax
    7e11:	89 50 0c             	mov    %edx,0xc(%rax)
    7e14:	eb 3c                	jmp    7e52 <update_bb+0x4ff>
    7e16:	48 8b 05 00 00 00 00 	mov    0x0(%rip),%rax        # 7e1d <update_bb+0x4ca>
    7e1d:	8b 55 fc             	mov    -0x4(%rbp),%edx
    7e20:	48 63 d2             	movslq %edx,%rdx
    7e23:	48 c1 e2 04          	shl    $0x4,%rdx
    7e27:	48 01 d0             	add    %rdx,%rax
    7e2a:	8b 50 0c             	mov    0xc(%rax),%edx
    7e2d:	48 8b 45 f0          	mov    -0x10(%rbp),%rax
    7e31:	89 50 0c             	mov    %edx,0xc(%rax)
    7e34:	48 8b 05 00 00 00 00 	mov    0x0(%rip),%rax        # 7e3b <update_bb+0x4e8>
    7e3b:	8b 55 fc             	mov    -0x4(%rbp),%edx
    7e3e:	48 63 d2             	movslq %edx,%rdx
    7e41:	48 c1 e2 04          	shl    $0x4,%rdx
    7e45:	48 01 d0             	add    %rdx,%rax
    7e48:	8b 50 0c             	mov    0xc(%rax),%edx
    7e4b:	48 8b 45 e8          	mov    -0x18(%rbp),%rax
    7e4f:	89 50 0c             	mov    %edx,0xc(%rax)
    7e52:	48 8b 05 00 00 00 00 	mov    0x0(%rip),%rax        # 7e59 <update_bb+0x506>
    7e59:	8b 55 fc             	mov    -0x4(%rbp),%edx
    7e5c:	48 63 d2             	movslq %edx,%rdx
    7e5f:	48 c1 e2 04          	shl    $0x4,%rdx
    7e63:	48 01 d0             	add    %rdx,%rax
    7e66:	8b 40 08             	mov    0x8(%rax),%eax
    7e69:	3b 45 10             	cmp    0x10(%rbp),%eax
    7e6c:	7e 1a                	jle    7e88 <update_bb+0x535>
    7e6e:	48 8b 45 f0          	mov    -0x10(%rbp),%rax
    7e72:	8b 55 10             	mov    0x10(%rbp),%edx
    7e75:	89 50 08             	mov    %edx,0x8(%rax)
    7e78:	48 8b 45 e8          	mov    -0x18(%rbp),%rax
    7e7c:	c7 40 08 01 00 00 00 	movl   $0x1,0x8(%rax)
    7e83:	e9 a0 02 00 00       	jmpq   8128 <update_bb+0x7d5>
    7e88:	48 8b 05 00 00 00 00 	mov    0x0(%rip),%rax        # 7e8f <update_bb+0x53c>
    7e8f:	8b 55 fc             	mov    -0x4(%rbp),%edx
    7e92:	48 63 d2             	movslq %edx,%rdx
    7e95:	48 c1 e2 04          	shl    $0x4,%rdx
    7e99:	48 01 d0             	add    %rdx,%rax
    7e9c:	8b 40 08             	mov    0x8(%rax),%eax
    7e9f:	3b 45 10             	cmp    0x10(%rbp),%eax
    7ea2:	75 30                	jne    7ed4 <update_bb+0x581>
    7ea4:	48 8b 45 f0          	mov    -0x10(%rbp),%rax
    7ea8:	8b 55 10             	mov    0x10(%rbp),%edx
    7eab:	89 50 08             	mov    %edx,0x8(%rax)
    7eae:	48 8b 05 00 00 00 00 	mov    0x0(%rip),%rax        # 7eb5 <update_bb+0x562>
    7eb5:	8b 55 fc             	mov    -0x4(%rbp),%edx
    7eb8:	48 63 d2             	movslq %edx,%rdx
    7ebb:	48 c1 e2 04          	shl    $0x4,%rdx
    7ebf:	48 01 d0             	add    %rdx,%rax
    7ec2:	8b 40 08             	mov    0x8(%rax),%eax
    7ec5:	8d 50 01             	lea    0x1(%rax),%edx
    7ec8:	48 8b 45 e8          	mov    -0x18(%rbp),%rax
    7ecc:	89 50 08             	mov    %edx,0x8(%rax)
    7ecf:	e9 54 02 00 00       	jmpq   8128 <update_bb+0x7d5>
    7ed4:	48 8b 05 00 00 00 00 	mov    0x0(%rip),%rax        # 7edb <update_bb+0x588>
    7edb:	8b 55 fc             	mov    -0x4(%rbp),%edx
    7ede:	48 63 d2             	movslq %edx,%rdx
    7ee1:	48 c1 e2 04          	shl    $0x4,%rdx
    7ee5:	48 01 d0             	add    %rdx,%rax
    7ee8:	8b 50 08             	mov    0x8(%rax),%edx
    7eeb:	48 8b 45 f0          	mov    -0x10(%rbp),%rax
    7eef:	89 50 08             	mov    %edx,0x8(%rax)
    7ef2:	48 8b 05 00 00 00 00 	mov    0x0(%rip),%rax        # 7ef9 <update_bb+0x5a6>
    7ef9:	8b 55 fc             	mov    -0x4(%rbp),%edx
    7efc:	48 63 d2             	movslq %edx,%rdx
    7eff:	48 c1 e2 04          	shl    $0x4,%rdx
    7f03:	48 01 d0             	add    %rdx,%rax
    7f06:	8b 50 08             	mov    0x8(%rax),%edx
    7f09:	48 8b 45 e8          	mov    -0x18(%rbp),%rax
    7f0d:	89 50 08             	mov    %edx,0x8(%rax)
    7f10:	e9 13 02 00 00       	jmpq   8128 <update_bb+0x7d5>
    7f15:	8b 45 10             	mov    0x10(%rbp),%eax
    7f18:	3b 45 e4             	cmp    -0x1c(%rbp),%eax
    7f1b:	0f 8e 8f 01 00 00    	jle    80b0 <update_bb+0x75d>
    7f21:	48 8b 05 00 00 00 00 	mov    0x0(%rip),%rax        # 7f28 <update_bb+0x5d5>
    7f28:	8b 55 fc             	mov    -0x4(%rbp),%edx
    7f2b:	48 63 d2             	movslq %edx,%rdx
    7f2e:	48 c1 e2 04          	shl    $0x4,%rdx
    7f32:	48 01 d0             	add    %rdx,%rax
    7f35:	8b 40 08             	mov    0x8(%rax),%eax
    7f38:	3b 45 e4             	cmp    -0x1c(%rbp),%eax
    7f3b:	75 77                	jne    7fb4 <update_bb+0x661>
    7f3d:	48 8b 05 00 00 00 00 	mov    0x0(%rip),%rax        # 7f44 <update_bb+0x5f1>
    7f44:	8b 55 fc             	mov    -0x4(%rbp),%edx
    7f47:	48 63 d2             	movslq %edx,%rdx
    7f4a:	48 c1 e2 04          	shl    $0x4,%rdx
    7f4e:	48 01 d0             	add    %rdx,%rax
    7f51:	8b 40 08             	mov    0x8(%rax),%eax
    7f54:	83 f8 01             	cmp    $0x1,%eax
    7f57:	75 1a                	jne    7f73 <update_bb+0x620>
    7f59:	48 8b 55 e8          	mov    -0x18(%rbp),%rdx
    7f5d:	48 8b 4d f0          	mov    -0x10(%rbp),%rcx
    7f61:	8b 45 fc             	mov    -0x4(%rbp),%eax
    7f64:	48 89 ce             	mov    %rcx,%rsi
    7f67:	89 c7                	mov    %eax,%edi
    7f69:	e8 ae f0 ff ff       	callq  701c <get_bb_from_scratch>
    7f6e:	e9 b5 01 00 00       	jmpq   8128 <update_bb+0x7d5>
    7f73:	48 8b 05 00 00 00 00 	mov    0x0(%rip),%rax        # 7f7a <update_bb+0x627>
    7f7a:	8b 55 fc             	mov    -0x4(%rbp),%edx
    7f7d:	48 63 d2             	movslq %edx,%rdx
    7f80:	48 c1 e2 04          	shl    $0x4,%rdx
    7f84:	48 01 d0             	add    %rdx,%rax
    7f87:	8b 40 08             	mov    0x8(%rax),%eax
    7f8a:	8d 50 ff             	lea    -0x1(%rax),%edx
    7f8d:	48 8b 45 e8          	mov    -0x18(%rbp),%rax
    7f91:	89 50 08             	mov    %edx,0x8(%rax)
    7f94:	48 8b 05 00 00 00 00 	mov    0x0(%rip),%rax        # 7f9b <update_bb+0x648>
    7f9b:	8b 55 fc             	mov    -0x4(%rbp),%edx
    7f9e:	48 63 d2             	movslq %edx,%rdx
    7fa1:	48 c1 e2 04          	shl    $0x4,%rdx
    7fa5:	48 01 d0             	add    %rdx,%rax
    7fa8:	8b 50 08             	mov    0x8(%rax),%edx
    7fab:	48 8b 45 f0          	mov    -0x10(%rbp),%rax
    7faf:	89 50 08             	mov    %edx,0x8(%rax)
    7fb2:	eb 3c                	jmp    7ff0 <update_bb+0x69d>
    7fb4:	48 8b 05 00 00 00 00 	mov    0x0(%rip),%rax        # 7fbb <update_bb+0x668>
    7fbb:	8b 55 fc             	mov    -0x4(%rbp),%edx
    7fbe:	48 63 d2             	movslq %edx,%rdx
    7fc1:	48 c1 e2 04          	shl    $0x4,%rdx
    7fc5:	48 01 d0             	add    %rdx,%rax
    7fc8:	8b 50 08             	mov    0x8(%rax),%edx
    7fcb:	48 8b 45 f0          	mov    -0x10(%rbp),%rax
    7fcf:	89 50 08             	mov    %edx,0x8(%rax)
    7fd2:	48 8b 05 00 00 00 00 	mov    0x0(%rip),%rax        # 7fd9 <update_bb+0x686>
    7fd9:	8b 55 fc             	mov    -0x4(%rbp),%edx
    7fdc:	48 63 d2             	movslq %edx,%rdx
    7fdf:	48 c1 e2 04          	shl    $0x4,%rdx
    7fe3:	48 01 d0             	add    %rdx,%rax
    7fe6:	8b 50 08             	mov    0x8(%rax),%edx
    7fe9:	48 8b 45 e8          	mov    -0x18(%rbp),%rax
    7fed:	89 50 08             	mov    %edx,0x8(%rax)
    7ff0:	48 8b 05 00 00 00 00 	mov    0x0(%rip),%rax        # 7ff7 <update_bb+0x6a4>
    7ff7:	8b 55 fc             	mov    -0x4(%rbp),%edx
    7ffa:	48 63 d2             	movslq %edx,%rdx
    7ffd:	48 c1 e2 04          	shl    $0x4,%rdx
    8001:	48 01 d0             	add    %rdx,%rax
    8004:	8b 40 0c             	mov    0xc(%rax),%eax
    8007:	3b 45 10             	cmp    0x10(%rbp),%eax
    800a:	7d 1a                	jge    8026 <update_bb+0x6d3>
    800c:	48 8b 45 f0          	mov    -0x10(%rbp),%rax
    8010:	8b 55 10             	mov    0x10(%rbp),%edx
    8013:	89 50 0c             	mov    %edx,0xc(%rax)
    8016:	48 8b 45 e8          	mov    -0x18(%rbp),%rax
    801a:	c7 40 0c 01 00 00 00 	movl   $0x1,0xc(%rax)
    8021:	e9 02 01 00 00       	jmpq   8128 <update_bb+0x7d5>
    8026:	48 8b 05 00 00 00 00 	mov    0x0(%rip),%rax        # 802d <update_bb+0x6da>
    802d:	8b 55 fc             	mov    -0x4(%rbp),%edx
    8030:	48 63 d2             	movslq %edx,%rdx
    8033:	48 c1 e2 04          	shl    $0x4,%rdx
    8037:	48 01 d0             	add    %rdx,%rax
    803a:	8b 40 0c             	mov    0xc(%rax),%eax
    803d:	3b 45 10             	cmp    0x10(%rbp),%eax
    8040:	75 30                	jne    8072 <update_bb+0x71f>
    8042:	48 8b 45 f0          	mov    -0x10(%rbp),%rax
    8046:	8b 55 10             	mov    0x10(%rbp),%edx
    8049:	89 50 0c             	mov    %edx,0xc(%rax)
    804c:	48 8b 05 00 00 00 00 	mov    0x0(%rip),%rax        # 8053 <update_bb+0x700>
    8053:	8b 55 fc             	mov    -0x4(%rbp),%edx
    8056:	48 63 d2             	movslq %edx,%rdx
    8059:	48 c1 e2 04          	shl    $0x4,%rdx
    805d:	48 01 d0             	add    %rdx,%rax
    8060:	8b 40 0c             	mov    0xc(%rax),%eax
    8063:	8d 50 01             	lea    0x1(%rax),%edx
    8066:	48 8b 45 e8          	mov    -0x18(%rbp),%rax
    806a:	89 50 0c             	mov    %edx,0xc(%rax)
    806d:	e9 b6 00 00 00       	jmpq   8128 <update_bb+0x7d5>
    8072:	48 8b 05 00 00 00 00 	mov    0x0(%rip),%rax        # 8079 <update_bb+0x726>
    8079:	8b 55 fc             	mov    -0x4(%rbp),%edx
    807c:	48 63 d2             	movslq %edx,%rdx
    807f:	48 c1 e2 04          	shl    $0x4,%rdx
    8083:	48 01 d0             	add    %rdx,%rax
    8086:	8b 50 0c             	mov    0xc(%rax),%edx
    8089:	48 8b 45 f0          	mov    -0x10(%rbp),%rax
    808d:	89 50 0c             	mov    %edx,0xc(%rax)
    8090:	48 8b 05 00 00 00 00 	mov    0x0(%rip),%rax        # 8097 <update_bb+0x744>
    8097:	8b 55 fc             	mov    -0x4(%rbp),%edx
    809a:	48 63 d2             	movslq %edx,%rdx
    809d:	48 c1 e2 04          	shl    $0x4,%rdx
    80a1:	48 01 d0             	add    %rdx,%rax
    80a4:	8b 50 0c             	mov    0xc(%rax),%edx
    80a7:	48 8b 45 e8          	mov    -0x18(%rbp),%rax
    80ab:	89 50 0c             	mov    %edx,0xc(%rax)
    80ae:	eb 78                	jmp    8128 <update_bb+0x7d5>
    80b0:	48 8b 05 00 00 00 00 	mov    0x0(%rip),%rax        # 80b7 <update_bb+0x764>
    80b7:	8b 55 fc             	mov    -0x4(%rbp),%edx
    80ba:	48 63 d2             	movslq %edx,%rdx
    80bd:	48 c1 e2 04          	shl    $0x4,%rdx
    80c1:	48 01 d0             	add    %rdx,%rax
    80c4:	8b 50 08             	mov    0x8(%rax),%edx
    80c7:	48 8b 45 f0          	mov    -0x10(%rbp),%rax
    80cb:	89 50 08             	mov    %edx,0x8(%rax)
    80ce:	48 8b 05 00 00 00 00 	mov    0x0(%rip),%rax        # 80d5 <update_bb+0x782>
    80d5:	8b 55 fc             	mov    -0x4(%rbp),%edx
    80d8:	48 63 d2             	movslq %edx,%rdx
    80db:	48 c1 e2 04          	shl    $0x4,%rdx
    80df:	48 01 d0             	add    %rdx,%rax
    80e2:	8b 50 0c             	mov    0xc(%rax),%edx
    80e5:	48 8b 45 f0          	mov    -0x10(%rbp),%rax
    80e9:	89 50 0c             	mov    %edx,0xc(%rax)
    80ec:	48 8b 05 00 00 00 00 	mov    0x0(%rip),%rax        # 80f3 <update_bb+0x7a0>
    80f3:	8b 55 fc             	mov    -0x4(%rbp),%edx
    80f6:	48 63 d2             	movslq %edx,%rdx
    80f9:	48 c1 e2 04          	shl    $0x4,%rdx
    80fd:	48 01 d0             	add    %rdx,%rax
    8100:	8b 50 08             	mov    0x8(%rax),%edx
    8103:	48 8b 45 e8          	mov    -0x18(%rbp),%rax
    8107:	89 50 08             	mov    %edx,0x8(%rax)
    810a:	48 8b 05 00 00 00 00 	mov    0x0(%rip),%rax        # 8111 <update_bb+0x7be>
    8111:	8b 55 fc             	mov    -0x4(%rbp),%edx
    8114:	48 63 d2             	movslq %edx,%rdx
    8117:	48 c1 e2 04          	shl    $0x4,%rdx
    811b:	48 01 d0             	add    %rdx,%rax
    811e:	8b 50 0c             	mov    0xc(%rax),%edx
    8121:	48 8b 45 e8          	mov    -0x18(%rbp),%rax
    8125:	89 50 0c             	mov    %edx,0xc(%rax)
    8128:	c9                   	leaveq 
    8129:	c3                   	retq   

000000000000812a <initial_placement>:
    812a:	55                   	push   %rbp
    812b:	48 89 e5             	mov    %rsp,%rbp
    812e:	53                   	push   %rbx
    812f:	48 83 ec 58          	sub    $0x58,%rsp
    8133:	ff 15 00 00 00 00    	callq  *0x0(%rip)        # 8139 <initial_placement+0xf>
    8139:	89 7d ac             	mov    %edi,-0x54(%rbp)
    813c:	48 89 75 a0          	mov    %rsi,-0x60(%rbp)
    8140:	8b 05 00 00 00 00    	mov    0x0(%rip),%eax        # 8146 <initial_placement+0x1c>
    8146:	48 98                	cltq   
    8148:	48 c1 e0 03          	shl    $0x3,%rax
    814c:	48 89 c7             	mov    %rax,%rdi
    814f:	e8 00 00 00 00       	callq  8154 <initial_placement+0x2a>
    8154:	48 89 45 d8          	mov    %rax,-0x28(%rbp)
    8158:	8b 05 00 00 00 00    	mov    0x0(%rip),%eax        # 815e <initial_placement+0x34>
    815e:	48 98                	cltq   
    8160:	be 04 00 00 00       	mov    $0x4,%esi
    8165:	48 89 c7             	mov    %rax,%rdi
    8168:	e8 00 00 00 00       	callq  816d <initial_placement+0x43>
    816d:	48 89 45 d0          	mov    %rax,-0x30(%rbp)
    8171:	8b 05 00 00 00 00    	mov    0x0(%rip),%eax        # 8177 <initial_placement+0x4d>
    8177:	48 98                	cltq   
    8179:	be 04 00 00 00       	mov    $0x4,%esi
    817e:	48 89 c7             	mov    %rax,%rdi
    8181:	e8 00 00 00 00       	callq  8186 <initial_placement+0x5c>
    8186:	48 89 45 c8          	mov    %rax,-0x38(%rbp)
    818a:	c7 45 ec 00 00 00 00 	movl   $0x0,-0x14(%rbp)
    8191:	e9 6c 01 00 00       	jmpq   8302 <initial_placement+0x1d8>
    8196:	c7 45 e8 00 00 00 00 	movl   $0x0,-0x18(%rbp)
    819d:	e9 4a 01 00 00       	jmpq   82ec <initial_placement+0x1c2>
    81a2:	48 8b 05 00 00 00 00 	mov    0x0(%rip),%rax        # 81a9 <initial_placement+0x7f>
    81a9:	8b 55 ec             	mov    -0x14(%rbp),%edx
    81ac:	48 63 d2             	movslq %edx,%rdx
    81af:	48 c1 e2 03          	shl    $0x3,%rdx
    81b3:	48 01 d0             	add    %rdx,%rax
    81b6:	48 8b 08             	mov    (%rax),%rcx
    81b9:	8b 45 e8             	mov    -0x18(%rbp),%eax
    81bc:	48 63 d0             	movslq %eax,%rdx
    81bf:	48 89 d0             	mov    %rdx,%rax
    81c2:	48 01 c0             	add    %rax,%rax
    81c5:	48 01 d0             	add    %rdx,%rax
    81c8:	48 c1 e0 03          	shl    $0x3,%rax
    81cc:	48 01 c8             	add    %rcx,%rax
    81cf:	c7 40 0c 00 00 00 00 	movl   $0x0,0xc(%rax)
    81d6:	c7 45 e4 00 00 00 00 	movl   $0x0,-0x1c(%rbp)
    81dd:	e9 ca 00 00 00       	jmpq   82ac <initial_placement+0x182>
    81e2:	48 8b 05 00 00 00 00 	mov    0x0(%rip),%rax        # 81e9 <initial_placement+0xbf>
    81e9:	8b 55 ec             	mov    -0x14(%rbp),%edx
    81ec:	48 63 d2             	movslq %edx,%rdx
    81ef:	48 c1 e2 03          	shl    $0x3,%rdx
    81f3:	48 01 d0             	add    %rdx,%rax
    81f6:	48 8b 08             	mov    (%rax),%rcx
    81f9:	8b 45 e8             	mov    -0x18(%rbp),%eax
    81fc:	48 63 d0             	movslq %eax,%rdx
    81ff:	48 89 d0             	mov    %rdx,%rax
    8202:	48 01 c0             	add    %rax,%rax
    8205:	48 01 d0             	add    %rdx,%rax
    8208:	48 c1 e0 03          	shl    $0x3,%rax
    820c:	48 01 c8             	add    %rcx,%rax
    820f:	48 8b 40 10          	mov    0x10(%rax),%rax
    8213:	8b 55 e4             	mov    -0x1c(%rbp),%edx
    8216:	48 63 d2             	movslq %edx,%rdx
    8219:	48 c1 e2 02          	shl    $0x2,%rdx
    821d:	48 01 d0             	add    %rdx,%rax
    8220:	c7 00 ff ff ff ff    	movl   $0xffffffff,(%rax)
    8226:	48 8b 05 00 00 00 00 	mov    0x0(%rip),%rax        # 822d <initial_placement+0x103>
    822d:	8b 55 ec             	mov    -0x14(%rbp),%edx
    8230:	48 63 d2             	movslq %edx,%rdx
    8233:	48 c1 e2 03          	shl    $0x3,%rdx
    8237:	48 01 d0             	add    %rdx,%rax
    823a:	48 8b 08             	mov    (%rax),%rcx
    823d:	8b 45 e8             	mov    -0x18(%rbp),%eax
    8240:	48 63 d0             	movslq %eax,%rdx
    8243:	48 89 d0             	mov    %rdx,%rax
    8246:	48 01 c0             	add    %rax,%rax
    8249:	48 01 d0             	add    %rdx,%rax
    824c:	48 c1 e0 03          	shl    $0x3,%rax
    8250:	48 01 c8             	add    %rcx,%rax
    8253:	8b 40 08             	mov    0x8(%rax),%eax
    8256:	85 c0                	test   %eax,%eax
    8258:	75 4e                	jne    82a8 <initial_placement+0x17e>
    825a:	48 8b 05 00 00 00 00 	mov    0x0(%rip),%rax        # 8261 <initial_placement+0x137>
    8261:	8b 55 ec             	mov    -0x14(%rbp),%edx
    8264:	48 63 d2             	movslq %edx,%rdx
    8267:	48 c1 e2 03          	shl    $0x3,%rdx
    826b:	48 01 d0             	add    %rdx,%rax
    826e:	48 8b 08             	mov    (%rax),%rcx
    8271:	8b 45 e8             	mov    -0x18(%rbp),%eax
    8274:	48 63 d0             	movslq %eax,%rdx
    8277:	48 89 d0             	mov    %rdx,%rax
    827a:	48 01 c0             	add    %rax,%rax
    827d:	48 01 d0             	add    %rdx,%rax
    8280:	48 c1 e0 03          	shl    $0x3,%rax
    8284:	48 01 c8             	add    %rcx,%rax
    8287:	48 8b 00             	mov    (%rax),%rax
    828a:	8b 80 90 00 00 00    	mov    0x90(%rax),%eax
    8290:	48 98                	cltq   
    8292:	48 8d 14 85 00 00 00 	lea    0x0(,%rax,4),%rdx
    8299:	00 
    829a:	48 8b 45 d0          	mov    -0x30(%rbp),%rax
    829e:	48 01 d0             	add    %rdx,%rax
    82a1:	8b 10                	mov    (%rax),%edx
    82a3:	83 c2 01             	add    $0x1,%edx
    82a6:	89 10                	mov    %edx,(%rax)
    82a8:	83 45 e4 01          	addl   $0x1,-0x1c(%rbp)
    82ac:	48 8b 05 00 00 00 00 	mov    0x0(%rip),%rax        # 82b3 <initial_placement+0x189>
    82b3:	8b 55 ec             	mov    -0x14(%rbp),%edx
    82b6:	48 63 d2             	movslq %edx,%rdx
    82b9:	48 c1 e2 03          	shl    $0x3,%rdx
    82bd:	48 01 d0             	add    %rdx,%rax
    82c0:	48 8b 08             	mov    (%rax),%rcx
    82c3:	8b 45 e8             	mov    -0x18(%rbp),%eax
    82c6:	48 63 d0             	movslq %eax,%rdx
    82c9:	48 89 d0             	mov    %rdx,%rax
    82cc:	48 01 c0             	add    %rax,%rax
    82cf:	48 01 d0             	add    %rdx,%rax
    82d2:	48 c1 e0 03          	shl    $0x3,%rax
    82d6:	48 01 c8             	add    %rcx,%rax
    82d9:	48 8b 00             	mov    (%rax),%rax
    82dc:	8b 40 0c             	mov    0xc(%rax),%eax
    82df:	3b 45 e4             	cmp    -0x1c(%rbp),%eax
    82e2:	0f 8f fa fe ff ff    	jg     81e2 <initial_placement+0xb8>
    82e8:	83 45 e8 01          	addl   $0x1,-0x18(%rbp)
    82ec:	8b 05 00 00 00 00    	mov    0x0(%rip),%eax        # 82f2 <initial_placement+0x1c8>
    82f2:	83 c0 01             	add    $0x1,%eax
    82f5:	3b 45 e8             	cmp    -0x18(%rbp),%eax
    82f8:	0f 8d a4 fe ff ff    	jge    81a2 <initial_placement+0x78>
    82fe:	83 45 ec 01          	addl   $0x1,-0x14(%rbp)
    8302:	8b 05 00 00 00 00    	mov    0x0(%rip),%eax        # 8308 <initial_placement+0x1de>
    8308:	83 c0 01             	add    $0x1,%eax
    830b:	3b 45 ec             	cmp    -0x14(%rbp),%eax
    830e:	0f 8d 82 fe ff ff    	jge    8196 <initial_placement+0x6c>
    8314:	c7 45 ec 00 00 00 00 	movl   $0x0,-0x14(%rbp)
    831b:	eb 4a                	jmp    8367 <initial_placement+0x23d>
    831d:	8b 45 ec             	mov    -0x14(%rbp),%eax
    8320:	48 98                	cltq   
    8322:	48 8d 14 c5 00 00 00 	lea    0x0(,%rax,8),%rdx
    8329:	00 
    832a:	48 8b 45 d8          	mov    -0x28(%rbp),%rax
    832e:	48 8d 1c 02          	lea    (%rdx,%rax,1),%rbx
    8332:	8b 45 ec             	mov    -0x14(%rbp),%eax
    8335:	48 98                	cltq   
    8337:	48 8d 14 85 00 00 00 	lea    0x0(,%rax,4),%rdx
    833e:	00 
    833f:	48 8b 45 d0          	mov    -0x30(%rbp),%rax
    8343:	48 01 d0             	add    %rdx,%rax
    8346:	8b 00                	mov    (%rax),%eax
    8348:	48 63 d0             	movslq %eax,%rdx
    834b:	48 89 d0             	mov    %rdx,%rax
    834e:	48 01 c0             	add    %rax,%rax
    8351:	48 01 d0             	add    %rdx,%rax
    8354:	48 c1 e0 02          	shl    $0x2,%rax
    8358:	48 89 c7             	mov    %rax,%rdi
    835b:	e8 00 00 00 00       	callq  8360 <initial_placement+0x236>
    8360:	48 89 03             	mov    %rax,(%rbx)
    8363:	83 45 ec 01          	addl   $0x1,-0x14(%rbp)
    8367:	8b 05 00 00 00 00    	mov    0x0(%rip),%eax        # 836d <initial_placement+0x243>
    836d:	39 45 ec             	cmp    %eax,-0x14(%rbp)
    8370:	7c ab                	jl     831d <initial_placement+0x1f3>
    8372:	c7 45 ec 00 00 00 00 	movl   $0x0,-0x14(%rbp)
    8379:	e9 d2 01 00 00       	jmpq   8550 <initial_placement+0x426>
    837e:	c7 45 e8 00 00 00 00 	movl   $0x0,-0x18(%rbp)
    8385:	e9 b0 01 00 00       	jmpq   853a <initial_placement+0x410>
    838a:	c7 45 e4 00 00 00 00 	movl   $0x0,-0x1c(%rbp)
    8391:	e9 64 01 00 00       	jmpq   84fa <initial_placement+0x3d0>
    8396:	48 8b 05 00 00 00 00 	mov    0x0(%rip),%rax        # 839d <initial_placement+0x273>
    839d:	8b 55 ec             	mov    -0x14(%rbp),%edx
    83a0:	48 63 d2             	movslq %edx,%rdx
    83a3:	48 c1 e2 03          	shl    $0x3,%rdx
    83a7:	48 01 d0             	add    %rdx,%rax
    83aa:	48 8b 08             	mov    (%rax),%rcx
    83ad:	8b 45 e8             	mov    -0x18(%rbp),%eax
    83b0:	48 63 d0             	movslq %eax,%rdx
    83b3:	48 89 d0             	mov    %rdx,%rax
    83b6:	48 01 c0             	add    %rax,%rax
    83b9:	48 01 d0             	add    %rdx,%rax
    83bc:	48 c1 e0 03          	shl    $0x3,%rax
    83c0:	48 01 c8             	add    %rcx,%rax
    83c3:	8b 40 08             	mov    0x8(%rax),%eax
    83c6:	85 c0                	test   %eax,%eax
    83c8:	0f 85 28 01 00 00    	jne    84f6 <initial_placement+0x3cc>
    83ce:	48 8b 05 00 00 00 00 	mov    0x0(%rip),%rax        # 83d5 <initial_placement+0x2ab>
    83d5:	8b 55 ec             	mov    -0x14(%rbp),%edx
    83d8:	48 63 d2             	movslq %edx,%rdx
    83db:	48 c1 e2 03          	shl    $0x3,%rdx
    83df:	48 01 d0             	add    %rdx,%rax
    83e2:	48 8b 08             	mov    (%rax),%rcx
    83e5:	8b 45 e8             	mov    -0x18(%rbp),%eax
    83e8:	48 63 d0             	movslq %eax,%rdx
    83eb:	48 89 d0             	mov    %rdx,%rax
    83ee:	48 01 c0             	add    %rax,%rax
    83f1:	48 01 d0             	add    %rdx,%rax
    83f4:	48 c1 e0 03          	shl    $0x3,%rax
    83f8:	48 01 c8             	add    %rcx,%rax
    83fb:	48 8b 00             	mov    (%rax),%rax
    83fe:	8b 80 90 00 00 00    	mov    0x90(%rax),%eax
    8404:	89 45 c4             	mov    %eax,-0x3c(%rbp)
    8407:	8b 45 c4             	mov    -0x3c(%rbp),%eax
    840a:	48 98                	cltq   
    840c:	48 8d 14 c5 00 00 00 	lea    0x0(,%rax,8),%rdx
    8413:	00 
    8414:	48 8b 45 d8          	mov    -0x28(%rbp),%rax
    8418:	48 01 d0             	add    %rdx,%rax
    841b:	48 8b 08             	mov    (%rax),%rcx
    841e:	8b 45 c4             	mov    -0x3c(%rbp),%eax
    8421:	48 98                	cltq   
    8423:	48 8d 14 85 00 00 00 	lea    0x0(,%rax,4),%rdx
    842a:	00 
    842b:	48 8b 45 c8          	mov    -0x38(%rbp),%rax
    842f:	48 01 d0             	add    %rdx,%rax
    8432:	8b 00                	mov    (%rax),%eax
    8434:	48 63 d0             	movslq %eax,%rdx
    8437:	48 89 d0             	mov    %rdx,%rax
    843a:	48 01 c0             	add    %rax,%rax
    843d:	48 01 d0             	add    %rdx,%rax
    8440:	48 c1 e0 02          	shl    $0x2,%rax
    8444:	48 8d 14 01          	lea    (%rcx,%rax,1),%rdx
    8448:	8b 45 ec             	mov    -0x14(%rbp),%eax
    844b:	89 02                	mov    %eax,(%rdx)
    844d:	8b 45 c4             	mov    -0x3c(%rbp),%eax
    8450:	48 98                	cltq   
    8452:	48 8d 14 c5 00 00 00 	lea    0x0(,%rax,8),%rdx
    8459:	00 
    845a:	48 8b 45 d8          	mov    -0x28(%rbp),%rax
    845e:	48 01 d0             	add    %rdx,%rax
    8461:	48 8b 08             	mov    (%rax),%rcx
    8464:	8b 45 c4             	mov    -0x3c(%rbp),%eax
    8467:	48 98                	cltq   
    8469:	48 8d 14 85 00 00 00 	lea    0x0(,%rax,4),%rdx
    8470:	00 
    8471:	48 8b 45 c8          	mov    -0x38(%rbp),%rax
    8475:	48 01 d0             	add    %rdx,%rax
    8478:	8b 00                	mov    (%rax),%eax
    847a:	48 63 d0             	movslq %eax,%rdx
    847d:	48 89 d0             	mov    %rdx,%rax
    8480:	48 01 c0             	add    %rax,%rax
    8483:	48 01 d0             	add    %rdx,%rax
    8486:	48 c1 e0 02          	shl    $0x2,%rax
    848a:	48 8d 14 01          	lea    (%rcx,%rax,1),%rdx
    848e:	8b 45 e8             	mov    -0x18(%rbp),%eax
    8491:	89 42 04             	mov    %eax,0x4(%rdx)
    8494:	8b 45 c4             	mov    -0x3c(%rbp),%eax
    8497:	48 98                	cltq   
    8499:	48 8d 14 c5 00 00 00 	lea    0x0(,%rax,8),%rdx
    84a0:	00 
    84a1:	48 8b 45 d8          	mov    -0x28(%rbp),%rax
    84a5:	48 01 d0             	add    %rdx,%rax
    84a8:	48 8b 08             	mov    (%rax),%rcx
    84ab:	8b 45 c4             	mov    -0x3c(%rbp),%eax
    84ae:	48 98                	cltq   
    84b0:	48 8d 14 85 00 00 00 	lea    0x0(,%rax,4),%rdx
    84b7:	00 
    84b8:	48 8b 45 c8          	mov    -0x38(%rbp),%rax
    84bc:	48 01 d0             	add    %rdx,%rax
    84bf:	8b 00                	mov    (%rax),%eax
    84c1:	48 63 d0             	movslq %eax,%rdx
    84c4:	48 89 d0             	mov    %rdx,%rax
    84c7:	48 01 c0             	add    %rax,%rax
    84ca:	48 01 d0             	add    %rdx,%rax
    84cd:	48 c1 e0 02          	shl    $0x2,%rax
    84d1:	48 8d 14 01          	lea    (%rcx,%rax,1),%rdx
    84d5:	8b 45 e4             	mov    -0x1c(%rbp),%eax
    84d8:	89 42 08             	mov    %eax,0x8(%rdx)
    84db:	8b 45 c4             	mov    -0x3c(%rbp),%eax
    84de:	48 98                	cltq   
    84e0:	48 8d 14 85 00 00 00 	lea    0x0(,%rax,4),%rdx
    84e7:	00 
    84e8:	48 8b 45 c8          	mov    -0x38(%rbp),%rax
    84ec:	48 01 d0             	add    %rdx,%rax
    84ef:	8b 10                	mov    (%rax),%edx
    84f1:	83 c2 01             	add    $0x1,%edx
    84f4:	89 10                	mov    %edx,(%rax)
    84f6:	83 45 e4 01          	addl   $0x1,-0x1c(%rbp)
    84fa:	48 8b 05 00 00 00 00 	mov    0x0(%rip),%rax        # 8501 <initial_placement+0x3d7>
    8501:	8b 55 ec             	mov    -0x14(%rbp),%edx
    8504:	48 63 d2             	movslq %edx,%rdx
    8507:	48 c1 e2 03          	shl    $0x3,%rdx
    850b:	48 01 d0             	add    %rdx,%rax
    850e:	48 8b 08             	mov    (%rax),%rcx
    8511:	8b 45 e8             	mov    -0x18(%rbp),%eax
    8514:	48 63 d0             	movslq %eax,%rdx
    8517:	48 89 d0             	mov    %rdx,%rax
    851a:	48 01 c0             	add    %rax,%rax
    851d:	48 01 d0             	add    %rdx,%rax
    8520:	48 c1 e0 03          	shl    $0x3,%rax
    8524:	48 01 c8             	add    %rcx,%rax
    8527:	48 8b 00             	mov    (%rax),%rax
    852a:	8b 40 0c             	mov    0xc(%rax),%eax
    852d:	3b 45 e4             	cmp    -0x1c(%rbp),%eax
    8530:	0f 8f 60 fe ff ff    	jg     8396 <initial_placement+0x26c>
    8536:	83 45 e8 01          	addl   $0x1,-0x18(%rbp)
    853a:	8b 05 00 00 00 00    	mov    0x0(%rip),%eax        # 8540 <initial_placement+0x416>
    8540:	83 c0 01             	add    $0x1,%eax
    8543:	3b 45 e8             	cmp    -0x18(%rbp),%eax
    8546:	0f 8d 3e fe ff ff    	jge    838a <initial_placement+0x260>
    854c:	83 45 ec 01          	addl   $0x1,-0x14(%rbp)
    8550:	8b 05 00 00 00 00    	mov    0x0(%rip),%eax        # 8556 <initial_placement+0x42c>
    8556:	83 c0 01             	add    $0x1,%eax
    8559:	3b 45 ec             	cmp    -0x14(%rbp),%eax
    855c:	0f 8d 1c fe ff ff    	jge    837e <initial_placement+0x254>
    8562:	c7 45 e0 00 00 00 00 	movl   $0x0,-0x20(%rbp)
    8569:	e9 6d 02 00 00       	jmpq   87db <initial_placement+0x6b1>
    856e:	48 8b 0d 00 00 00 00 	mov    0x0(%rip),%rcx        # 8575 <initial_placement+0x44b>
    8575:	8b 45 e0             	mov    -0x20(%rbp),%eax
    8578:	48 63 d0             	movslq %eax,%rdx
    857b:	48 89 d0             	mov    %rdx,%rax
    857e:	48 c1 e0 02          	shl    $0x2,%rax
    8582:	48 01 d0             	add    %rdx,%rax
    8585:	48 c1 e0 03          	shl    $0x3,%rax
    8589:	48 01 c8             	add    %rcx,%rax
    858c:	48 8b 50 08          	mov    0x8(%rax),%rdx
    8590:	48 8b 05 00 00 00 00 	mov    0x0(%rip),%rax        # 8597 <initial_placement+0x46d>
    8597:	48 39 c2             	cmp    %rax,%rdx
    859a:	75 0a                	jne    85a6 <initial_placement+0x47c>
    859c:	83 7d ac 02          	cmpl   $0x2,-0x54(%rbp)
    85a0:	0f 84 31 02 00 00    	je     87d7 <initial_placement+0x6ad>
    85a6:	48 8b 0d 00 00 00 00 	mov    0x0(%rip),%rcx        # 85ad <initial_placement+0x483>
    85ad:	8b 45 e0             	mov    -0x20(%rbp),%eax
    85b0:	48 63 d0             	movslq %eax,%rdx
    85b3:	48 89 d0             	mov    %rdx,%rax
    85b6:	48 c1 e0 02          	shl    $0x2,%rax
    85ba:	48 01 d0             	add    %rdx,%rax
    85bd:	48 c1 e0 03          	shl    $0x3,%rax
    85c1:	48 01 c8             	add    %rcx,%rax
    85c4:	48 8b 40 08          	mov    0x8(%rax),%rax
    85c8:	8b 80 90 00 00 00    	mov    0x90(%rax),%eax
    85ce:	89 45 c4             	mov    %eax,-0x3c(%rbp)
    85d1:	8b 45 c4             	mov    -0x3c(%rbp),%eax
    85d4:	48 98                	cltq   
    85d6:	48 8d 14 85 00 00 00 	lea    0x0(,%rax,4),%rdx
    85dd:	00 
    85de:	48 8b 45 d0          	mov    -0x30(%rbp),%rax
    85e2:	48 01 d0             	add    %rdx,%rax
    85e5:	8b 00                	mov    (%rax),%eax
    85e7:	85 c0                	test   %eax,%eax
    85e9:	7f 1f                	jg     860a <initial_placement+0x4e0>
    85eb:	48 8d 0d 00 00 00 00 	lea    0x0(%rip),%rcx        # 85f2 <initial_placement+0x4c8>
    85f2:	ba 44 0e 00 00       	mov    $0xe44,%edx
    85f7:	48 8d 35 00 00 00 00 	lea    0x0(%rip),%rsi        # 85fe <initial_placement+0x4d4>
    85fe:	48 8d 3d 00 00 00 00 	lea    0x0(%rip),%rdi        # 8605 <initial_placement+0x4db>
    8605:	e8 00 00 00 00       	callq  860a <initial_placement+0x4e0>
    860a:	8b 45 c4             	mov    -0x3c(%rbp),%eax
    860d:	48 98                	cltq   
    860f:	48 8d 14 85 00 00 00 	lea    0x0(,%rax,4),%rdx
    8616:	00 
    8617:	48 8b 45 d0          	mov    -0x30(%rbp),%rax
    861b:	48 01 d0             	add    %rdx,%rax
    861e:	8b 00                	mov    (%rax),%eax
    8620:	83 e8 01             	sub    $0x1,%eax
    8623:	89 c7                	mov    %eax,%edi
    8625:	e8 00 00 00 00       	callq  862a <initial_placement+0x500>
    862a:	89 45 c0             	mov    %eax,-0x40(%rbp)
    862d:	8b 45 c4             	mov    -0x3c(%rbp),%eax
    8630:	48 98                	cltq   
    8632:	48 8d 14 c5 00 00 00 	lea    0x0(,%rax,8),%rdx
    8639:	00 
    863a:	48 8b 45 d8          	mov    -0x28(%rbp),%rax
    863e:	48 01 d0             	add    %rdx,%rax
    8641:	48 8b 08             	mov    (%rax),%rcx
    8644:	8b 45 c0             	mov    -0x40(%rbp),%eax
    8647:	48 63 d0             	movslq %eax,%rdx
    864a:	48 89 d0             	mov    %rdx,%rax
    864d:	48 01 c0             	add    %rax,%rax
    8650:	48 01 d0             	add    %rdx,%rax
    8653:	48 c1 e0 02          	shl    $0x2,%rax
    8657:	48 01 c8             	add    %rcx,%rax
    865a:	8b 00                	mov    (%rax),%eax
    865c:	89 45 bc             	mov    %eax,-0x44(%rbp)
    865f:	8b 45 c4             	mov    -0x3c(%rbp),%eax
    8662:	48 98                	cltq   
    8664:	48 8d 14 c5 00 00 00 	lea    0x0(,%rax,8),%rdx
    866b:	00 
    866c:	48 8b 45 d8          	mov    -0x28(%rbp),%rax
    8670:	48 01 d0             	add    %rdx,%rax
    8673:	48 8b 08             	mov    (%rax),%rcx
    8676:	8b 45 c0             	mov    -0x40(%rbp),%eax
    8679:	48 63 d0             	movslq %eax,%rdx
    867c:	48 89 d0             	mov    %rdx,%rax
    867f:	48 01 c0             	add    %rax,%rax
    8682:	48 01 d0             	add    %rdx,%rax
    8685:	48 c1 e0 02          	shl    $0x2,%rax
    8689:	48 01 c8             	add    %rcx,%rax
    868c:	8b 40 04             	mov    0x4(%rax),%eax
    868f:	89 45 b8             	mov    %eax,-0x48(%rbp)
    8692:	8b 45 c4             	mov    -0x3c(%rbp),%eax
    8695:	48 98                	cltq   
    8697:	48 8d 14 c5 00 00 00 	lea    0x0(,%rax,8),%rdx
    869e:	00 
    869f:	48 8b 45 d8          	mov    -0x28(%rbp),%rax
    86a3:	48 01 d0             	add    %rdx,%rax
    86a6:	48 8b 08             	mov    (%rax),%rcx
    86a9:	8b 45 c0             	mov    -0x40(%rbp),%eax
    86ac:	48 63 d0             	movslq %eax,%rdx
    86af:	48 89 d0             	mov    %rdx,%rax
    86b2:	48 01 c0             	add    %rax,%rax
    86b5:	48 01 d0             	add    %rdx,%rax
    86b8:	48 c1 e0 02          	shl    $0x2,%rax
    86bc:	48 01 c8             	add    %rcx,%rax
    86bf:	8b 40 08             	mov    0x8(%rax),%eax
    86c2:	89 45 b4             	mov    %eax,-0x4c(%rbp)
    86c5:	48 8b 05 00 00 00 00 	mov    0x0(%rip),%rax        # 86cc <initial_placement+0x5a2>
    86cc:	8b 55 bc             	mov    -0x44(%rbp),%edx
    86cf:	48 63 d2             	movslq %edx,%rdx
    86d2:	48 c1 e2 03          	shl    $0x3,%rdx
    86d6:	48 01 d0             	add    %rdx,%rax
    86d9:	48 8b 08             	mov    (%rax),%rcx
    86dc:	8b 45 b8             	mov    -0x48(%rbp),%eax
    86df:	48 63 d0             	movslq %eax,%rdx
    86e2:	48 89 d0             	mov    %rdx,%rax
    86e5:	48 01 c0             	add    %rax,%rax
    86e8:	48 01 d0             	add    %rdx,%rax
    86eb:	48 c1 e0 03          	shl    $0x3,%rax
    86ef:	48 01 c8             	add    %rcx,%rax
    86f2:	48 8b 40 10          	mov    0x10(%rax),%rax
    86f6:	8b 55 b4             	mov    -0x4c(%rbp),%edx
    86f9:	48 63 d2             	movslq %edx,%rdx
    86fc:	48 c1 e2 02          	shl    $0x2,%rdx
    8700:	48 01 c2             	add    %rax,%rdx
    8703:	8b 45 e0             	mov    -0x20(%rbp),%eax
    8706:	89 02                	mov    %eax,(%rdx)
    8708:	48 8b 05 00 00 00 00 	mov    0x0(%rip),%rax        # 870f <initial_placement+0x5e5>
    870f:	8b 55 bc             	mov    -0x44(%rbp),%edx
    8712:	48 63 d2             	movslq %edx,%rdx
    8715:	48 c1 e2 03          	shl    $0x3,%rdx
    8719:	48 01 d0             	add    %rdx,%rax
    871c:	48 8b 08             	mov    (%rax),%rcx
    871f:	8b 45 b8             	mov    -0x48(%rbp),%eax
    8722:	48 63 d0             	movslq %eax,%rdx
    8725:	48 89 d0             	mov    %rdx,%rax
    8728:	48 01 c0             	add    %rax,%rax
    872b:	48 01 d0             	add    %rdx,%rax
    872e:	48 c1 e0 03          	shl    $0x3,%rax
    8732:	48 01 c8             	add    %rcx,%rax
    8735:	8b 50 0c             	mov    0xc(%rax),%edx
    8738:	83 c2 01             	add    $0x1,%edx
    873b:	89 50 0c             	mov    %edx,0xc(%rax)
    873e:	8b 45 c4             	mov    -0x3c(%rbp),%eax
    8741:	48 98                	cltq   
    8743:	48 8d 14 c5 00 00 00 	lea    0x0(,%rax,8),%rdx
    874a:	00 
    874b:	48 8b 45 d8          	mov    -0x28(%rbp),%rax
    874f:	48 01 d0             	add    %rdx,%rax
    8752:	48 8b 08             	mov    (%rax),%rcx
    8755:	8b 45 c0             	mov    -0x40(%rbp),%eax
    8758:	48 63 d0             	movslq %eax,%rdx
    875b:	48 89 d0             	mov    %rdx,%rax
    875e:	48 01 c0             	add    %rax,%rax
    8761:	48 01 d0             	add    %rdx,%rax
    8764:	48 c1 e0 02          	shl    $0x2,%rax
    8768:	48 8d 14 01          	lea    (%rcx,%rax,1),%rdx
    876c:	8b 45 c4             	mov    -0x3c(%rbp),%eax
    876f:	48 98                	cltq   
    8771:	48 8d 0c c5 00 00 00 	lea    0x0(,%rax,8),%rcx
    8778:	00 
    8779:	48 8b 45 d8          	mov    -0x28(%rbp),%rax
    877d:	48 01 c8             	add    %rcx,%rax
    8780:	48 8b 30             	mov    (%rax),%rsi
    8783:	8b 45 c4             	mov    -0x3c(%rbp),%eax
    8786:	48 98                	cltq   
    8788:	48 8d 0c 85 00 00 00 	lea    0x0(,%rax,4),%rcx
    878f:	00 
    8790:	48 8b 45 d0          	mov    -0x30(%rbp),%rax
    8794:	48 01 c8             	add    %rcx,%rax
    8797:	8b 00                	mov    (%rax),%eax
    8799:	48 63 c8             	movslq %eax,%rcx
    879c:	48 89 c8             	mov    %rcx,%rax
    879f:	48 01 c0             	add    %rax,%rax
    87a2:	48 01 c8             	add    %rcx,%rax
    87a5:	48 c1 e0 02          	shl    $0x2,%rax
    87a9:	48 83 e8 0c          	sub    $0xc,%rax
    87ad:	48 01 f0             	add    %rsi,%rax
    87b0:	48 8b 08             	mov    (%rax),%rcx
    87b3:	48 89 0a             	mov    %rcx,(%rdx)
    87b6:	8b 40 08             	mov    0x8(%rax),%eax
    87b9:	89 42 08             	mov    %eax,0x8(%rdx)
    87bc:	8b 45 c4             	mov    -0x3c(%rbp),%eax
    87bf:	48 98                	cltq   
    87c1:	48 8d 14 85 00 00 00 	lea    0x0(,%rax,4),%rdx
    87c8:	00 
    87c9:	48 8b 45 d0          	mov    -0x30(%rbp),%rax
    87cd:	48 01 d0             	add    %rdx,%rax
    87d0:	8b 10                	mov    (%rax),%edx
    87d2:	83 ea 01             	sub    $0x1,%edx
    87d5:	89 10                	mov    %edx,(%rax)
    87d7:	83 45 e0 01          	addl   $0x1,-0x20(%rbp)
    87db:	8b 05 00 00 00 00    	mov    0x0(%rip),%eax        # 87e1 <initial_placement+0x6b7>
    87e1:	39 45 e0             	cmp    %eax,-0x20(%rbp)
    87e4:	0f 8c 84 fd ff ff    	jl     856e <initial_placement+0x444>
    87ea:	83 7d ac 02          	cmpl   $0x2,-0x54(%rbp)
    87ee:	75 0c                	jne    87fc <initial_placement+0x6d2>
    87f0:	48 8b 45 a0          	mov    -0x60(%rbp),%rax
    87f4:	48 89 c7             	mov    %rax,%rdi
    87f7:	e8 00 00 00 00       	callq  87fc <initial_placement+0x6d2>
    87fc:	c7 45 ec 00 00 00 00 	movl   $0x0,-0x14(%rbp)
    8803:	e9 7f 01 00 00       	jmpq   8987 <initial_placement+0x85d>
    8808:	c7 45 e8 00 00 00 00 	movl   $0x0,-0x18(%rbp)
    880f:	e9 5d 01 00 00       	jmpq   8971 <initial_placement+0x847>
    8814:	c7 45 e4 00 00 00 00 	movl   $0x0,-0x1c(%rbp)
    881b:	e9 11 01 00 00       	jmpq   8931 <initial_placement+0x807>
    8820:	48 8b 05 00 00 00 00 	mov    0x0(%rip),%rax        # 8827 <initial_placement+0x6fd>
    8827:	8b 55 ec             	mov    -0x14(%rbp),%edx
    882a:	48 63 d2             	movslq %edx,%rdx
    882d:	48 c1 e2 03          	shl    $0x3,%rdx
    8831:	48 01 d0             	add    %rdx,%rax
    8834:	48 8b 08             	mov    (%rax),%rcx
    8837:	8b 45 e8             	mov    -0x18(%rbp),%eax
    883a:	48 63 d0             	movslq %eax,%rdx
    883d:	48 89 d0             	mov    %rdx,%rax
    8840:	48 01 c0             	add    %rax,%rax
    8843:	48 01 d0             	add    %rdx,%rax
    8846:	48 c1 e0 03          	shl    $0x3,%rax
    884a:	48 01 c8             	add    %rcx,%rax
    884d:	48 8b 40 10          	mov    0x10(%rax),%rax
    8851:	48 85 c0             	test   %rax,%rax
    8854:	75 1f                	jne    8875 <initial_placement+0x74b>
    8856:	48 8d 0d 00 00 00 00 	lea    0x0(%rip),%rcx        # 885d <initial_placement+0x733>
    885d:	ba 60 0e 00 00       	mov    $0xe60,%edx
    8862:	48 8d 35 00 00 00 00 	lea    0x0(%rip),%rsi        # 8869 <initial_placement+0x73f>
    8869:	48 8d 3d 00 00 00 00 	lea    0x0(%rip),%rdi        # 8870 <initial_placement+0x746>
    8870:	e8 00 00 00 00       	callq  8875 <initial_placement+0x74b>
    8875:	48 8b 05 00 00 00 00 	mov    0x0(%rip),%rax        # 887c <initial_placement+0x752>
    887c:	8b 55 ec             	mov    -0x14(%rbp),%edx
    887f:	48 63 d2             	movslq %edx,%rdx
    8882:	48 c1 e2 03          	shl    $0x3,%rdx
    8886:	48 01 d0             	add    %rdx,%rax
    8889:	48 8b 08             	mov    (%rax),%rcx
    888c:	8b 45 e8             	mov    -0x18(%rbp),%eax
    888f:	48 63 d0             	movslq %eax,%rdx
    8892:	48 89 d0             	mov    %rdx,%rax
    8895:	48 01 c0             	add    %rax,%rax
    8898:	48 01 d0             	add    %rdx,%rax
    889b:	48 c1 e0 03          	shl    $0x3,%rax
    889f:	48 01 c8             	add    %rcx,%rax
    88a2:	48 8b 40 10          	mov    0x10(%rax),%rax
    88a6:	8b 55 e4             	mov    -0x1c(%rbp),%edx
    88a9:	48 63 d2             	movslq %edx,%rdx
    88ac:	48 c1 e2 02          	shl    $0x2,%rdx
    88b0:	48 01 d0             	add    %rdx,%rax
    88b3:	8b 00                	mov    (%rax),%eax
    88b5:	89 45 e0             	mov    %eax,-0x20(%rbp)
    88b8:	83 7d e0 ff          	cmpl   $0xffffffff,-0x20(%rbp)
    88bc:	74 6f                	je     892d <initial_placement+0x803>
    88be:	48 8b 0d 00 00 00 00 	mov    0x0(%rip),%rcx        # 88c5 <initial_placement+0x79b>
    88c5:	8b 45 e0             	mov    -0x20(%rbp),%eax
    88c8:	48 63 d0             	movslq %eax,%rdx
    88cb:	48 89 d0             	mov    %rdx,%rax
    88ce:	48 c1 e0 02          	shl    $0x2,%rax
    88d2:	48 01 d0             	add    %rdx,%rax
    88d5:	48 c1 e0 03          	shl    $0x3,%rax
    88d9:	48 8d 14 01          	lea    (%rcx,%rax,1),%rdx
    88dd:	8b 45 ec             	mov    -0x14(%rbp),%eax
    88e0:	89 42 18             	mov    %eax,0x18(%rdx)
    88e3:	48 8b 0d 00 00 00 00 	mov    0x0(%rip),%rcx        # 88ea <initial_placement+0x7c0>
    88ea:	8b 45 e0             	mov    -0x20(%rbp),%eax
    88ed:	48 63 d0             	movslq %eax,%rdx
    88f0:	48 89 d0             	mov    %rdx,%rax
    88f3:	48 c1 e0 02          	shl    $0x2,%rax
    88f7:	48 01 d0             	add    %rdx,%rax
    88fa:	48 c1 e0 03          	shl    $0x3,%rax
    88fe:	48 8d 14 01          	lea    (%rcx,%rax,1),%rdx
    8902:	8b 45 e8             	mov    -0x18(%rbp),%eax
    8905:	89 42 1c             	mov    %eax,0x1c(%rdx)
    8908:	48 8b 0d 00 00 00 00 	mov    0x0(%rip),%rcx        # 890f <initial_placement+0x7e5>
    890f:	8b 45 e0             	mov    -0x20(%rbp),%eax
    8912:	48 63 d0             	movslq %eax,%rdx
    8915:	48 89 d0             	mov    %rdx,%rax
    8918:	48 c1 e0 02          	shl    $0x2,%rax
    891c:	48 01 d0             	add    %rdx,%rax
    891f:	48 c1 e0 03          	shl    $0x3,%rax
    8923:	48 8d 14 01          	lea    (%rcx,%rax,1),%rdx
    8927:	8b 45 e4             	mov    -0x1c(%rbp),%eax
    892a:	89 42 20             	mov    %eax,0x20(%rdx)
    892d:	83 45 e4 01          	addl   $0x1,-0x1c(%rbp)
    8931:	48 8b 05 00 00 00 00 	mov    0x0(%rip),%rax        # 8938 <initial_placement+0x80e>
    8938:	8b 55 ec             	mov    -0x14(%rbp),%edx
    893b:	48 63 d2             	movslq %edx,%rdx
    893e:	48 c1 e2 03          	shl    $0x3,%rdx
    8942:	48 01 d0             	add    %rdx,%rax
    8945:	48 8b 08             	mov    (%rax),%rcx
    8948:	8b 45 e8             	mov    -0x18(%rbp),%eax
    894b:	48 63 d0             	movslq %eax,%rdx
    894e:	48 89 d0             	mov    %rdx,%rax
    8951:	48 01 c0             	add    %rax,%rax
    8954:	48 01 d0             	add    %rdx,%rax
    8957:	48 c1 e0 03          	shl    $0x3,%rax
    895b:	48 01 c8             	add    %rcx,%rax
    895e:	48 8b 00             	mov    (%rax),%rax
    8961:	8b 40 0c             	mov    0xc(%rax),%eax
    8964:	3b 45 e4             	cmp    -0x1c(%rbp),%eax
    8967:	0f 8f b3 fe ff ff    	jg     8820 <initial_placement+0x6f6>
    896d:	83 45 e8 01          	addl   $0x1,-0x18(%rbp)
    8971:	8b 05 00 00 00 00    	mov    0x0(%rip),%eax        # 8977 <initial_placement+0x84d>
    8977:	83 c0 01             	add    $0x1,%eax
    897a:	3b 45 e8             	cmp    -0x18(%rbp),%eax
    897d:	0f 8d 91 fe ff ff    	jge    8814 <initial_placement+0x6ea>
    8983:	83 45 ec 01          	addl   $0x1,-0x14(%rbp)
    8987:	8b 05 00 00 00 00    	mov    0x0(%rip),%eax        # 898d <initial_placement+0x863>
    898d:	83 c0 01             	add    $0x1,%eax
    8990:	3b 45 ec             	cmp    -0x14(%rbp),%eax
    8993:	0f 8d 6f fe ff ff    	jge    8808 <initial_placement+0x6de>
    8999:	c7 45 ec 00 00 00 00 	movl   $0x0,-0x14(%rbp)
    89a0:	eb 23                	jmp    89c5 <initial_placement+0x89b>
    89a2:	8b 45 ec             	mov    -0x14(%rbp),%eax
    89a5:	48 98                	cltq   
    89a7:	48 8d 14 c5 00 00 00 	lea    0x0(,%rax,8),%rdx
    89ae:	00 
    89af:	48 8b 45 d8          	mov    -0x28(%rbp),%rax
    89b3:	48 01 d0             	add    %rdx,%rax
    89b6:	48 8b 00             	mov    (%rax),%rax
    89b9:	48 89 c7             	mov    %rax,%rdi
    89bc:	e8 00 00 00 00       	callq  89c1 <initial_placement+0x897>
    89c1:	83 45 ec 01          	addl   $0x1,-0x14(%rbp)
    89c5:	8b 05 00 00 00 00    	mov    0x0(%rip),%eax        # 89cb <initial_placement+0x8a1>
    89cb:	39 45 ec             	cmp    %eax,-0x14(%rbp)
    89ce:	7c d2                	jl     89a2 <initial_placement+0x878>
    89d0:	48 8b 45 d8          	mov    -0x28(%rbp),%rax
    89d4:	48 89 c7             	mov    %rax,%rdi
    89d7:	e8 00 00 00 00       	callq  89dc <initial_placement+0x8b2>
    89dc:	48 8b 45 c8          	mov    -0x38(%rbp),%rax
    89e0:	48 89 c7             	mov    %rax,%rdi
    89e3:	e8 00 00 00 00       	callq  89e8 <initial_placement+0x8be>
    89e8:	48 8b 45 d0          	mov    -0x30(%rbp),%rax
    89ec:	48 89 c7             	mov    %rax,%rdi
    89ef:	e8 00 00 00 00       	callq  89f4 <initial_placement+0x8ca>
    89f4:	90                   	nop
    89f5:	48 83 c4 58          	add    $0x58,%rsp
    89f9:	5b                   	pop    %rbx
    89fa:	5d                   	pop    %rbp
    89fb:	c3                   	retq   

00000000000089fc <free_fast_cost_update_structs>:
    89fc:	55                   	push   %rbp
    89fd:	48 89 e5             	mov    %rsp,%rbp
    8a00:	48 83 ec 10          	sub    $0x10,%rsp
    8a04:	ff 15 00 00 00 00    	callq  *0x0(%rip)        # 8a0a <free_fast_cost_update_structs+0xe>
    8a0a:	c7 45 fc 00 00 00 00 	movl   $0x0,-0x4(%rbp)
    8a11:	eb 23                	jmp    8a36 <free_fast_cost_update_structs+0x3a>
    8a13:	48 8b 05 00 00 00 00 	mov    0x0(%rip),%rax        # 8a1a <free_fast_cost_update_structs+0x1e>
    8a1a:	8b 55 fc             	mov    -0x4(%rbp),%edx
    8a1d:	48 63 d2             	movslq %edx,%rdx
    8a20:	48 c1 e2 03          	shl    $0x3,%rdx
    8a24:	48 01 d0             	add    %rdx,%rax
    8a27:	48 8b 00             	mov    (%rax),%rax
    8a2a:	48 89 c7             	mov    %rax,%rdi
    8a2d:	e8 00 00 00 00       	callq  8a32 <free_fast_cost_update_structs+0x36>
    8a32:	83 45 fc 01          	addl   $0x1,-0x4(%rbp)
    8a36:	8b 05 00 00 00 00    	mov    0x0(%rip),%eax        # 8a3c <free_fast_cost_update_structs+0x40>
    8a3c:	39 45 fc             	cmp    %eax,-0x4(%rbp)
    8a3f:	7e d2                	jle    8a13 <free_fast_cost_update_structs+0x17>
    8a41:	48 8b 05 00 00 00 00 	mov    0x0(%rip),%rax        # 8a48 <free_fast_cost_update_structs+0x4c>
    8a48:	48 89 c7             	mov    %rax,%rdi
    8a4b:	e8 00 00 00 00       	callq  8a50 <free_fast_cost_update_structs+0x54>
    8a50:	c7 45 fc 00 00 00 00 	movl   $0x0,-0x4(%rbp)
    8a57:	eb 23                	jmp    8a7c <free_fast_cost_update_structs+0x80>
    8a59:	48 8b 05 00 00 00 00 	mov    0x0(%rip),%rax        # 8a60 <free_fast_cost_update_structs+0x64>
    8a60:	8b 55 fc             	mov    -0x4(%rbp),%edx
    8a63:	48 63 d2             	movslq %edx,%rdx
    8a66:	48 c1 e2 03          	shl    $0x3,%rdx
    8a6a:	48 01 d0             	add    %rdx,%rax
    8a6d:	48 8b 00             	mov    (%rax),%rax
    8a70:	48 89 c7             	mov    %rax,%rdi
    8a73:	e8 00 00 00 00       	callq  8a78 <free_fast_cost_update_structs+0x7c>
    8a78:	83 45 fc 01          	addl   $0x1,-0x4(%rbp)
    8a7c:	8b 05 00 00 00 00    	mov    0x0(%rip),%eax        # 8a82 <free_fast_cost_update_structs+0x86>
    8a82:	39 45 fc             	cmp    %eax,-0x4(%rbp)
    8a85:	7e d2                	jle    8a59 <free_fast_cost_update_structs+0x5d>
    8a87:	48 8b 05 00 00 00 00 	mov    0x0(%rip),%rax        # 8a8e <free_fast_cost_update_structs+0x92>
    8a8e:	48 89 c7             	mov    %rax,%rdi
    8a91:	e8 00 00 00 00       	callq  8a96 <free_fast_cost_update_structs+0x9a>
    8a96:	90                   	nop
    8a97:	c9                   	leaveq 
    8a98:	c3                   	retq   

0000000000008a99 <alloc_and_load_for_fast_cost_update>:
    8a99:	55                   	push   %rbp
    8a9a:	48 89 e5             	mov    %rsp,%rbp
    8a9d:	53                   	push   %rbx
    8a9e:	48 83 ec 28          	sub    $0x28,%rsp
    8aa2:	ff 15 00 00 00 00    	callq  *0x0(%rip)        # 8aa8 <alloc_and_load_for_fast_cost_update+0xf>
    8aa8:	f3 0f 11 45 dc       	movss  %xmm0,-0x24(%rbp)
    8aad:	8b 05 00 00 00 00    	mov    0x0(%rip),%eax        # 8ab3 <alloc_and_load_for_fast_cost_update+0x1a>
    8ab3:	83 c0 01             	add    $0x1,%eax
    8ab6:	48 98                	cltq   
    8ab8:	48 c1 e0 03          	shl    $0x3,%rax
    8abc:	48 89 c7             	mov    %rax,%rdi
    8abf:	e8 00 00 00 00       	callq  8ac4 <alloc_and_load_for_fast_cost_update+0x2b>
    8ac4:	48 89 05 00 00 00 00 	mov    %rax,0x0(%rip)        # 8acb <alloc_and_load_for_fast_cost_update+0x32>
    8acb:	c7 45 e4 00 00 00 00 	movl   $0x0,-0x1c(%rbp)
    8ad2:	eb 30                	jmp    8b04 <alloc_and_load_for_fast_cost_update+0x6b>
    8ad4:	48 8b 05 00 00 00 00 	mov    0x0(%rip),%rax        # 8adb <alloc_and_load_for_fast_cost_update+0x42>
    8adb:	8b 55 e4             	mov    -0x1c(%rbp),%edx
    8ade:	48 63 d2             	movslq %edx,%rdx
    8ae1:	48 c1 e2 03          	shl    $0x3,%rdx
    8ae5:	48 8d 1c 10          	lea    (%rax,%rdx,1),%rbx
    8ae9:	8b 45 e4             	mov    -0x1c(%rbp),%eax
    8aec:	83 c0 01             	add    $0x1,%eax
    8aef:	48 98                	cltq   
    8af1:	48 c1 e0 02          	shl    $0x2,%rax
    8af5:	48 89 c7             	mov    %rax,%rdi
    8af8:	e8 00 00 00 00       	callq  8afd <alloc_and_load_for_fast_cost_update+0x64>
    8afd:	48 89 03             	mov    %rax,(%rbx)
    8b00:	83 45 e4 01          	addl   $0x1,-0x1c(%rbp)
    8b04:	8b 05 00 00 00 00    	mov    0x0(%rip),%eax        # 8b0a <alloc_and_load_for_fast_cost_update+0x71>
    8b0a:	39 45 e4             	cmp    %eax,-0x1c(%rbp)
    8b0d:	7e c5                	jle    8ad4 <alloc_and_load_for_fast_cost_update+0x3b>
    8b0f:	8b 05 00 00 00 00    	mov    0x0(%rip),%eax        # 8b15 <alloc_and_load_for_fast_cost_update+0x7c>
    8b15:	83 c0 01             	add    $0x1,%eax
    8b18:	48 98                	cltq   
    8b1a:	48 c1 e0 03          	shl    $0x3,%rax
    8b1e:	48 89 c7             	mov    %rax,%rdi
    8b21:	e8 00 00 00 00       	callq  8b26 <alloc_and_load_for_fast_cost_update+0x8d>
    8b26:	48 89 05 00 00 00 00 	mov    %rax,0x0(%rip)        # 8b2d <alloc_and_load_for_fast_cost_update+0x94>
    8b2d:	c7 45 e4 00 00 00 00 	movl   $0x0,-0x1c(%rbp)
    8b34:	eb 30                	jmp    8b66 <alloc_and_load_for_fast_cost_update+0xcd>
    8b36:	48 8b 05 00 00 00 00 	mov    0x0(%rip),%rax        # 8b3d <alloc_and_load_for_fast_cost_update+0xa4>
    8b3d:	8b 55 e4             	mov    -0x1c(%rbp),%edx
    8b40:	48 63 d2             	movslq %edx,%rdx
    8b43:	48 c1 e2 03          	shl    $0x3,%rdx
    8b47:	48 8d 1c 10          	lea    (%rax,%rdx,1),%rbx
    8b4b:	8b 45 e4             	mov    -0x1c(%rbp),%eax
    8b4e:	83 c0 01             	add    $0x1,%eax
    8b51:	48 98                	cltq   
    8b53:	48 c1 e0 02          	shl    $0x2,%rax
    8b57:	48 89 c7             	mov    %rax,%rdi
    8b5a:	e8 00 00 00 00       	callq  8b5f <alloc_and_load_for_fast_cost_update+0xc6>
    8b5f:	48 89 03             	mov    %rax,(%rbx)
    8b62:	83 45 e4 01          	addl   $0x1,-0x1c(%rbp)
    8b66:	8b 05 00 00 00 00    	mov    0x0(%rip),%eax        # 8b6c <alloc_and_load_for_fast_cost_update+0xd3>
    8b6c:	39 45 e4             	cmp    %eax,-0x1c(%rbp)
    8b6f:	7e c5                	jle    8b36 <alloc_and_load_for_fast_cost_update+0x9d>
    8b71:	48 8b 05 00 00 00 00 	mov    0x0(%rip),%rax        # 8b78 <alloc_and_load_for_fast_cost_update+0xdf>
    8b78:	48 8b 00             	mov    (%rax),%rax
    8b7b:	48 8b 15 00 00 00 00 	mov    0x0(%rip),%rdx        # 8b82 <alloc_and_load_for_fast_cost_update+0xe9>
    8b82:	8b 12                	mov    (%rdx),%edx
    8b84:	66 0f ef c0          	pxor   %xmm0,%xmm0
    8b88:	f3 0f 2a c2          	cvtsi2ss %edx,%xmm0
    8b8c:	f3 0f 11 00          	movss  %xmm0,(%rax)
    8b90:	c7 45 e8 01 00 00 00 	movl   $0x1,-0x18(%rbp)
    8b97:	e9 d9 00 00 00       	jmpq   8c75 <alloc_and_load_for_fast_cost_update+0x1dc>
    8b9c:	48 8b 05 00 00 00 00 	mov    0x0(%rip),%rax        # 8ba3 <alloc_and_load_for_fast_cost_update+0x10a>
    8ba3:	8b 55 e8             	mov    -0x18(%rbp),%edx
    8ba6:	48 63 d2             	movslq %edx,%rdx
    8ba9:	48 c1 e2 03          	shl    $0x3,%rdx
    8bad:	48 01 d0             	add    %rdx,%rax
    8bb0:	48 8b 00             	mov    (%rax),%rax
    8bb3:	8b 55 e8             	mov    -0x18(%rbp),%edx
    8bb6:	48 63 d2             	movslq %edx,%rdx
    8bb9:	48 c1 e2 02          	shl    $0x2,%rdx
    8bbd:	48 01 d0             	add    %rdx,%rax
    8bc0:	48 8b 15 00 00 00 00 	mov    0x0(%rip),%rdx        # 8bc7 <alloc_and_load_for_fast_cost_update+0x12e>
    8bc7:	8b 4d e8             	mov    -0x18(%rbp),%ecx
    8bca:	48 63 c9             	movslq %ecx,%rcx
    8bcd:	48 c1 e1 02          	shl    $0x2,%rcx
    8bd1:	48 01 ca             	add    %rcx,%rdx
    8bd4:	8b 12                	mov    (%rdx),%edx
    8bd6:	66 0f ef c0          	pxor   %xmm0,%xmm0
    8bda:	f3 0f 2a c2          	cvtsi2ss %edx,%xmm0
    8bde:	f3 0f 11 00          	movss  %xmm0,(%rax)
    8be2:	c7 45 ec 00 00 00 00 	movl   $0x0,-0x14(%rbp)
    8be9:	eb 7a                	jmp    8c65 <alloc_and_load_for_fast_cost_update+0x1cc>
    8beb:	48 8b 05 00 00 00 00 	mov    0x0(%rip),%rax        # 8bf2 <alloc_and_load_for_fast_cost_update+0x159>
    8bf2:	8b 55 e8             	mov    -0x18(%rbp),%edx
    8bf5:	48 63 d2             	movslq %edx,%rdx
    8bf8:	48 c1 e2 03          	shl    $0x3,%rdx
    8bfc:	48 01 d0             	add    %rdx,%rax
    8bff:	48 8b 00             	mov    (%rax),%rax
    8c02:	8b 55 ec             	mov    -0x14(%rbp),%edx
    8c05:	48 63 d2             	movslq %edx,%rdx
    8c08:	48 c1 e2 02          	shl    $0x2,%rdx
    8c0c:	48 01 d0             	add    %rdx,%rax
    8c0f:	48 8b 15 00 00 00 00 	mov    0x0(%rip),%rdx        # 8c16 <alloc_and_load_for_fast_cost_update+0x17d>
    8c16:	8b 4d e8             	mov    -0x18(%rbp),%ecx
    8c19:	48 63 c9             	movslq %ecx,%rcx
    8c1c:	48 c1 e1 03          	shl    $0x3,%rcx
    8c20:	48 83 e9 08          	sub    $0x8,%rcx
    8c24:	48 01 ca             	add    %rcx,%rdx
    8c27:	48 8b 12             	mov    (%rdx),%rdx
    8c2a:	8b 4d ec             	mov    -0x14(%rbp),%ecx
    8c2d:	48 63 c9             	movslq %ecx,%rcx
    8c30:	48 c1 e1 02          	shl    $0x2,%rcx
    8c34:	48 01 ca             	add    %rcx,%rdx
    8c37:	f3 0f 10 0a          	movss  (%rdx),%xmm1
    8c3b:	48 8b 15 00 00 00 00 	mov    0x0(%rip),%rdx        # 8c42 <alloc_and_load_for_fast_cost_update+0x1a9>
    8c42:	8b 4d e8             	mov    -0x18(%rbp),%ecx
    8c45:	48 63 c9             	movslq %ecx,%rcx
    8c48:	48 c1 e1 02          	shl    $0x2,%rcx
    8c4c:	48 01 ca             	add    %rcx,%rdx
    8c4f:	8b 12                	mov    (%rdx),%edx
    8c51:	66 0f ef c0          	pxor   %xmm0,%xmm0
    8c55:	f3 0f 2a c2          	cvtsi2ss %edx,%xmm0
    8c59:	f3 0f 58 c1          	addss  %xmm1,%xmm0
    8c5d:	f3 0f 11 00          	movss  %xmm0,(%rax)
    8c61:	83 45 ec 01          	addl   $0x1,-0x14(%rbp)
    8c65:	8b 45 ec             	mov    -0x14(%rbp),%eax
    8c68:	3b 45 e8             	cmp    -0x18(%rbp),%eax
    8c6b:	0f 8c 7a ff ff ff    	jl     8beb <alloc_and_load_for_fast_cost_update+0x152>
    8c71:	83 45 e8 01          	addl   $0x1,-0x18(%rbp)
    8c75:	8b 05 00 00 00 00    	mov    0x0(%rip),%eax        # 8c7b <alloc_and_load_for_fast_cost_update+0x1e2>
    8c7b:	39 45 e8             	cmp    %eax,-0x18(%rbp)
    8c7e:	0f 8e 18 ff ff ff    	jle    8b9c <alloc_and_load_for_fast_cost_update+0x103>
    8c84:	c7 45 e8 00 00 00 00 	movl   $0x0,-0x18(%rbp)
    8c8b:	e9 f9 00 00 00       	jmpq   8d89 <alloc_and_load_for_fast_cost_update+0x2f0>
    8c90:	c7 45 ec 00 00 00 00 	movl   $0x0,-0x14(%rbp)
    8c97:	e9 dd 00 00 00       	jmpq   8d79 <alloc_and_load_for_fast_cost_update+0x2e0>
    8c9c:	48 8b 05 00 00 00 00 	mov    0x0(%rip),%rax        # 8ca3 <alloc_and_load_for_fast_cost_update+0x20a>
    8ca3:	8b 55 e8             	mov    -0x18(%rbp),%edx
    8ca6:	48 63 d2             	movslq %edx,%rdx
    8ca9:	48 c1 e2 03          	shl    $0x3,%rdx
    8cad:	48 01 d0             	add    %rdx,%rax
    8cb0:	48 8b 00             	mov    (%rax),%rax
    8cb3:	8b 55 ec             	mov    -0x14(%rbp),%edx
    8cb6:	48 63 d2             	movslq %edx,%rdx
    8cb9:	48 c1 e2 02          	shl    $0x2,%rdx
    8cbd:	48 01 c2             	add    %rax,%rdx
    8cc0:	8b 45 e8             	mov    -0x18(%rbp),%eax
    8cc3:	2b 45 ec             	sub    -0x14(%rbp),%eax
    8cc6:	66 0f ef c0          	pxor   %xmm0,%xmm0
    8cca:	f2 0f 2a c0          	cvtsi2sd %eax,%xmm0
    8cce:	f2 0f 10 0d 00 00 00 	movsd  0x0(%rip),%xmm1        # 8cd6 <alloc_and_load_for_fast_cost_update+0x23d>
    8cd5:	00 
    8cd6:	f2 0f 58 c1          	addsd  %xmm1,%xmm0
    8cda:	48 8b 05 00 00 00 00 	mov    0x0(%rip),%rax        # 8ce1 <alloc_and_load_for_fast_cost_update+0x248>
    8ce1:	8b 4d e8             	mov    -0x18(%rbp),%ecx
    8ce4:	48 63 c9             	movslq %ecx,%rcx
    8ce7:	48 c1 e1 03          	shl    $0x3,%rcx
    8ceb:	48 01 c8             	add    %rcx,%rax
    8cee:	48 8b 00             	mov    (%rax),%rax
    8cf1:	8b 4d ec             	mov    -0x14(%rbp),%ecx
    8cf4:	48 63 c9             	movslq %ecx,%rcx
    8cf7:	48 c1 e1 02          	shl    $0x2,%rcx
    8cfb:	48 01 c8             	add    %rcx,%rax
    8cfe:	f3 0f 10 08          	movss  (%rax),%xmm1
    8d02:	f3 0f 5a c9          	cvtss2sd %xmm1,%xmm1
    8d06:	f2 0f 5e c1          	divsd  %xmm1,%xmm0
    8d0a:	f2 0f 5a c0          	cvtsd2ss %xmm0,%xmm0
    8d0e:	f3 0f 11 02          	movss  %xmm0,(%rdx)
    8d12:	48 8b 05 00 00 00 00 	mov    0x0(%rip),%rax        # 8d19 <alloc_and_load_for_fast_cost_update+0x280>
    8d19:	8b 55 e8             	mov    -0x18(%rbp),%edx
    8d1c:	48 63 d2             	movslq %edx,%rdx
    8d1f:	48 c1 e2 03          	shl    $0x3,%rdx
    8d23:	48 01 d0             	add    %rdx,%rax
    8d26:	48 8b 00             	mov    (%rax),%rax
    8d29:	8b 55 ec             	mov    -0x14(%rbp),%edx
    8d2c:	48 63 d2             	movslq %edx,%rdx
    8d2f:	48 c1 e2 02          	shl    $0x2,%rdx
    8d33:	48 8d 1c 10          	lea    (%rax,%rdx,1),%rbx
    8d37:	f3 0f 5a 4d dc       	cvtss2sd -0x24(%rbp),%xmm1
    8d3c:	48 8b 05 00 00 00 00 	mov    0x0(%rip),%rax        # 8d43 <alloc_and_load_for_fast_cost_update+0x2aa>
    8d43:	8b 55 e8             	mov    -0x18(%rbp),%edx
    8d46:	48 63 d2             	movslq %edx,%rdx
    8d49:	48 c1 e2 03          	shl    $0x3,%rdx
    8d4d:	48 01 d0             	add    %rdx,%rax
    8d50:	48 8b 00             	mov    (%rax),%rax
    8d53:	8b 55 ec             	mov    -0x14(%rbp),%edx
    8d56:	48 63 d2             	movslq %edx,%rdx
    8d59:	48 c1 e2 02          	shl    $0x2,%rdx
    8d5d:	48 01 d0             	add    %rdx,%rax
    8d60:	f3 0f 10 00          	movss  (%rax),%xmm0
    8d64:	f3 0f 5a c0          	cvtss2sd %xmm0,%xmm0
    8d68:	e8 00 00 00 00       	callq  8d6d <alloc_and_load_for_fast_cost_update+0x2d4>
    8d6d:	f2 0f 5a c0          	cvtsd2ss %xmm0,%xmm0
    8d71:	f3 0f 11 03          	movss  %xmm0,(%rbx)
    8d75:	83 45 ec 01          	addl   $0x1,-0x14(%rbp)
    8d79:	8b 45 ec             	mov    -0x14(%rbp),%eax
    8d7c:	3b 45 e8             	cmp    -0x18(%rbp),%eax
    8d7f:	0f 8e 17 ff ff ff    	jle    8c9c <alloc_and_load_for_fast_cost_update+0x203>
    8d85:	83 45 e8 01          	addl   $0x1,-0x18(%rbp)
    8d89:	8b 05 00 00 00 00    	mov    0x0(%rip),%eax        # 8d8f <alloc_and_load_for_fast_cost_update+0x2f6>
    8d8f:	39 45 e8             	cmp    %eax,-0x18(%rbp)
    8d92:	0f 8e f8 fe ff ff    	jle    8c90 <alloc_and_load_for_fast_cost_update+0x1f7>
    8d98:	48 8b 05 00 00 00 00 	mov    0x0(%rip),%rax        # 8d9f <alloc_and_load_for_fast_cost_update+0x306>
    8d9f:	48 8b 00             	mov    (%rax),%rax
    8da2:	48 8b 15 00 00 00 00 	mov    0x0(%rip),%rdx        # 8da9 <alloc_and_load_for_fast_cost_update+0x310>
    8da9:	8b 12                	mov    (%rdx),%edx
    8dab:	66 0f ef c0          	pxor   %xmm0,%xmm0
    8daf:	f3 0f 2a c2          	cvtsi2ss %edx,%xmm0
    8db3:	f3 0f 11 00          	movss  %xmm0,(%rax)
    8db7:	c7 45 e8 01 00 00 00 	movl   $0x1,-0x18(%rbp)
    8dbe:	e9 d9 00 00 00       	jmpq   8e9c <alloc_and_load_for_fast_cost_update+0x403>
    8dc3:	48 8b 05 00 00 00 00 	mov    0x0(%rip),%rax        # 8dca <alloc_and_load_for_fast_cost_update+0x331>
    8dca:	8b 55 e8             	mov    -0x18(%rbp),%edx
    8dcd:	48 63 d2             	movslq %edx,%rdx
    8dd0:	48 c1 e2 03          	shl    $0x3,%rdx
    8dd4:	48 01 d0             	add    %rdx,%rax
    8dd7:	48 8b 00             	mov    (%rax),%rax
    8dda:	8b 55 e8             	mov    -0x18(%rbp),%edx
    8ddd:	48 63 d2             	movslq %edx,%rdx
    8de0:	48 c1 e2 02          	shl    $0x2,%rdx
    8de4:	48 01 d0             	add    %rdx,%rax
    8de7:	48 8b 15 00 00 00 00 	mov    0x0(%rip),%rdx        # 8dee <alloc_and_load_for_fast_cost_update+0x355>
    8dee:	8b 4d e8             	mov    -0x18(%rbp),%ecx
    8df1:	48 63 c9             	movslq %ecx,%rcx
    8df4:	48 c1 e1 02          	shl    $0x2,%rcx
    8df8:	48 01 ca             	add    %rcx,%rdx
    8dfb:	8b 12                	mov    (%rdx),%edx
    8dfd:	66 0f ef c0          	pxor   %xmm0,%xmm0
    8e01:	f3 0f 2a c2          	cvtsi2ss %edx,%xmm0
    8e05:	f3 0f 11 00          	movss  %xmm0,(%rax)
    8e09:	c7 45 ec 00 00 00 00 	movl   $0x0,-0x14(%rbp)
    8e10:	eb 7a                	jmp    8e8c <alloc_and_load_for_fast_cost_update+0x3f3>
    8e12:	48 8b 05 00 00 00 00 	mov    0x0(%rip),%rax        # 8e19 <alloc_and_load_for_fast_cost_update+0x380>
    8e19:	8b 55 e8             	mov    -0x18(%rbp),%edx
    8e1c:	48 63 d2             	movslq %edx,%rdx
    8e1f:	48 c1 e2 03          	shl    $0x3,%rdx
    8e23:	48 01 d0             	add    %rdx,%rax
    8e26:	48 8b 00             	mov    (%rax),%rax
    8e29:	8b 55 ec             	mov    -0x14(%rbp),%edx
    8e2c:	48 63 d2             	movslq %edx,%rdx
    8e2f:	48 c1 e2 02          	shl    $0x2,%rdx
    8e33:	48 01 d0             	add    %rdx,%rax
    8e36:	48 8b 15 00 00 00 00 	mov    0x0(%rip),%rdx        # 8e3d <alloc_and_load_for_fast_cost_update+0x3a4>
    8e3d:	8b 4d e8             	mov    -0x18(%rbp),%ecx
    8e40:	48 63 c9             	movslq %ecx,%rcx
    8e43:	48 c1 e1 03          	shl    $0x3,%rcx
    8e47:	48 83 e9 08          	sub    $0x8,%rcx
    8e4b:	48 01 ca             	add    %rcx,%rdx
    8e4e:	48 8b 12             	mov    (%rdx),%rdx
    8e51:	8b 4d ec             	mov    -0x14(%rbp),%ecx
    8e54:	48 63 c9             	movslq %ecx,%rcx
    8e57:	48 c1 e1 02          	shl    $0x2,%rcx
    8e5b:	48 01 ca             	add    %rcx,%rdx
    8e5e:	f3 0f 10 0a          	movss  (%rdx),%xmm1
    8e62:	48 8b 15 00 00 00 00 	mov    0x0(%rip),%rdx        # 8e69 <alloc_and_load_for_fast_cost_update+0x3d0>
    8e69:	8b 4d e8             	mov    -0x18(%rbp),%ecx
    8e6c:	48 63 c9             	movslq %ecx,%rcx
    8e6f:	48 c1 e1 02          	shl    $0x2,%rcx
    8e73:	48 01 ca             	add    %rcx,%rdx
    8e76:	8b 12                	mov    (%rdx),%edx
    8e78:	66 0f ef c0          	pxor   %xmm0,%xmm0
    8e7c:	f3 0f 2a c2          	cvtsi2ss %edx,%xmm0
    8e80:	f3 0f 58 c1          	addss  %xmm1,%xmm0
    8e84:	f3 0f 11 00          	movss  %xmm0,(%rax)
    8e88:	83 45 ec 01          	addl   $0x1,-0x14(%rbp)
    8e8c:	8b 45 ec             	mov    -0x14(%rbp),%eax
    8e8f:	3b 45 e8             	cmp    -0x18(%rbp),%eax
    8e92:	0f 8c 7a ff ff ff    	jl     8e12 <alloc_and_load_for_fast_cost_update+0x379>
    8e98:	83 45 e8 01          	addl   $0x1,-0x18(%rbp)
    8e9c:	8b 05 00 00 00 00    	mov    0x0(%rip),%eax        # 8ea2 <alloc_and_load_for_fast_cost_update+0x409>
    8ea2:	39 45 e8             	cmp    %eax,-0x18(%rbp)
    8ea5:	0f 8e 18 ff ff ff    	jle    8dc3 <alloc_and_load_for_fast_cost_update+0x32a>
    8eab:	c7 45 e8 00 00 00 00 	movl   $0x0,-0x18(%rbp)
    8eb2:	e9 f9 00 00 00       	jmpq   8fb0 <alloc_and_load_for_fast_cost_update+0x517>
    8eb7:	c7 45 ec 00 00 00 00 	movl   $0x0,-0x14(%rbp)
    8ebe:	e9 dd 00 00 00       	jmpq   8fa0 <alloc_and_load_for_fast_cost_update+0x507>
    8ec3:	48 8b 05 00 00 00 00 	mov    0x0(%rip),%rax        # 8eca <alloc_and_load_for_fast_cost_update+0x431>
    8eca:	8b 55 e8             	mov    -0x18(%rbp),%edx
    8ecd:	48 63 d2             	movslq %edx,%rdx
    8ed0:	48 c1 e2 03          	shl    $0x3,%rdx
    8ed4:	48 01 d0             	add    %rdx,%rax
    8ed7:	48 8b 00             	mov    (%rax),%rax
    8eda:	8b 55 ec             	mov    -0x14(%rbp),%edx
    8edd:	48 63 d2             	movslq %edx,%rdx
    8ee0:	48 c1 e2 02          	shl    $0x2,%rdx
    8ee4:	48 01 c2             	add    %rax,%rdx
    8ee7:	8b 45 e8             	mov    -0x18(%rbp),%eax
    8eea:	2b 45 ec             	sub    -0x14(%rbp),%eax
    8eed:	66 0f ef c0          	pxor   %xmm0,%xmm0
    8ef1:	f2 0f 2a c0          	cvtsi2sd %eax,%xmm0
    8ef5:	f2 0f 10 0d 00 00 00 	movsd  0x0(%rip),%xmm1        # 8efd <alloc_and_load_for_fast_cost_update+0x464>
    8efc:	00 
    8efd:	f2 0f 58 c1          	addsd  %xmm1,%xmm0
    8f01:	48 8b 05 00 00 00 00 	mov    0x0(%rip),%rax        # 8f08 <alloc_and_load_for_fast_cost_update+0x46f>
    8f08:	8b 4d e8             	mov    -0x18(%rbp),%ecx
    8f0b:	48 63 c9             	movslq %ecx,%rcx
    8f0e:	48 c1 e1 03          	shl    $0x3,%rcx
    8f12:	48 01 c8             	add    %rcx,%rax
    8f15:	48 8b 00             	mov    (%rax),%rax
    8f18:	8b 4d ec             	mov    -0x14(%rbp),%ecx
    8f1b:	48 63 c9             	movslq %ecx,%rcx
    8f1e:	48 c1 e1 02          	shl    $0x2,%rcx
    8f22:	48 01 c8             	add    %rcx,%rax
    8f25:	f3 0f 10 08          	movss  (%rax),%xmm1
    8f29:	f3 0f 5a c9          	cvtss2sd %xmm1,%xmm1
    8f2d:	f2 0f 5e c1          	divsd  %xmm1,%xmm0
    8f31:	f2 0f 5a c0          	cvtsd2ss %xmm0,%xmm0
    8f35:	f3 0f 11 02          	movss  %xmm0,(%rdx)
    8f39:	48 8b 05 00 00 00 00 	mov    0x0(%rip),%rax        # 8f40 <alloc_and_load_for_fast_cost_update+0x4a7>
    8f40:	8b 55 e8             	mov    -0x18(%rbp),%edx
    8f43:	48 63 d2             	movslq %edx,%rdx
    8f46:	48 c1 e2 03          	shl    $0x3,%rdx
    8f4a:	48 01 d0             	add    %rdx,%rax
    8f4d:	48 8b 00             	mov    (%rax),%rax
    8f50:	8b 55 ec             	mov    -0x14(%rbp),%edx
    8f53:	48 63 d2             	movslq %edx,%rdx
    8f56:	48 c1 e2 02          	shl    $0x2,%rdx
    8f5a:	48 8d 1c 10          	lea    (%rax,%rdx,1),%rbx
    8f5e:	f3 0f 5a 4d dc       	cvtss2sd -0x24(%rbp),%xmm1
    8f63:	48 8b 05 00 00 00 00 	mov    0x0(%rip),%rax        # 8f6a <alloc_and_load_for_fast_cost_update+0x4d1>
    8f6a:	8b 55 e8             	mov    -0x18(%rbp),%edx
    8f6d:	48 63 d2             	movslq %edx,%rdx
    8f70:	48 c1 e2 03          	shl    $0x3,%rdx
    8f74:	48 01 d0             	add    %rdx,%rax
    8f77:	48 8b 00             	mov    (%rax),%rax
    8f7a:	8b 55 ec             	mov    -0x14(%rbp),%edx
    8f7d:	48 63 d2             	movslq %edx,%rdx
    8f80:	48 c1 e2 02          	shl    $0x2,%rdx
    8f84:	48 01 d0             	add    %rdx,%rax
    8f87:	f3 0f 10 00          	movss  (%rax),%xmm0
    8f8b:	f3 0f 5a c0          	cvtss2sd %xmm0,%xmm0
    8f8f:	e8 00 00 00 00       	callq  8f94 <alloc_and_load_for_fast_cost_update+0x4fb>
    8f94:	f2 0f 5a c0          	cvtsd2ss %xmm0,%xmm0
    8f98:	f3 0f 11 03          	movss  %xmm0,(%rbx)
    8f9c:	83 45 ec 01          	addl   $0x1,-0x14(%rbp)
    8fa0:	8b 45 ec             	mov    -0x14(%rbp),%eax
    8fa3:	3b 45 e8             	cmp    -0x18(%rbp),%eax
    8fa6:	0f 8e 17 ff ff ff    	jle    8ec3 <alloc_and_load_for_fast_cost_update+0x42a>
    8fac:	83 45 e8 01          	addl   $0x1,-0x18(%rbp)
    8fb0:	8b 05 00 00 00 00    	mov    0x0(%rip),%eax        # 8fb6 <alloc_and_load_for_fast_cost_update+0x51d>
    8fb6:	39 45 e8             	cmp    %eax,-0x18(%rbp)
    8fb9:	0f 8e f8 fe ff ff    	jle    8eb7 <alloc_and_load_for_fast_cost_update+0x41e>
    8fbf:	90                   	nop
    8fc0:	48 83 c4 28          	add    $0x28,%rsp
    8fc4:	5b                   	pop    %rbx
    8fc5:	5d                   	pop    %rbp
    8fc6:	c3                   	retq   

0000000000008fc7 <check_place>:
    8fc7:	55                   	push   %rbp
    8fc8:	48 89 e5             	mov    %rsp,%rbp
    8fcb:	48 83 ec 50          	sub    $0x50,%rsp
    8fcf:	ff 15 00 00 00 00    	callq  *0x0(%rip)        # 8fd5 <check_place+0xe>
    8fd5:	f3 0f 11 45 cc       	movss  %xmm0,-0x34(%rbp)
    8fda:	f3 0f 11 4d c8       	movss  %xmm1,-0x38(%rbp)
    8fdf:	89 7d c4             	mov    %edi,-0x3c(%rbp)
    8fe2:	89 75 c0             	mov    %esi,-0x40(%rbp)
    8fe5:	89 55 bc             	mov    %edx,-0x44(%rbp)
    8fe8:	f3 0f 11 55 b8       	movss  %xmm2,-0x48(%rbp)
    8fed:	c7 45 f0 00 00 00 00 	movl   $0x0,-0x10(%rbp)
    8ff4:	8b 55 c0             	mov    -0x40(%rbp),%edx
    8ff7:	8b 45 c4             	mov    -0x3c(%rbp),%eax
    8ffa:	89 c6                	mov    %eax,%esi
    8ffc:	bf 01 00 00 00       	mov    $0x1,%edi
    9001:	e8 aa c0 ff ff       	callq  50b0 <comp_bb_cost>
    9006:	66 0f 7e c0          	movd   %xmm0,%eax
    900a:	89 45 e8             	mov    %eax,-0x18(%rbp)
    900d:	f3 0f 5a 45 e8       	cvtss2sd -0x18(%rbp),%xmm0
    9012:	48 8d 3d 00 00 00 00 	lea    0x0(%rip),%rdi        # 9019 <check_place+0x52>
    9019:	b8 01 00 00 00       	mov    $0x1,%eax
    901e:	e8 00 00 00 00       	callq  9023 <check_place+0x5c>
    9023:	f3 0f 10 45 e8       	movss  -0x18(%rbp),%xmm0
    9028:	f3 0f 5c 45 cc       	subss  -0x34(%rbp),%xmm0
    902d:	f3 0f 10 0d 00 00 00 	movss  0x0(%rip),%xmm1        # 9035 <check_place+0x6e>
    9034:	00 
    9035:	0f 54 c1             	andps  %xmm1,%xmm0
    9038:	f3 0f 5a c0          	cvtss2sd %xmm0,%xmm0
    903c:	f3 0f 5a 4d cc       	cvtss2sd -0x34(%rbp),%xmm1
    9041:	f2 0f 10 15 00 00 00 	movsd  0x0(%rip),%xmm2        # 9049 <check_place+0x82>
    9048:	00 
    9049:	f2 0f 59 ca          	mulsd  %xmm2,%xmm1
    904d:	66 0f 2e c1          	ucomisd %xmm1,%xmm0
    9051:	76 1f                	jbe    9072 <check_place+0xab>
    9053:	f3 0f 5a 4d cc       	cvtss2sd -0x34(%rbp),%xmm1
    9058:	f3 0f 5a 45 e8       	cvtss2sd -0x18(%rbp),%xmm0
    905d:	48 8d 3d 00 00 00 00 	lea    0x0(%rip),%rdi        # 9064 <check_place+0x9d>
    9064:	b8 02 00 00 00       	mov    $0x2,%eax
    9069:	e8 00 00 00 00       	callq  906e <check_place+0xa7>
    906e:	83 45 f0 01          	addl   $0x1,-0x10(%rbp)
    9072:	83 7d bc 01          	cmpl   $0x1,-0x44(%rbp)
    9076:	74 0a                	je     9082 <check_place+0xbb>
    9078:	83 7d bc 02          	cmpl   $0x2,-0x44(%rbp)
    907c:	0f 85 ed 00 00 00    	jne    916f <check_place+0x1a8>
    9082:	48 8d 55 dc          	lea    -0x24(%rbp),%rdx
    9086:	48 8d 45 e0          	lea    -0x20(%rbp),%rax
    908a:	48 89 d6             	mov    %rdx,%rsi
    908d:	48 89 c7             	mov    %rax,%rdi
    9090:	e8 34 be ff ff       	callq  4ec9 <comp_td_costs>
    9095:	f3 0f 10 45 e0       	movss  -0x20(%rbp),%xmm0
    909a:	f3 0f 5a c0          	cvtss2sd %xmm0,%xmm0
    909e:	48 8d 3d 00 00 00 00 	lea    0x0(%rip),%rdi        # 90a5 <check_place+0xde>
    90a5:	b8 01 00 00 00       	mov    $0x1,%eax
    90aa:	e8 00 00 00 00       	callq  90af <check_place+0xe8>
    90af:	f3 0f 10 45 e0       	movss  -0x20(%rbp),%xmm0
    90b4:	f3 0f 5c 45 c8       	subss  -0x38(%rbp),%xmm0
    90b9:	f3 0f 10 0d 00 00 00 	movss  0x0(%rip),%xmm1        # 90c1 <check_place+0xfa>
    90c0:	00 
    90c1:	0f 54 c1             	andps  %xmm1,%xmm0
    90c4:	f3 0f 5a c0          	cvtss2sd %xmm0,%xmm0
    90c8:	f3 0f 5a 4d c8       	cvtss2sd -0x38(%rbp),%xmm1
    90cd:	f2 0f 10 15 00 00 00 	movsd  0x0(%rip),%xmm2        # 90d5 <check_place+0x10e>
    90d4:	00 
    90d5:	f2 0f 59 ca          	mulsd  %xmm2,%xmm1
    90d9:	66 0f 2e c1          	ucomisd %xmm1,%xmm0
    90dd:	76 23                	jbe    9102 <check_place+0x13b>
    90df:	f3 0f 5a 4d c8       	cvtss2sd -0x38(%rbp),%xmm1
    90e4:	f3 0f 10 45 e0       	movss  -0x20(%rbp),%xmm0
    90e9:	f3 0f 5a c0          	cvtss2sd %xmm0,%xmm0
    90ed:	48 8d 3d 00 00 00 00 	lea    0x0(%rip),%rdi        # 90f4 <check_place+0x12d>
    90f4:	b8 02 00 00 00       	mov    $0x2,%eax
    90f9:	e8 00 00 00 00       	callq  90fe <check_place+0x137>
    90fe:	83 45 f0 01          	addl   $0x1,-0x10(%rbp)
    9102:	f3 0f 10 45 dc       	movss  -0x24(%rbp),%xmm0
    9107:	f3 0f 5a c0          	cvtss2sd %xmm0,%xmm0
    910b:	48 8d 3d 00 00 00 00 	lea    0x0(%rip),%rdi        # 9112 <check_place+0x14b>
    9112:	b8 01 00 00 00       	mov    $0x1,%eax
    9117:	e8 00 00 00 00       	callq  911c <check_place+0x155>
    911c:	f3 0f 10 45 dc       	movss  -0x24(%rbp),%xmm0
    9121:	f3 0f 5c 45 b8       	subss  -0x48(%rbp),%xmm0
    9126:	f3 0f 10 0d 00 00 00 	movss  0x0(%rip),%xmm1        # 912e <check_place+0x167>
    912d:	00 
    912e:	0f 54 c1             	andps  %xmm1,%xmm0
    9131:	f3 0f 5a c0          	cvtss2sd %xmm0,%xmm0
    9135:	f3 0f 5a 4d b8       	cvtss2sd -0x48(%rbp),%xmm1
    913a:	f2 0f 10 15 00 00 00 	movsd  0x0(%rip),%xmm2        # 9142 <check_place+0x17b>
    9141:	00 
    9142:	f2 0f 59 ca          	mulsd  %xmm2,%xmm1
    9146:	66 0f 2e c1          	ucomisd %xmm1,%xmm0
    914a:	76 23                	jbe    916f <check_place+0x1a8>
    914c:	f3 0f 5a 4d b8       	cvtss2sd -0x48(%rbp),%xmm1
    9151:	f3 0f 10 45 dc       	movss  -0x24(%rbp),%xmm0
    9156:	f3 0f 5a c0          	cvtss2sd %xmm0,%xmm0
    915a:	48 8d 3d 00 00 00 00 	lea    0x0(%rip),%rdi        # 9161 <check_place+0x19a>
    9161:	b8 02 00 00 00       	mov    $0x2,%eax
    9166:	e8 00 00 00 00       	callq  916b <check_place+0x1a4>
    916b:	83 45 f0 01          	addl   $0x1,-0x10(%rbp)
    916f:	8b 05 00 00 00 00    	mov    0x0(%rip),%eax        # 9175 <check_place+0x1ae>
    9175:	48 98                	cltq   
    9177:	48 c1 e0 02          	shl    $0x2,%rax
    917b:	48 89 c7             	mov    %rax,%rdi
    917e:	e8 00 00 00 00       	callq  9183 <check_place+0x1bc>
    9183:	48 89 05 00 00 00 00 	mov    %rax,0x0(%rip)        # 918a <check_place+0x1c3>
    918a:	c7 45 fc 00 00 00 00 	movl   $0x0,-0x4(%rbp)
    9191:	eb 1e                	jmp    91b1 <check_place+0x1ea>
    9193:	48 8b 05 00 00 00 00 	mov    0x0(%rip),%rax        # 919a <check_place+0x1d3>
    919a:	8b 55 fc             	mov    -0x4(%rbp),%edx
    919d:	48 63 d2             	movslq %edx,%rdx
    91a0:	48 c1 e2 02          	shl    $0x2,%rdx
    91a4:	48 01 d0             	add    %rdx,%rax
    91a7:	c7 00 00 00 00 00    	movl   $0x0,(%rax)
    91ad:	83 45 fc 01          	addl   $0x1,-0x4(%rbp)
    91b1:	8b 05 00 00 00 00    	mov    0x0(%rip),%eax        # 91b7 <check_place+0x1f0>
    91b7:	39 45 fc             	cmp    %eax,-0x4(%rbp)
    91ba:	7c d7                	jl     9193 <check_place+0x1cc>
    91bc:	c7 45 fc 00 00 00 00 	movl   $0x0,-0x4(%rbp)
    91c3:	e9 03 03 00 00       	jmpq   94cb <check_place+0x504>
    91c8:	c7 45 f8 00 00 00 00 	movl   $0x0,-0x8(%rbp)
    91cf:	e9 e1 02 00 00       	jmpq   94b5 <check_place+0x4ee>
    91d4:	48 8b 05 00 00 00 00 	mov    0x0(%rip),%rax        # 91db <check_place+0x214>
    91db:	8b 55 fc             	mov    -0x4(%rbp),%edx
    91de:	48 63 d2             	movslq %edx,%rdx
    91e1:	48 c1 e2 03          	shl    $0x3,%rdx
    91e5:	48 01 d0             	add    %rdx,%rax
    91e8:	48 8b 08             	mov    (%rax),%rcx
    91eb:	8b 45 f8             	mov    -0x8(%rbp),%eax
    91ee:	48 63 d0             	movslq %eax,%rdx
    91f1:	48 89 d0             	mov    %rdx,%rax
    91f4:	48 01 c0             	add    %rax,%rax
    91f7:	48 01 d0             	add    %rdx,%rax
    91fa:	48 c1 e0 03          	shl    $0x3,%rax
    91fe:	48 01 c8             	add    %rcx,%rax
    9201:	8b 48 0c             	mov    0xc(%rax),%ecx
    9204:	48 8b 05 00 00 00 00 	mov    0x0(%rip),%rax        # 920b <check_place+0x244>
    920b:	8b 55 fc             	mov    -0x4(%rbp),%edx
    920e:	48 63 d2             	movslq %edx,%rdx
    9211:	48 c1 e2 03          	shl    $0x3,%rdx
    9215:	48 01 d0             	add    %rdx,%rax
    9218:	48 8b 30             	mov    (%rax),%rsi
    921b:	8b 45 f8             	mov    -0x8(%rbp),%eax
    921e:	48 63 d0             	movslq %eax,%rdx
    9221:	48 89 d0             	mov    %rdx,%rax
    9224:	48 01 c0             	add    %rax,%rax
    9227:	48 01 d0             	add    %rdx,%rax
    922a:	48 c1 e0 03          	shl    $0x3,%rax
    922e:	48 01 f0             	add    %rsi,%rax
    9231:	48 8b 00             	mov    (%rax),%rax
    9234:	8b 40 0c             	mov    0xc(%rax),%eax
    9237:	39 c1                	cmp    %eax,%ecx
    9239:	7e 4d                	jle    9288 <check_place+0x2c1>
    923b:	48 8b 05 00 00 00 00 	mov    0x0(%rip),%rax        # 9242 <check_place+0x27b>
    9242:	8b 55 fc             	mov    -0x4(%rbp),%edx
    9245:	48 63 d2             	movslq %edx,%rdx
    9248:	48 c1 e2 03          	shl    $0x3,%rdx
    924c:	48 01 d0             	add    %rdx,%rax
    924f:	48 8b 08             	mov    (%rax),%rcx
    9252:	8b 45 f8             	mov    -0x8(%rbp),%eax
    9255:	48 63 d0             	movslq %eax,%rdx
    9258:	48 89 d0             	mov    %rdx,%rax
    925b:	48 01 c0             	add    %rax,%rax
    925e:	48 01 d0             	add    %rdx,%rax
    9261:	48 c1 e0 03          	shl    $0x3,%rax
    9265:	48 01 c8             	add    %rcx,%rax
    9268:	8b 48 0c             	mov    0xc(%rax),%ecx
    926b:	8b 55 f8             	mov    -0x8(%rbp),%edx
    926e:	8b 45 fc             	mov    -0x4(%rbp),%eax
    9271:	89 c6                	mov    %eax,%esi
    9273:	48 8d 3d 00 00 00 00 	lea    0x0(%rip),%rdi        # 927a <check_place+0x2b3>
    927a:	b8 00 00 00 00       	mov    $0x0,%eax
    927f:	e8 00 00 00 00       	callq  9284 <check_place+0x2bd>
    9284:	83 45 f0 01          	addl   $0x1,-0x10(%rbp)
    9288:	c7 45 ec 00 00 00 00 	movl   $0x0,-0x14(%rbp)
    928f:	c7 45 f4 00 00 00 00 	movl   $0x0,-0xc(%rbp)
    9296:	e9 56 01 00 00       	jmpq   93f1 <check_place+0x42a>
    929b:	48 8b 05 00 00 00 00 	mov    0x0(%rip),%rax        # 92a2 <check_place+0x2db>
    92a2:	8b 55 fc             	mov    -0x4(%rbp),%edx
    92a5:	48 63 d2             	movslq %edx,%rdx
    92a8:	48 c1 e2 03          	shl    $0x3,%rdx
    92ac:	48 01 d0             	add    %rdx,%rax
    92af:	48 8b 08             	mov    (%rax),%rcx
    92b2:	8b 45 f8             	mov    -0x8(%rbp),%eax
    92b5:	48 63 d0             	movslq %eax,%rdx
    92b8:	48 89 d0             	mov    %rdx,%rax
    92bb:	48 01 c0             	add    %rax,%rax
    92be:	48 01 d0             	add    %rdx,%rax
    92c1:	48 c1 e0 03          	shl    $0x3,%rax
    92c5:	48 01 c8             	add    %rcx,%rax
    92c8:	48 8b 40 10          	mov    0x10(%rax),%rax
    92cc:	8b 55 f4             	mov    -0xc(%rbp),%edx
    92cf:	48 63 d2             	movslq %edx,%rdx
    92d2:	48 c1 e2 02          	shl    $0x2,%rdx
    92d6:	48 01 d0             	add    %rdx,%rax
    92d9:	8b 00                	mov    (%rax),%eax
    92db:	89 45 e4             	mov    %eax,-0x1c(%rbp)
    92de:	83 7d e4 ff          	cmpl   $0xffffffff,-0x1c(%rbp)
    92e2:	0f 84 04 01 00 00    	je     93ec <check_place+0x425>
    92e8:	48 8b 0d 00 00 00 00 	mov    0x0(%rip),%rcx        # 92ef <check_place+0x328>
    92ef:	8b 45 e4             	mov    -0x1c(%rbp),%eax
    92f2:	48 63 d0             	movslq %eax,%rdx
    92f5:	48 89 d0             	mov    %rdx,%rax
    92f8:	48 c1 e0 02          	shl    $0x2,%rax
    92fc:	48 01 d0             	add    %rdx,%rax
    92ff:	48 c1 e0 03          	shl    $0x3,%rax
    9303:	48 01 c8             	add    %rcx,%rax
    9306:	48 8b 48 08          	mov    0x8(%rax),%rcx
    930a:	48 8b 05 00 00 00 00 	mov    0x0(%rip),%rax        # 9311 <check_place+0x34a>
    9311:	8b 55 fc             	mov    -0x4(%rbp),%edx
    9314:	48 63 d2             	movslq %edx,%rdx
    9317:	48 c1 e2 03          	shl    $0x3,%rdx
    931b:	48 01 d0             	add    %rdx,%rax
    931e:	48 8b 30             	mov    (%rax),%rsi
    9321:	8b 45 f8             	mov    -0x8(%rbp),%eax
    9324:	48 63 d0             	movslq %eax,%rdx
    9327:	48 89 d0             	mov    %rdx,%rax
    932a:	48 01 c0             	add    %rax,%rax
    932d:	48 01 d0             	add    %rdx,%rax
    9330:	48 c1 e0 03          	shl    $0x3,%rax
    9334:	48 01 f0             	add    %rsi,%rax
    9337:	48 8b 00             	mov    (%rax),%rax
    933a:	48 39 c1             	cmp    %rax,%rcx
    933d:	74 20                	je     935f <check_place+0x398>
    933f:	8b 4d f8             	mov    -0x8(%rbp),%ecx
    9342:	8b 55 fc             	mov    -0x4(%rbp),%edx
    9345:	8b 45 e4             	mov    -0x1c(%rbp),%eax
    9348:	89 c6                	mov    %eax,%esi
    934a:	48 8d 3d 00 00 00 00 	lea    0x0(%rip),%rdi        # 9351 <check_place+0x38a>
    9351:	b8 00 00 00 00       	mov    $0x0,%eax
    9356:	e8 00 00 00 00       	callq  935b <check_place+0x394>
    935b:	83 45 f0 01          	addl   $0x1,-0x10(%rbp)
    935f:	48 8b 0d 00 00 00 00 	mov    0x0(%rip),%rcx        # 9366 <check_place+0x39f>
    9366:	8b 45 e4             	mov    -0x1c(%rbp),%eax
    9369:	48 63 d0             	movslq %eax,%rdx
    936c:	48 89 d0             	mov    %rdx,%rax
    936f:	48 c1 e0 02          	shl    $0x2,%rax
    9373:	48 01 d0             	add    %rdx,%rax
    9376:	48 c1 e0 03          	shl    $0x3,%rax
    937a:	48 01 c8             	add    %rcx,%rax
    937d:	8b 40 18             	mov    0x18(%rax),%eax
    9380:	3b 45 fc             	cmp    -0x4(%rbp),%eax
    9383:	75 26                	jne    93ab <check_place+0x3e4>
    9385:	48 8b 0d 00 00 00 00 	mov    0x0(%rip),%rcx        # 938c <check_place+0x3c5>
    938c:	8b 45 e4             	mov    -0x1c(%rbp),%eax
    938f:	48 63 d0             	movslq %eax,%rdx
    9392:	48 89 d0             	mov    %rdx,%rax
    9395:	48 c1 e0 02          	shl    $0x2,%rax
    9399:	48 01 d0             	add    %rdx,%rax
    939c:	48 c1 e0 03          	shl    $0x3,%rax
    93a0:	48 01 c8             	add    %rcx,%rax
    93a3:	8b 40 1c             	mov    0x1c(%rax),%eax
    93a6:	3b 45 f8             	cmp    -0x8(%rbp),%eax
    93a9:	74 20                	je     93cb <check_place+0x404>
    93ab:	8b 4d f8             	mov    -0x8(%rbp),%ecx
    93ae:	8b 55 fc             	mov    -0x4(%rbp),%edx
    93b1:	8b 45 e4             	mov    -0x1c(%rbp),%eax
    93b4:	89 c6                	mov    %eax,%esi
    93b6:	48 8d 3d 00 00 00 00 	lea    0x0(%rip),%rdi        # 93bd <check_place+0x3f6>
    93bd:	b8 00 00 00 00       	mov    $0x0,%eax
    93c2:	e8 00 00 00 00       	callq  93c7 <check_place+0x400>
    93c7:	83 45 f0 01          	addl   $0x1,-0x10(%rbp)
    93cb:	83 45 ec 01          	addl   $0x1,-0x14(%rbp)
    93cf:	48 8b 05 00 00 00 00 	mov    0x0(%rip),%rax        # 93d6 <check_place+0x40f>
    93d6:	8b 55 e4             	mov    -0x1c(%rbp),%edx
    93d9:	48 63 d2             	movslq %edx,%rdx
    93dc:	48 c1 e2 02          	shl    $0x2,%rdx
    93e0:	48 01 d0             	add    %rdx,%rax
    93e3:	8b 10                	mov    (%rax),%edx
    93e5:	83 c2 01             	add    $0x1,%edx
    93e8:	89 10                	mov    %edx,(%rax)
    93ea:	eb 01                	jmp    93ed <check_place+0x426>
    93ec:	90                   	nop
    93ed:	83 45 f4 01          	addl   $0x1,-0xc(%rbp)
    93f1:	48 8b 05 00 00 00 00 	mov    0x0(%rip),%rax        # 93f8 <check_place+0x431>
    93f8:	8b 55 fc             	mov    -0x4(%rbp),%edx
    93fb:	48 63 d2             	movslq %edx,%rdx
    93fe:	48 c1 e2 03          	shl    $0x3,%rdx
    9402:	48 01 d0             	add    %rdx,%rax
    9405:	48 8b 08             	mov    (%rax),%rcx
    9408:	8b 45 f8             	mov    -0x8(%rbp),%eax
    940b:	48 63 d0             	movslq %eax,%rdx
    940e:	48 89 d0             	mov    %rdx,%rax
    9411:	48 01 c0             	add    %rax,%rax
    9414:	48 01 d0             	add    %rdx,%rax
    9417:	48 c1 e0 03          	shl    $0x3,%rax
    941b:	48 01 c8             	add    %rcx,%rax
    941e:	48 8b 00             	mov    (%rax),%rax
    9421:	8b 40 0c             	mov    0xc(%rax),%eax
    9424:	3b 45 f4             	cmp    -0xc(%rbp),%eax
    9427:	0f 8f 6e fe ff ff    	jg     929b <check_place+0x2d4>
    942d:	48 8b 05 00 00 00 00 	mov    0x0(%rip),%rax        # 9434 <check_place+0x46d>
    9434:	8b 55 fc             	mov    -0x4(%rbp),%edx
    9437:	48 63 d2             	movslq %edx,%rdx
    943a:	48 c1 e2 03          	shl    $0x3,%rdx
    943e:	48 01 d0             	add    %rdx,%rax
    9441:	48 8b 08             	mov    (%rax),%rcx
    9444:	8b 45 f8             	mov    -0x8(%rbp),%eax
    9447:	48 63 d0             	movslq %eax,%rdx
    944a:	48 89 d0             	mov    %rdx,%rax
    944d:	48 01 c0             	add    %rax,%rax
    9450:	48 01 d0             	add    %rdx,%rax
    9453:	48 c1 e0 03          	shl    $0x3,%rax
    9457:	48 01 c8             	add    %rcx,%rax
    945a:	8b 40 0c             	mov    0xc(%rax),%eax
    945d:	3b 45 ec             	cmp    -0x14(%rbp),%eax
    9460:	74 4f                	je     94b1 <check_place+0x4ea>
    9462:	48 8b 05 00 00 00 00 	mov    0x0(%rip),%rax        # 9469 <check_place+0x4a2>
    9469:	8b 55 fc             	mov    -0x4(%rbp),%edx
    946c:	48 63 d2             	movslq %edx,%rdx
    946f:	48 c1 e2 03          	shl    $0x3,%rdx
    9473:	48 01 d0             	add    %rdx,%rax
    9476:	48 8b 08             	mov    (%rax),%rcx
    9479:	8b 45 f8             	mov    -0x8(%rbp),%eax
    947c:	48 63 d0             	movslq %eax,%rdx
    947f:	48 89 d0             	mov    %rdx,%rax
    9482:	48 01 c0             	add    %rax,%rax
    9485:	48 01 d0             	add    %rdx,%rax
    9488:	48 c1 e0 03          	shl    $0x3,%rax
    948c:	48 01 c8             	add    %rcx,%rax
    948f:	8b 48 0c             	mov    0xc(%rax),%ecx
    9492:	8b 75 ec             	mov    -0x14(%rbp),%esi
    9495:	8b 55 f8             	mov    -0x8(%rbp),%edx
    9498:	8b 45 fc             	mov    -0x4(%rbp),%eax
    949b:	41 89 f0             	mov    %esi,%r8d
    949e:	89 c6                	mov    %eax,%esi
    94a0:	48 8d 3d 00 00 00 00 	lea    0x0(%rip),%rdi        # 94a7 <check_place+0x4e0>
    94a7:	b8 00 00 00 00       	mov    $0x0,%eax
    94ac:	e8 00 00 00 00       	callq  94b1 <check_place+0x4ea>
    94b1:	83 45 f8 01          	addl   $0x1,-0x8(%rbp)
    94b5:	8b 05 00 00 00 00    	mov    0x0(%rip),%eax        # 94bb <check_place+0x4f4>
    94bb:	83 c0 01             	add    $0x1,%eax
    94be:	3b 45 f8             	cmp    -0x8(%rbp),%eax
    94c1:	0f 8d 0d fd ff ff    	jge    91d4 <check_place+0x20d>
    94c7:	83 45 fc 01          	addl   $0x1,-0x4(%rbp)
    94cb:	8b 05 00 00 00 00    	mov    0x0(%rip),%eax        # 94d1 <check_place+0x50a>
    94d1:	83 c0 01             	add    $0x1,%eax
    94d4:	3b 45 fc             	cmp    -0x4(%rbp),%eax
    94d7:	0f 8d eb fc ff ff    	jge    91c8 <check_place+0x201>
    94dd:	c7 45 fc 00 00 00 00 	movl   $0x0,-0x4(%rbp)
    94e4:	eb 4f                	jmp    9535 <check_place+0x56e>
    94e6:	48 8b 05 00 00 00 00 	mov    0x0(%rip),%rax        # 94ed <check_place+0x526>
    94ed:	8b 55 fc             	mov    -0x4(%rbp),%edx
    94f0:	48 63 d2             	movslq %edx,%rdx
    94f3:	48 c1 e2 02          	shl    $0x2,%rdx
    94f7:	48 01 d0             	add    %rdx,%rax
    94fa:	8b 00                	mov    (%rax),%eax
    94fc:	83 f8 01             	cmp    $0x1,%eax
    94ff:	74 30                	je     9531 <check_place+0x56a>
    9501:	48 8b 05 00 00 00 00 	mov    0x0(%rip),%rax        # 9508 <check_place+0x541>
    9508:	8b 55 fc             	mov    -0x4(%rbp),%edx
    950b:	48 63 d2             	movslq %edx,%rdx
    950e:	48 c1 e2 02          	shl    $0x2,%rdx
    9512:	48 01 d0             	add    %rdx,%rax
    9515:	8b 10                	mov    (%rax),%edx
    9517:	8b 45 fc             	mov    -0x4(%rbp),%eax
    951a:	89 c6                	mov    %eax,%esi
    951c:	48 8d 3d 00 00 00 00 	lea    0x0(%rip),%rdi        # 9523 <check_place+0x55c>
    9523:	b8 00 00 00 00       	mov    $0x0,%eax
    9528:	e8 00 00 00 00       	callq  952d <check_place+0x566>
    952d:	83 45 f0 01          	addl   $0x1,-0x10(%rbp)
    9531:	83 45 fc 01          	addl   $0x1,-0x4(%rbp)
    9535:	8b 05 00 00 00 00    	mov    0x0(%rip),%eax        # 953b <check_place+0x574>
    953b:	39 45 fc             	cmp    %eax,-0x4(%rbp)
    953e:	7c a6                	jl     94e6 <check_place+0x51f>
    9540:	48 8b 05 00 00 00 00 	mov    0x0(%rip),%rax        # 9547 <check_place+0x580>
    9547:	48 89 c7             	mov    %rax,%rdi
    954a:	e8 00 00 00 00       	callq  954f <check_place+0x588>
    954f:	83 7d f0 00          	cmpl   $0x0,-0x10(%rbp)
    9553:	75 0e                	jne    9563 <check_place+0x59c>
    9555:	48 8d 3d 00 00 00 00 	lea    0x0(%rip),%rdi        # 955c <check_place+0x595>
    955c:	e8 00 00 00 00       	callq  9561 <check_place+0x59a>
    9561:	eb 2c                	jmp    958f <check_place+0x5c8>
    9563:	8b 45 f0             	mov    -0x10(%rbp),%eax
    9566:	89 c6                	mov    %eax,%esi
    9568:	48 8d 3d 00 00 00 00 	lea    0x0(%rip),%rdi        # 956f <check_place+0x5a8>
    956f:	b8 00 00 00 00       	mov    $0x0,%eax
    9574:	e8 00 00 00 00       	callq  9579 <check_place+0x5b2>
    9579:	48 8d 3d 00 00 00 00 	lea    0x0(%rip),%rdi        # 9580 <check_place+0x5b9>
    9580:	e8 00 00 00 00       	callq  9585 <check_place+0x5be>
    9585:	bf 01 00 00 00       	mov    $0x1,%edi
    958a:	e8 00 00 00 00       	callq  958f <check_place+0x5c8>
    958f:	c9                   	leaveq 
    9590:	c3                   	retq   
